---
triple:          'arm64-apple-darwin'
binary-path:     detectoreffect
relocations:
  - { offset: 0x49, size: 0x8, addend: 0x0, symName: __ZN4ROOT8InternalL13gVersionCheckE, symObjAddr: 0x26072B, symBinAddr: 0x100060008, symSize: 0x0 }
  - { offset: 0x3AB, size: 0x8, addend: 0x0, symName: __ZN4ROOT8Internal14GetClassHelperIfEEP6TClassbbNSt3__117integral_constantIbLb0EEE, symObjAddr: 0x275A0, symBinAddr: 0x10002B700, symSize: 0x40 }
  - { offset: 0x42B, size: 0x8, addend: 0x0, symName: __ZN4ROOT8Internal14GetClassHelperIiEEP6TClassbbNSt3__117integral_constantIbLb0EEE, symObjAddr: 0x27670, symBinAddr: 0x10002B7D0, symSize: 0x40 }
  - { offset: 0x1744, size: 0x8, addend: 0x0, symName: __ZNSt3__119piecewise_constructE, symObjAddr: 0x30828, symBinAddr: 0x1000591B8, symSize: 0x0 }
  - { offset: 0x3A34D, size: 0x8, addend: 0x0, symName: __ZNSt3__124__put_character_sequenceB8ne180100IcNS_11char_traitsIcEEEERNS_13basic_ostreamIT_T0_EES7_PKS4_m, symObjAddr: 0xE8B4, symBinAddr: 0x100012A14, symSize: 0x1EC }
  - { offset: 0x3C3EE, size: 0x8, addend: 0x0, symName: __ZNSt3__16copy_nB8ne180100IPKcmPcLi0EEET1_T_T0_S4_, symObjAddr: 0x1CB60, symBinAddr: 0x100020CC0, symSize: 0x44 }
  - { offset: 0x4A813, size: 0x8, addend: 0x0, symName: __ZNSt3__18__fill_nB8ne180100ILb1ENS_6vectorIbNS_9allocatorIbEEEEEEvNS_14__bit_iteratorIT0_Lb0EXLi0EEEENS6_9size_typeE, symObjAddr: 0x2E308, symBinAddr: 0x100032468, symSize: 0x164 }
  - { offset: 0x4A8DB, size: 0x8, addend: 0x0, symName: __ZNSt3__18__fill_nB8ne180100ILb0ENS_6vectorIbNS_9allocatorIbEEEEEEvNS_14__bit_iteratorIT0_Lb0EXLi0EEEENS6_9size_typeE, symObjAddr: 0x2E4A0, symBinAddr: 0x100032600, symSize: 0x160 }
  - { offset: 0x4AEA1, size: 0x8, addend: 0x0, symName: __ZNSt3__1neB8ne180100IPNS_12basic_stringIcNS_11char_traitsIcEENS_9allocatorIcEEEEEEbRKNS_11__wrap_iterIT_EESC_, symObjAddr: 0x1F0, symBinAddr: 0x100004350, symSize: 0x34 }
  - { offset: 0x4B759, size: 0x8, addend: 0x0, symName: __ZNSt3__14swapB8ne180100IdEENS_9enable_ifIXaasr21is_move_constructibleIT_EE5valuesr18is_move_assignableIS2_EE5valueEvE4typeERS2_S5_, symObjAddr: 0x2408, symBinAddr: 0x100006568, symSize: 0x3C }
  - { offset: 0x4BBE1, size: 0x8, addend: 0x0, symName: __ZNSt3__1rsB8ne180100IcNS_11char_traitsIcEENS_9allocatorIcEEEERNS_13basic_istreamIT_T0_EES9_RNS_12basic_stringIS6_S7_T1_EE, symObjAddr: 0x2760, symBinAddr: 0x1000068C0, symSize: 0x30C }
  - { offset: 0x4BCAE, size: 0x8, addend: 0x0, symName: __ZNSt3__1eqB8ne180100IcNS_11char_traitsIcEENS_9allocatorIcEEEEbRKNS_12basic_stringIT_T0_T1_EEPKS6_, symObjAddr: 0x2A6C, symBinAddr: 0x100006BCC, symSize: 0xAC }
  - { offset: 0x4BD20, size: 0x8, addend: 0x0, symName: __ZNSt3__1lsB8ne180100INS_11char_traitsIcEEEERNS_13basic_ostreamIcT_EES6_PKc, symObjAddr: 0x2D5C, symBinAddr: 0x100006EBC, symSize: 0x48 }
  - { offset: 0x4BD66, size: 0x8, addend: 0x0, symName: __ZNSt3__1lsB8ne180100IcNS_11char_traitsIcEENS_9allocatorIcEEEERNS_13basic_ostreamIT_T0_EES9_RKNS_12basic_stringIS6_S7_T1_EE, symObjAddr: 0x2DA4, symBinAddr: 0x100006F04, symSize: 0x4C }
  - { offset: 0x4BDBE, size: 0x8, addend: 0x0, symName: __ZNSt3__14endlB8ne180100IcNS_11char_traitsIcEEEERNS_13basic_ostreamIT_T0_EES7_, symObjAddr: 0x2E1C, symBinAddr: 0x100006F7C, symSize: 0x58 }
  - { offset: 0x4BDFE, size: 0x8, addend: 0x0, symName: __ZNSt3__1plB8ne180100IcNS_11char_traitsIcEENS_9allocatorIcEEEENS_12basic_stringIT_T0_T1_EERKS9_PKS6_, symObjAddr: 0x3B94, symBinAddr: 0x100007CF4, symSize: 0x11C }
  - { offset: 0x4BE9F, size: 0x8, addend: 0x0, symName: __ZNSt3__13minB8ne180100IxEERKT_S3_S3_, symObjAddr: 0x9D2C, symBinAddr: 0x10000DE8C, symSize: 0x2C }
  - { offset: 0x4BEE7, size: 0x8, addend: 0x0, symName: __ZNSt3__16__math3cosB8ne180100Ef, symObjAddr: 0x9DE0, symBinAddr: 0x10000DF40, symSize: 0x24 }
  - { offset: 0x4BF13, size: 0x8, addend: 0x0, symName: __ZNSt3__16__math3sinB8ne180100Ef, symObjAddr: 0x9E04, symBinAddr: 0x10000DF64, symSize: 0x24 }
  - { offset: 0x4BF3F, size: 0x8, addend: 0x0, symName: __ZNSt3__16__math4sinhB8ne180100Ef, symObjAddr: 0x9E28, symBinAddr: 0x10000DF88, symSize: 0x24 }
  - { offset: 0x4BF6B, size: 0x8, addend: 0x0, symName: __ZNSt3__16__math4coshB8ne180100Ef, symObjAddr: 0x9E4C, symBinAddr: 0x10000DFAC, symSize: 0x24 }
  - { offset: 0x4BF97, size: 0x8, addend: 0x0, symName: __ZNSt3__16__math4atanB8ne180100Ef, symObjAddr: 0xA484, symBinAddr: 0x10000E5E4, symSize: 0x24 }
  - { offset: 0x4BFC3, size: 0x8, addend: 0x0, symName: __ZNSt3__16__math3expB8ne180100Ef, symObjAddr: 0xA4A8, symBinAddr: 0x10000E608, symSize: 0x24 }
  - { offset: 0x4C034, size: 0x8, addend: 0x0, symName: __ZNSt3__13minB8ne180100IdEERKT_S3_S3_, symObjAddr: 0xA340, symBinAddr: 0x10000E4A0, symSize: 0x2C }
  - { offset: 0x4C077, size: 0x8, addend: 0x0, symName: __ZNSt3__1neB8ne180100ERKNS_14__map_iteratorINS_15__tree_iteratorINS_12__value_typeIiiEEPNS_11__tree_nodeIS3_PvEElEEEESB_, symObjAddr: 0xAD2C, symBinAddr: 0x10000EE8C, symSize: 0x30 }
  - { offset: 0x4C0B4, size: 0x8, addend: 0x0, symName: __ZNSt3__1eqB8ne180100IPNS_12basic_stringIcNS_11char_traitsIcEENS_9allocatorIcEEEEEEbRKNS_11__wrap_iterIT_EESC_, symObjAddr: 0xAFB8, symBinAddr: 0x10000F118, symSize: 0x48 }
  - { offset: 0x4C0F8, size: 0x8, addend: 0x0, symName: __ZNSt3__112__to_addressB8ne180100IP3TF1EEPT_S4_, symObjAddr: 0xB90C, symBinAddr: 0x10000FA6C, symSize: 0x14 }
  - { offset: 0x4C12E, size: 0x8, addend: 0x0, symName: __ZNSt3__119__libcpp_deallocateB8ne180100EPvmm, symObjAddr: 0xB974, symBinAddr: 0x10000FAD4, symSize: 0x60 }
  - { offset: 0x4C195, size: 0x8, addend: 0x0, symName: __ZNSt3__124__is_overaligned_for_newB8ne180100Em, symObjAddr: 0xB9D4, symBinAddr: 0x10000FB34, symSize: 0x20 }
  - { offset: 0x4C1C4, size: 0x8, addend: 0x0, symName: __ZNSt3__127__do_deallocate_handle_sizeB8ne180100IJSt11align_val_tEEEvPvmDpT_, symObjAddr: 0xB9F4, symBinAddr: 0x10000FB54, symSize: 0x30 }
  - { offset: 0x4C218, size: 0x8, addend: 0x0, symName: __ZNSt3__127__do_deallocate_handle_sizeB8ne180100IJEEEvPvmDpT_, symObjAddr: 0xBA24, symBinAddr: 0x10000FB84, symSize: 0x28 }
  - { offset: 0x4C257, size: 0x8, addend: 0x0, symName: __ZNSt3__124__libcpp_operator_deleteB8ne180100IJPvSt11align_val_tEEEvDpT_, symObjAddr: 0xBA4C, symBinAddr: 0x10000FBAC, symSize: 0x2C }
  - { offset: 0x4C2A1, size: 0x8, addend: 0x0, symName: __ZNSt3__124__libcpp_operator_deleteB8ne180100IJPvEEEvDpT_, symObjAddr: 0xBA78, symBinAddr: 0x10000FBD8, symSize: 0x24 }
  - { offset: 0x4C2D7, size: 0x8, addend: 0x0, symName: __ZNSt3__112__to_addressB8ne180100INS_6vectorIdNS_9allocatorIdEEEEEEPT_S6_, symObjAddr: 0xBDE8, symBinAddr: 0x10000FF48, symSize: 0x14 }
  - { offset: 0x4C30D, size: 0x8, addend: 0x0, symName: __ZNSt3__112__to_addressB8ne180100INS_6vectorIN18SingleJetCorrector4TypeENS_9allocatorIS3_EEEEEEPT_S8_, symObjAddr: 0xC1B4, symBinAddr: 0x100010314, symSize: 0x14 }
  - { offset: 0x4C342, size: 0x8, addend: 0x0, symName: __ZNSt3__1neB8ne180100IPP3TF1EEbRKNS_11__wrap_iterIT_EES8_, symObjAddr: 0xC448, symBinAddr: 0x1000105A8, symSize: 0x34 }
  - { offset: 0x4C385, size: 0x8, addend: 0x0, symName: __ZNSt3__1eqB8ne180100IPP3TF1EEbRKNS_11__wrap_iterIT_EES8_, symObjAddr: 0xC538, symBinAddr: 0x100010698, symSize: 0x48 }
  - { offset: 0x4C3C8, size: 0x8, addend: 0x0, symName: __ZNSt3__122__make_exception_guardB8ne180100INS_6vectorINS_12basic_stringIcNS_11char_traitsIcEENS_9allocatorIcEEEENS5_IS7_EEE16__destroy_vectorEEENS_28__exception_guard_exceptionsIT_EESC_, symObjAddr: 0xCCA8, symBinAddr: 0x100010E08, symSize: 0x40 }
  - { offset: 0x4C3FD, size: 0x8, addend: 0x0, symName: __ZNSt3__119__allocate_at_leastB8ne180100INS_9allocatorINS_12basic_stringIcNS_11char_traitsIcEENS1_IcEEEEEEEENS_19__allocation_resultINS_16allocator_traitsIT_E7pointerEEERSA_m, symObjAddr: 0xCF98, symBinAddr: 0x1000110F8, symSize: 0x40 }
  - { offset: 0x4C440, size: 0x8, addend: 0x0, symName: __ZNSt3__13minB8ne180100ImEERKT_S3_S3_, symObjAddr: 0xD03C, symBinAddr: 0x10001119C, symSize: 0x2C }
  - { offset: 0x4C66D, size: 0x8, addend: 0x0, symName: __ZNSt3__13minB8ne180100ImNS_6__lessIvvEEEERKT_S5_S5_T0_, symObjAddr: 0xD0A0, symBinAddr: 0x100011200, symSize: 0x54 }
  - { offset: 0x4C7A2, size: 0x8, addend: 0x0, symName: __ZNSt3__120__throw_length_errorB8ne180100EPKc, symObjAddr: 0xD148, symBinAddr: 0x1000112A8, symSize: 0x64 }
  - { offset: 0x4C7CA, size: 0x8, addend: 0x0, symName: __ZNSt3__117__libcpp_allocateB8ne180100Emm, symObjAddr: 0xD2B4, symBinAddr: 0x100011414, symSize: 0x60 }
  - { offset: 0x4C825, size: 0x8, addend: 0x0, symName: __ZNSt3__121__libcpp_operator_newB8ne180100IJmSt11align_val_tEEEPvDpT_, symObjAddr: 0xD314, symBinAddr: 0x100011474, symSize: 0x2C }
  - { offset: 0x4C872, size: 0x8, addend: 0x0, symName: __ZNSt3__121__libcpp_operator_newB8ne180100IJmEEEPvDpT_, symObjAddr: 0xD340, symBinAddr: 0x1000114A0, symSize: 0x24 }
  - { offset: 0x4C8AB, size: 0x8, addend: 0x0, symName: __ZNSt3__130__uninitialized_allocator_copyB8ne180100INS_9allocatorINS_12basic_stringIcNS_11char_traitsIcEENS1_IcEEEEEEPS6_S8_S8_EET2_RT_T0_T1_S9_, symObjAddr: 0xD410, symBinAddr: 0x100011570, symSize: 0x80 }
  - { offset: 0x4C948, size: 0x8, addend: 0x0, symName: __ZNSt3__114__unwrap_rangeB8ne180100IPNS_12basic_stringIcNS_11char_traitsIcEENS_9allocatorIcEEEES7_EENS_4pairIT0_S9_EET_SB_, symObjAddr: 0xD508, symBinAddr: 0x100011668, symSize: 0x60 }
  - { offset: 0x4C994, size: 0x8, addend: 0x0, symName: __ZNSt3__135__uninitialized_allocator_copy_implB8ne180100INS_9allocatorINS_12basic_stringIcNS_11char_traitsIcEENS1_IcEEEEEEPS6_S8_S8_EET2_RT_T0_T1_S9_, symObjAddr: 0xD568, symBinAddr: 0x1000116C8, symSize: 0xF4 }
  - { offset: 0x4CA32, size: 0x8, addend: 0x0, symName: __ZNSt3__113__unwrap_iterB8ne180100IPNS_12basic_stringIcNS_11char_traitsIcEENS_9allocatorIcEEEENS_18__unwrap_iter_implIS7_Lb1EEELi0EEEDTclsrT0_8__unwrapclsr3stdE7declvalIT_EEEESB_, symObjAddr: 0xD65C, symBinAddr: 0x1000117BC, symSize: 0x24 }
  - { offset: 0x4CA76, size: 0x8, addend: 0x0, symName: __ZNSt3__113__rewrap_iterB8ne180100IPNS_12basic_stringIcNS_11char_traitsIcEENS_9allocatorIcEEEES7_NS_18__unwrap_iter_implIS7_Lb1EEEEET_SA_T0_, symObjAddr: 0xD680, symBinAddr: 0x1000117E0, symSize: 0x3C }
  - { offset: 0x4CACB, size: 0x8, addend: 0x0, symName: __ZNSt3__19make_pairB8ne180100IPNS_12basic_stringIcNS_11char_traitsIcEENS_9allocatorIcEEEES7_EENS_4pairINS_18__unwrap_ref_decayIT_E4typeENS9_IT0_E4typeEEEOSA_OSD_, symObjAddr: 0xD6BC, symBinAddr: 0x10001181C, symSize: 0x38 }
  - { offset: 0x4CBEE, size: 0x8, addend: 0x0, symName: __ZNSt3__122__make_exception_guardB8ne180100INS_29_AllocatorDestroyRangeReverseINS_9allocatorINS_12basic_stringIcNS_11char_traitsIcEENS2_IcEEEEEEPS7_EEEENS_28__exception_guard_exceptionsIT_EESC_, symObjAddr: 0xD764, symBinAddr: 0x1000118C4, symSize: 0x4C }
  - { offset: 0x4CC25, size: 0x8, addend: 0x0, symName: __ZNSt3__112__to_addressB8ne180100INS_12basic_stringIcNS_11char_traitsIcEENS_9allocatorIcEEEEEEPT_S8_, symObjAddr: 0xD828, symBinAddr: 0x100011988, symSize: 0x14 }
  - { offset: 0x4CC5B, size: 0x8, addend: 0x0, symName: __ZNSt3__119__allocator_destroyB8ne180100INS_9allocatorINS_12basic_stringIcNS_11char_traitsIcEENS1_IcEEEEEENS_16reverse_iteratorIPS6_EESA_EEvRT_T0_T1_, symObjAddr: 0xDA08, symBinAddr: 0x100011B68, symSize: 0x70 }
  - { offset: 0x4CCBE, size: 0x8, addend: 0x0, symName: __ZNSt3__1neB8ne180100IPNS_12basic_stringIcNS_11char_traitsIcEENS_9allocatorIcEEEES7_EEbRKNS_16reverse_iteratorIT_EERKNS8_IT0_EE, symObjAddr: 0xDAAC, symBinAddr: 0x100011C0C, symSize: 0x48 }
  - { offset: 0x4CD0A, size: 0x8, addend: 0x0, symName: __ZNSt3__112__to_addressB8ne180100INS_16reverse_iteratorIPNS_12basic_stringIcNS_11char_traitsIcEENS_9allocatorIcEEEEEEvEEu7__decayIDTclsr19__to_address_helperIT_EE6__callclsr3stdE7declvalIRKSA_EEEEESC_, symObjAddr: 0xDB20, symBinAddr: 0x100011C80, symSize: 0x24 }
  - { offset: 0x4CDBE, size: 0x8, addend: 0x0, symName: __ZNSt3__112__to_addressB8ne180100I18SingleJetCorrectorEEPT_S3_, symObjAddr: 0xE25C, symBinAddr: 0x1000123BC, symSize: 0x14 }
  - { offset: 0x4CDF3, size: 0x8, addend: 0x0, symName: __ZNSt3__13minB8ne180100IxNS_6__lessIvvEEEERKT_S5_S5_T0_, symObjAddr: 0xE41C, symBinAddr: 0x10001257C, symSize: 0x54 }
  - { offset: 0x4CE4D, size: 0x8, addend: 0x0, symName: __ZNSt3__13minB8ne180100IdNS_6__lessIvvEEEERKT_S5_S5_T0_, symObjAddr: 0xE4A4, symBinAddr: 0x100012604, symSize: 0x54 }
  - { offset: 0x4CEA7, size: 0x8, addend: 0x0, symName: __ZNSt3__118__constexpr_strlenB8ne180100EPKc, symObjAddr: 0xE72C, symBinAddr: 0x10001288C, symSize: 0x24 }
  - { offset: 0x4CED4, size: 0x8, addend: 0x0, symName: __ZNSt3__112__to_addressB8ne180100IKcEEPT_S3_, symObjAddr: 0xE778, symBinAddr: 0x1000128D8, symSize: 0x14 }
  - { offset: 0x4CF3C, size: 0x8, addend: 0x0, symName: __ZNSt3__116__pad_and_outputB8ne180100IcNS_11char_traitsIcEEEENS_19ostreambuf_iteratorIT_T0_EES6_PKS4_S8_S8_RNS_8ios_baseES4_, symObjAddr: 0xEABC, symBinAddr: 0x100012C1C, symSize: 0x240 }
  - { offset: 0x4D00C, size: 0x8, addend: 0x0, symName: __ZNSt3__112__to_addressB8ne180100IcEEPT_S2_, symObjAddr: 0xEF2C, symBinAddr: 0x10001308C, symSize: 0x14 }
  - { offset: 0x4D074, size: 0x8, addend: 0x0, symName: __ZNSt3__19use_facetB8ne180100INS_5ctypeIcEEEERKT_RKNS_6localeE, symObjAddr: 0xF174, symBinAddr: 0x1000132D4, symSize: 0x2C }
  - { offset: 0x4D453, size: 0x8, addend: 0x0, symName: __ZNSt3__112__to_addressB8ne180100IdEEPT_S2_, symObjAddr: 0xF860, symBinAddr: 0x1000139C0, symSize: 0x14 }
  - { offset: 0x4D488, size: 0x8, addend: 0x0, symName: __ZNSt3__13maxB8ne180100ImEERKT_S3_S3_, symObjAddr: 0xFDB0, symBinAddr: 0x100013F10, symSize: 0x2C }
  - { offset: 0x4D4CB, size: 0x8, addend: 0x0, symName: __ZNSt3__13maxB8ne180100ImNS_6__lessIvvEEEERKT_S5_S5_T0_, symObjAddr: 0xFDDC, symBinAddr: 0x100013F3C, symSize: 0x54 }
  - { offset: 0x4D525, size: 0x8, addend: 0x0, symName: __ZNSt3__142__uninitialized_allocator_move_if_noexceptB8ne180100INS_9allocatorINS_12basic_stringIcNS_11char_traitsIcEENS1_IcEEEEEENS_16reverse_iteratorIPS6_EESA_SA_EET2_RT_T0_T1_SB_, symObjAddr: 0x10068, symBinAddr: 0x1000141C8, symSize: 0x11C }
  - { offset: 0x4D5C6, size: 0x8, addend: 0x0, symName: __ZNSt3__14swapB8ne180100IPNS_12basic_stringIcNS_11char_traitsIcEENS_9allocatorIcEEEEEENS_9enable_ifIXaasr21is_move_constructibleIT_EE5valuesr18is_move_assignableIS9_EE5valueEvE4typeERS9_SC_, symObjAddr: 0x10184, symBinAddr: 0x1000142E4, symSize: 0x3C }
  - { offset: 0x4D617, size: 0x8, addend: 0x0, symName: __ZNSt3__122__make_exception_guardB8ne180100INS_29_AllocatorDestroyRangeReverseINS_9allocatorINS_12basic_stringIcNS_11char_traitsIcEENS2_IcEEEEEENS_16reverse_iteratorIPS7_EEEEEENS_28__exception_guard_exceptionsIT_EESE_, symObjAddr: 0x101C0, symBinAddr: 0x100014320, symSize: 0x4C }
  - { offset: 0x4D64E, size: 0x8, addend: 0x0, symName: __ZNSt3__119__allocator_destroyB8ne180100INS_9allocatorINS_12basic_stringIcNS_11char_traitsIcEENS1_IcEEEEEENS_16reverse_iteratorINS8_IPS6_EEEESB_EEvRT_T0_T1_, symObjAddr: 0x1049C, symBinAddr: 0x1000145FC, symSize: 0x70 }
  - { offset: 0x4D6B3, size: 0x8, addend: 0x0, symName: __ZNSt3__1neB8ne180100INS_16reverse_iteratorIPNS_12basic_stringIcNS_11char_traitsIcEENS_9allocatorIcEEEEEES9_EEbRKNS1_IT_EERKNS1_IT0_EE, symObjAddr: 0x10548, symBinAddr: 0x1000146A8, symSize: 0x60 }
  - { offset: 0x4D6FF, size: 0x8, addend: 0x0, symName: __ZNSt3__112__to_addressB8ne180100INS_16reverse_iteratorINS1_IPNS_12basic_stringIcNS_11char_traitsIcEENS_9allocatorIcEEEEEEEEvEEu7__decayIDTclsr19__to_address_helperIT_EE6__callclsr3stdE7declvalIRKSB_EEEEESD_, symObjAddr: 0x105A8, symBinAddr: 0x100014708, symSize: 0x24 }
  - { offset: 0x4D75F, size: 0x8, addend: 0x0, symName: __ZNSt3__122__make_exception_guardB8ne180100INS_6vectorINS1_IdNS_9allocatorIdEEEENS2_IS4_EEE16__destroy_vectorEEENS_28__exception_guard_exceptionsIT_EES9_, symObjAddr: 0x11160, symBinAddr: 0x1000152C0, symSize: 0x40 }
  - { offset: 0x4D794, size: 0x8, addend: 0x0, symName: __ZNSt3__119__allocate_at_leastB8ne180100INS_9allocatorINS_6vectorIdNS1_IdEEEEEEEENS_19__allocation_resultINS_16allocator_traitsIT_E7pointerEEERS8_m, symObjAddr: 0x113FC, symBinAddr: 0x10001555C, symSize: 0x40 }
  - { offset: 0x4D7D7, size: 0x8, addend: 0x0, symName: __ZNSt3__130__uninitialized_allocator_copyB8ne180100INS_9allocatorINS_6vectorIdNS1_IdEEEEEEPS4_S6_S6_EET2_RT_T0_T1_S7_, symObjAddr: 0x11584, symBinAddr: 0x1000156E4, symSize: 0x80 }
  - { offset: 0x4D874, size: 0x8, addend: 0x0, symName: __ZNSt3__114__unwrap_rangeB8ne180100IPNS_6vectorIdNS_9allocatorIdEEEES5_EENS_4pairIT0_S7_EET_S9_, symObjAddr: 0x1167C, symBinAddr: 0x1000157DC, symSize: 0x60 }
  - { offset: 0x4D8C0, size: 0x8, addend: 0x0, symName: __ZNSt3__135__uninitialized_allocator_copy_implB8ne180100INS_9allocatorINS_6vectorIdNS1_IdEEEEEEPS4_S6_S6_EET2_RT_T0_T1_S7_, symObjAddr: 0x116DC, symBinAddr: 0x10001583C, symSize: 0xF4 }
  - { offset: 0x4D95E, size: 0x8, addend: 0x0, symName: __ZNSt3__113__unwrap_iterB8ne180100IPNS_6vectorIdNS_9allocatorIdEEEENS_18__unwrap_iter_implIS5_Lb1EEELi0EEEDTclsrT0_8__unwrapclsr3stdE7declvalIT_EEEES9_, symObjAddr: 0x117D0, symBinAddr: 0x100015930, symSize: 0x24 }
  - { offset: 0x4D9A2, size: 0x8, addend: 0x0, symName: __ZNSt3__113__rewrap_iterB8ne180100IPNS_6vectorIdNS_9allocatorIdEEEES5_NS_18__unwrap_iter_implIS5_Lb1EEEEET_S8_T0_, symObjAddr: 0x117F4, symBinAddr: 0x100015954, symSize: 0x3C }
  - { offset: 0x4D9F7, size: 0x8, addend: 0x0, symName: __ZNSt3__19make_pairB8ne180100IPNS_6vectorIdNS_9allocatorIdEEEES5_EENS_4pairINS_18__unwrap_ref_decayIT_E4typeENS7_IT0_E4typeEEEOS8_OSB_, symObjAddr: 0x11830, symBinAddr: 0x100015990, symSize: 0x38 }
  - { offset: 0x4DB1A, size: 0x8, addend: 0x0, symName: __ZNSt3__122__make_exception_guardB8ne180100INS_29_AllocatorDestroyRangeReverseINS_9allocatorINS_6vectorIdNS2_IdEEEEEEPS5_EEEENS_28__exception_guard_exceptionsIT_EESA_, symObjAddr: 0x118D8, symBinAddr: 0x100015A38, symSize: 0x4C }
  - { offset: 0x4DB50, size: 0x8, addend: 0x0, symName: __ZNSt3__122__make_exception_guardB8ne180100INS_6vectorIdNS_9allocatorIdEEE16__destroy_vectorEEENS_28__exception_guard_exceptionsIT_EES7_, symObjAddr: 0x11D38, symBinAddr: 0x100015E98, symSize: 0x40 }
  - { offset: 0x4DB85, size: 0x8, addend: 0x0, symName: __ZNSt3__119__allocate_at_leastB8ne180100INS_9allocatorIdEEEENS_19__allocation_resultINS_16allocator_traitsIT_E7pointerEEERS5_m, symObjAddr: 0x11FCC, symBinAddr: 0x10001612C, symSize: 0x40 }
  - { offset: 0x4DBC8, size: 0x8, addend: 0x0, symName: __ZNSt3__130__uninitialized_allocator_copyB8ne180100INS_9allocatorIdEEPdS3_S3_EET2_RT_T0_T1_S4_, symObjAddr: 0x1214C, symBinAddr: 0x1000162AC, symSize: 0x80 }
  - { offset: 0x4DC65, size: 0x8, addend: 0x0, symName: __ZNSt3__114__unwrap_rangeB8ne180100IPdS1_EENS_4pairIT0_S3_EET_S5_, symObjAddr: 0x1223C, symBinAddr: 0x10001639C, symSize: 0x60 }
  - { offset: 0x4DCB1, size: 0x8, addend: 0x0, symName: __ZNSt3__135__uninitialized_allocator_copy_implB8ne180100INS_9allocatorIdEEdddLPv0EEEPT2_RT_PT0_S9_S5_, symObjAddr: 0x1229C, symBinAddr: 0x1000163FC, symSize: 0x38 }
  - { offset: 0x4DD32, size: 0x8, addend: 0x0, symName: __ZNSt3__113__unwrap_iterB8ne180100IPdNS_18__unwrap_iter_implIS1_Lb1EEELi0EEEDTclsrT0_8__unwrapclsr3stdE7declvalIT_EEEES5_, symObjAddr: 0x122D4, symBinAddr: 0x100016434, symSize: 0x24 }
  - { offset: 0x4DD76, size: 0x8, addend: 0x0, symName: __ZNSt3__113__rewrap_iterB8ne180100IPdS1_NS_18__unwrap_iter_implIS1_Lb1EEEEET_S4_T0_, symObjAddr: 0x122F8, symBinAddr: 0x100016458, symSize: 0x3C }
  - { offset: 0x4DDCB, size: 0x8, addend: 0x0, symName: __ZNSt3__19make_pairB8ne180100IPdS1_EENS_4pairINS_18__unwrap_ref_decayIT_E4typeENS3_IT0_E4typeEEEOS4_OS7_, symObjAddr: 0x12334, symBinAddr: 0x100016494, symSize: 0x38 }
  - { offset: 0x4DF1D, size: 0x8, addend: 0x0, symName: __ZNSt3__14copyB8ne180100IPdS1_EET0_T_S3_S2_, symObjAddr: 0x123DC, symBinAddr: 0x10001653C, symSize: 0x40 }
  - { offset: 0x4DF77, size: 0x8, addend: 0x0, symName: __ZNSt3__16__copyB8ne180100INS_17_ClassicAlgPolicyEPdS2_S2_EENS_4pairIT0_T2_EES4_T1_S5_, symObjAddr: 0x1241C, symBinAddr: 0x10001657C, symSize: 0x44 }
  - { offset: 0x4DFE3, size: 0x8, addend: 0x0, symName: __ZNSt3__123__dispatch_copy_or_moveB8ne180100INS_17_ClassicAlgPolicyENS_11__copy_loopIS1_EENS_14__copy_trivialEPdS5_S5_EENS_4pairIT2_T4_EES7_T3_S8_, symObjAddr: 0x12460, symBinAddr: 0x1000165C0, symSize: 0x44 }
  - { offset: 0x4E061, size: 0x8, addend: 0x0, symName: __ZNSt3__121__unwrap_and_dispatchB8ne180100INS_10__overloadINS_11__copy_loopINS_17_ClassicAlgPolicyEEENS_14__copy_trivialEEEPdS7_S7_Li0EEENS_4pairIT0_T2_EES9_T1_SA_, symObjAddr: 0x124A4, symBinAddr: 0x100016604, symSize: 0xB4 }
  - { offset: 0x4E29D, size: 0x8, addend: 0x0, symName: __ZNSt3__114__rewrap_rangeB8ne180100IPdS1_EET_S2_T0_, symObjAddr: 0x125A0, symBinAddr: 0x100016700, symSize: 0x2C }
  - { offset: 0x4E2E9, size: 0x8, addend: 0x0, symName: __ZNSt3__119__copy_trivial_implB8ne180100IddEENS_4pairIPT_PT0_EES3_S3_S5_, symObjAddr: 0x125CC, symBinAddr: 0x10001672C, symSize: 0x80 }
  - { offset: 0x4E351, size: 0x8, addend: 0x0, symName: __ZNSt3__119__constexpr_memmoveB8ne180100IddLi0EEEPT_S2_PT0_NS_15__element_countE, symObjAddr: 0x1264C, symBinAddr: 0x1000167AC, symSize: 0x64 }
  - { offset: 0x4E3BF, size: 0x8, addend: 0x0, symName: __ZNSt3__19make_pairB8ne180100IRPdS1_EENS_4pairINS_18__unwrap_ref_decayIT_E4typeENS4_IT0_E4typeEEEOS5_OS8_, symObjAddr: 0x126B0, symBinAddr: 0x100016810, symSize: 0x38 }
  - { offset: 0x4E462, size: 0x8, addend: 0x0, symName: __ZNSt3__119__allocator_destroyB8ne180100INS_9allocatorINS_6vectorIdNS1_IdEEEEEENS_16reverse_iteratorIPS4_EES8_EEvRT_T0_T1_, symObjAddr: 0x128EC, symBinAddr: 0x100016A4C, symSize: 0x70 }
  - { offset: 0x4E4C5, size: 0x8, addend: 0x0, symName: __ZNSt3__1neB8ne180100IPNS_6vectorIdNS_9allocatorIdEEEES5_EEbRKNS_16reverse_iteratorIT_EERKNS6_IT0_EE, symObjAddr: 0x12990, symBinAddr: 0x100016AF0, symSize: 0x48 }
  - { offset: 0x4E511, size: 0x8, addend: 0x0, symName: __ZNSt3__112__to_addressB8ne180100INS_16reverse_iteratorIPNS_6vectorIdNS_9allocatorIdEEEEEEvEEu7__decayIDTclsr19__to_address_helperIT_EE6__callclsr3stdE7declvalIRKS8_EEEEESA_, symObjAddr: 0x129D8, symBinAddr: 0x100016B38, symSize: 0x24 }
  - { offset: 0x4E5C4, size: 0x8, addend: 0x0, symName: __ZNSt3__122__make_exception_guardB8ne180100INS_6vectorINS1_IN18SingleJetCorrector4TypeENS_9allocatorIS3_EEEENS4_IS6_EEE16__destroy_vectorEEENS_28__exception_guard_exceptionsIT_EESB_, symObjAddr: 0x12E40, symBinAddr: 0x100016FA0, symSize: 0x40 }
  - { offset: 0x4E5F9, size: 0x8, addend: 0x0, symName: __ZNSt3__119__allocate_at_leastB8ne180100INS_9allocatorINS_6vectorIN18SingleJetCorrector4TypeENS1_IS4_EEEEEEEENS_19__allocation_resultINS_16allocator_traitsIT_E7pointerEEERSA_m, symObjAddr: 0x130DC, symBinAddr: 0x10001723C, symSize: 0x40 }
  - { offset: 0x4E63C, size: 0x8, addend: 0x0, symName: __ZNSt3__130__uninitialized_allocator_copyB8ne180100INS_9allocatorINS_6vectorIN18SingleJetCorrector4TypeENS1_IS4_EEEEEEPS6_S8_S8_EET2_RT_T0_T1_S9_, symObjAddr: 0x13264, symBinAddr: 0x1000173C4, symSize: 0x80 }
  - { offset: 0x4E6D9, size: 0x8, addend: 0x0, symName: __ZNSt3__114__unwrap_rangeB8ne180100IPNS_6vectorIN18SingleJetCorrector4TypeENS_9allocatorIS3_EEEES7_EENS_4pairIT0_S9_EET_SB_, symObjAddr: 0x1335C, symBinAddr: 0x1000174BC, symSize: 0x60 }
  - { offset: 0x4E725, size: 0x8, addend: 0x0, symName: __ZNSt3__135__uninitialized_allocator_copy_implB8ne180100INS_9allocatorINS_6vectorIN18SingleJetCorrector4TypeENS1_IS4_EEEEEEPS6_S8_S8_EET2_RT_T0_T1_S9_, symObjAddr: 0x133BC, symBinAddr: 0x10001751C, symSize: 0xF4 }
  - { offset: 0x4E7C3, size: 0x8, addend: 0x0, symName: __ZNSt3__113__unwrap_iterB8ne180100IPNS_6vectorIN18SingleJetCorrector4TypeENS_9allocatorIS3_EEEENS_18__unwrap_iter_implIS7_Lb1EEELi0EEEDTclsrT0_8__unwrapclsr3stdE7declvalIT_EEEESB_, symObjAddr: 0x134B0, symBinAddr: 0x100017610, symSize: 0x24 }
  - { offset: 0x4E807, size: 0x8, addend: 0x0, symName: __ZNSt3__113__rewrap_iterB8ne180100IPNS_6vectorIN18SingleJetCorrector4TypeENS_9allocatorIS3_EEEES7_NS_18__unwrap_iter_implIS7_Lb1EEEEET_SA_T0_, symObjAddr: 0x134D4, symBinAddr: 0x100017634, symSize: 0x3C }
  - { offset: 0x4E85C, size: 0x8, addend: 0x0, symName: __ZNSt3__19make_pairB8ne180100IPNS_6vectorIN18SingleJetCorrector4TypeENS_9allocatorIS3_EEEES7_EENS_4pairINS_18__unwrap_ref_decayIT_E4typeENS9_IT0_E4typeEEEOSA_OSD_, symObjAddr: 0x13510, symBinAddr: 0x100017670, symSize: 0x38 }
  - { offset: 0x4E97F, size: 0x8, addend: 0x0, symName: __ZNSt3__122__make_exception_guardB8ne180100INS_29_AllocatorDestroyRangeReverseINS_9allocatorINS_6vectorIN18SingleJetCorrector4TypeENS2_IS5_EEEEEEPS7_EEEENS_28__exception_guard_exceptionsIT_EESC_, symObjAddr: 0x135B8, symBinAddr: 0x100017718, symSize: 0x4C }
  - { offset: 0x4E9B5, size: 0x8, addend: 0x0, symName: __ZNSt3__122__make_exception_guardB8ne180100INS_6vectorIN18SingleJetCorrector4TypeENS_9allocatorIS3_EEE16__destroy_vectorEEENS_28__exception_guard_exceptionsIT_EES9_, symObjAddr: 0x13A34, symBinAddr: 0x100017B94, symSize: 0x40 }
  - { offset: 0x4E9EA, size: 0x8, addend: 0x0, symName: __ZNSt3__119__allocate_at_leastB8ne180100INS_9allocatorIN18SingleJetCorrector4TypeEEEEENS_19__allocation_resultINS_16allocator_traitsIT_E7pointerEEERS7_m, symObjAddr: 0x13D1C, symBinAddr: 0x100017E7C, symSize: 0x40 }
  - { offset: 0x4EA2D, size: 0x8, addend: 0x0, symName: __ZNSt3__130__uninitialized_allocator_copyB8ne180100INS_9allocatorIN18SingleJetCorrector4TypeEEEPS3_S5_S5_EET2_RT_T0_T1_S6_, symObjAddr: 0x13EFC, symBinAddr: 0x10001805C, symSize: 0x80 }
  - { offset: 0x4EACA, size: 0x8, addend: 0x0, symName: __ZNSt3__114__unwrap_rangeB8ne180100IPN18SingleJetCorrector4TypeES3_EENS_4pairIT0_S5_EET_S7_, symObjAddr: 0x13FEC, symBinAddr: 0x10001814C, symSize: 0x60 }
  - { offset: 0x4EB16, size: 0x8, addend: 0x0, symName: __ZNSt3__135__uninitialized_allocator_copy_implB8ne180100INS_9allocatorIN18SingleJetCorrector4TypeEEES3_S3_S3_LPv0EEEPT2_RT_PT0_SB_S7_, symObjAddr: 0x1404C, symBinAddr: 0x1000181AC, symSize: 0x38 }
  - { offset: 0x4EB97, size: 0x8, addend: 0x0, symName: __ZNSt3__113__unwrap_iterB8ne180100IPN18SingleJetCorrector4TypeENS_18__unwrap_iter_implIS3_Lb1EEELi0EEEDTclsrT0_8__unwrapclsr3stdE7declvalIT_EEEES7_, symObjAddr: 0x14084, symBinAddr: 0x1000181E4, symSize: 0x24 }
  - { offset: 0x4EBDB, size: 0x8, addend: 0x0, symName: __ZNSt3__113__rewrap_iterB8ne180100IPN18SingleJetCorrector4TypeES3_NS_18__unwrap_iter_implIS3_Lb1EEEEET_S6_T0_, symObjAddr: 0x140A8, symBinAddr: 0x100018208, symSize: 0x3C }
  - { offset: 0x4EC30, size: 0x8, addend: 0x0, symName: __ZNSt3__19make_pairB8ne180100IPN18SingleJetCorrector4TypeES3_EENS_4pairINS_18__unwrap_ref_decayIT_E4typeENS5_IT0_E4typeEEEOS6_OS9_, symObjAddr: 0x140E4, symBinAddr: 0x100018244, symSize: 0x38 }
  - { offset: 0x4ED82, size: 0x8, addend: 0x0, symName: __ZNSt3__14copyB8ne180100IPN18SingleJetCorrector4TypeES3_EET0_T_S5_S4_, symObjAddr: 0x1418C, symBinAddr: 0x1000182EC, symSize: 0x40 }
  - { offset: 0x4EDDC, size: 0x8, addend: 0x0, symName: __ZNSt3__16__copyB8ne180100INS_17_ClassicAlgPolicyEPN18SingleJetCorrector4TypeES4_S4_EENS_4pairIT0_T2_EES6_T1_S7_, symObjAddr: 0x141CC, symBinAddr: 0x10001832C, symSize: 0x44 }
  - { offset: 0x4EE48, size: 0x8, addend: 0x0, symName: __ZNSt3__123__dispatch_copy_or_moveB8ne180100INS_17_ClassicAlgPolicyENS_11__copy_loopIS1_EENS_14__copy_trivialEPN18SingleJetCorrector4TypeES7_S7_EENS_4pairIT2_T4_EES9_T3_SA_, symObjAddr: 0x14210, symBinAddr: 0x100018370, symSize: 0x44 }
  - { offset: 0x4EEC6, size: 0x8, addend: 0x0, symName: __ZNSt3__121__unwrap_and_dispatchB8ne180100INS_10__overloadINS_11__copy_loopINS_17_ClassicAlgPolicyEEENS_14__copy_trivialEEEPN18SingleJetCorrector4TypeES9_S9_Li0EEENS_4pairIT0_T2_EESB_T1_SC_, symObjAddr: 0x14254, symBinAddr: 0x1000183B4, symSize: 0xB4 }
  - { offset: 0x4EF54, size: 0x8, addend: 0x0, symName: __ZNSt3__114__rewrap_rangeB8ne180100IPN18SingleJetCorrector4TypeES3_EET_S4_T0_, symObjAddr: 0x14350, symBinAddr: 0x1000184B0, symSize: 0x2C }
  - { offset: 0x4EFA0, size: 0x8, addend: 0x0, symName: __ZNSt3__119__copy_trivial_implB8ne180100IN18SingleJetCorrector4TypeES2_EENS_4pairIPT_PT0_EES5_S5_S7_, symObjAddr: 0x1437C, symBinAddr: 0x1000184DC, symSize: 0x80 }
  - { offset: 0x4F008, size: 0x8, addend: 0x0, symName: __ZNSt3__119__constexpr_memmoveB8ne180100IN18SingleJetCorrector4TypeES2_Li0EEEPT_S4_PT0_NS_15__element_countE, symObjAddr: 0x143FC, symBinAddr: 0x10001855C, symSize: 0x64 }
  - { offset: 0x4F076, size: 0x8, addend: 0x0, symName: __ZNSt3__19make_pairB8ne180100IRPN18SingleJetCorrector4TypeES3_EENS_4pairINS_18__unwrap_ref_decayIT_E4typeENS6_IT0_E4typeEEEOS7_OSA_, symObjAddr: 0x14460, symBinAddr: 0x1000185C0, symSize: 0x38 }
  - { offset: 0x4F119, size: 0x8, addend: 0x0, symName: __ZNSt3__112__to_addressB8ne180100IN18SingleJetCorrector4TypeEEEPT_S4_, symObjAddr: 0x1452C, symBinAddr: 0x10001868C, symSize: 0x14 }
  - { offset: 0x4F14F, size: 0x8, addend: 0x0, symName: __ZNSt3__119__allocator_destroyB8ne180100INS_9allocatorINS_6vectorIN18SingleJetCorrector4TypeENS1_IS4_EEEEEENS_16reverse_iteratorIPS6_EESA_EEvRT_T0_T1_, symObjAddr: 0x14960, symBinAddr: 0x100018AC0, symSize: 0x70 }
  - { offset: 0x4F1B2, size: 0x8, addend: 0x0, symName: __ZNSt3__1neB8ne180100IPNS_6vectorIN18SingleJetCorrector4TypeENS_9allocatorIS3_EEEES7_EEbRKNS_16reverse_iteratorIT_EERKNS8_IT0_EE, symObjAddr: 0x14A04, symBinAddr: 0x100018B64, symSize: 0x48 }
  - { offset: 0x4F1FE, size: 0x8, addend: 0x0, symName: __ZNSt3__112__to_addressB8ne180100INS_16reverse_iteratorIPNS_6vectorIN18SingleJetCorrector4TypeENS_9allocatorIS4_EEEEEEvEEu7__decayIDTclsr19__to_address_helperIT_EE6__callclsr3stdE7declvalIRKSA_EEEEESC_, symObjAddr: 0x14A4C, symBinAddr: 0x100018BAC, symSize: 0x24 }
  - { offset: 0x4F2B1, size: 0x8, addend: 0x0, symName: __ZNSt3__122__make_exception_guardB8ne180100INS_6vectorIP3TF1NS_9allocatorIS3_EEE16__destroy_vectorEEENS_28__exception_guard_exceptionsIT_EES9_, symObjAddr: 0x14EB4, symBinAddr: 0x100019014, symSize: 0x40 }
  - { offset: 0x4F2E6, size: 0x8, addend: 0x0, symName: __ZNSt3__119__allocate_at_leastB8ne180100INS_9allocatorIP3TF1EEEENS_19__allocation_resultINS_16allocator_traitsIT_E7pointerEEERS7_m, symObjAddr: 0x15148, symBinAddr: 0x1000192A8, symSize: 0x40 }
  - { offset: 0x4F329, size: 0x8, addend: 0x0, symName: __ZNSt3__130__uninitialized_allocator_copyB8ne180100INS_9allocatorIP3TF1EEPS3_S5_S5_EET2_RT_T0_T1_S6_, symObjAddr: 0x152C8, symBinAddr: 0x100019428, symSize: 0x80 }
  - { offset: 0x4F3C6, size: 0x8, addend: 0x0, symName: __ZNSt3__114__unwrap_rangeB8ne180100IPP3TF1S3_EENS_4pairIT0_S5_EET_S7_, symObjAddr: 0x153B8, symBinAddr: 0x100019518, symSize: 0x60 }
  - { offset: 0x4F412, size: 0x8, addend: 0x0, symName: __ZNSt3__135__uninitialized_allocator_copy_implB8ne180100INS_9allocatorIP3TF1EES3_S3_S3_LPv0EEEPT2_RT_PT0_SB_S7_, symObjAddr: 0x15418, symBinAddr: 0x100019578, symSize: 0x38 }
  - { offset: 0x4F493, size: 0x8, addend: 0x0, symName: __ZNSt3__113__unwrap_iterB8ne180100IPP3TF1NS_18__unwrap_iter_implIS3_Lb1EEELi0EEEDTclsrT0_8__unwrapclsr3stdE7declvalIT_EEEES7_, symObjAddr: 0x15450, symBinAddr: 0x1000195B0, symSize: 0x24 }
  - { offset: 0x4F4D7, size: 0x8, addend: 0x0, symName: __ZNSt3__113__rewrap_iterB8ne180100IPP3TF1S3_NS_18__unwrap_iter_implIS3_Lb1EEEEET_S6_T0_, symObjAddr: 0x15474, symBinAddr: 0x1000195D4, symSize: 0x3C }
  - { offset: 0x4F52C, size: 0x8, addend: 0x0, symName: __ZNSt3__19make_pairB8ne180100IPP3TF1S3_EENS_4pairINS_18__unwrap_ref_decayIT_E4typeENS5_IT0_E4typeEEEOS6_OS9_, symObjAddr: 0x154B0, symBinAddr: 0x100019610, symSize: 0x38 }
  - { offset: 0x4F67E, size: 0x8, addend: 0x0, symName: __ZNSt3__14copyB8ne180100IPP3TF1S3_EET0_T_S5_S4_, symObjAddr: 0x15558, symBinAddr: 0x1000196B8, symSize: 0x40 }
  - { offset: 0x4F6D8, size: 0x8, addend: 0x0, symName: __ZNSt3__16__copyB8ne180100INS_17_ClassicAlgPolicyEPP3TF1S4_S4_EENS_4pairIT0_T2_EES6_T1_S7_, symObjAddr: 0x15598, symBinAddr: 0x1000196F8, symSize: 0x44 }
  - { offset: 0x4F744, size: 0x8, addend: 0x0, symName: __ZNSt3__123__dispatch_copy_or_moveB8ne180100INS_17_ClassicAlgPolicyENS_11__copy_loopIS1_EENS_14__copy_trivialEPP3TF1S7_S7_EENS_4pairIT2_T4_EES9_T3_SA_, symObjAddr: 0x155DC, symBinAddr: 0x10001973C, symSize: 0x44 }
  - { offset: 0x4F7C2, size: 0x8, addend: 0x0, symName: __ZNSt3__121__unwrap_and_dispatchB8ne180100INS_10__overloadINS_11__copy_loopINS_17_ClassicAlgPolicyEEENS_14__copy_trivialEEEPP3TF1S9_S9_Li0EEENS_4pairIT0_T2_EESB_T1_SC_, symObjAddr: 0x15620, symBinAddr: 0x100019780, symSize: 0xB4 }
  - { offset: 0x4F850, size: 0x8, addend: 0x0, symName: __ZNSt3__114__rewrap_rangeB8ne180100IPP3TF1S3_EET_S4_T0_, symObjAddr: 0x1571C, symBinAddr: 0x10001987C, symSize: 0x2C }
  - { offset: 0x4F89C, size: 0x8, addend: 0x0, symName: __ZNSt3__119__copy_trivial_implB8ne180100IP3TF1S2_EENS_4pairIPT_PT0_EES5_S5_S7_, symObjAddr: 0x15748, symBinAddr: 0x1000198A8, symSize: 0x80 }
  - { offset: 0x4F904, size: 0x8, addend: 0x0, symName: __ZNSt3__119__constexpr_memmoveB8ne180100IP3TF1S2_Li0EEEPT_S4_PT0_NS_15__element_countE, symObjAddr: 0x157C8, symBinAddr: 0x100019928, symSize: 0x64 }
  - { offset: 0x4F972, size: 0x8, addend: 0x0, symName: __ZNSt3__19make_pairB8ne180100IRPP3TF1S3_EENS_4pairINS_18__unwrap_ref_decayIT_E4typeENS6_IT0_E4typeEEEOS7_OSA_, symObjAddr: 0x1582C, symBinAddr: 0x10001998C, symSize: 0x38 }
  - { offset: 0x4FA14, size: 0x8, addend: 0x0, symName: __ZNSt3__119__allocate_at_leastB8ne180100INS_9allocatorI18SingleJetCorrectorEEEENS_19__allocation_resultINS_16allocator_traitsIT_E7pointerEEERS6_m, symObjAddr: 0x15E38, symBinAddr: 0x100019F98, symSize: 0x40 }
  - { offset: 0x4FA57, size: 0x8, addend: 0x0, symName: __ZNSt3__142__uninitialized_allocator_move_if_noexceptB8ne180100INS_9allocatorI18SingleJetCorrectorEENS_16reverse_iteratorIPS2_EES6_S6_EET2_RT_T0_T1_S7_, symObjAddr: 0x15FF0, symBinAddr: 0x10001A150, symSize: 0x12C }
  - { offset: 0x4FAF8, size: 0x8, addend: 0x0, symName: __ZNSt3__14swapB8ne180100IP18SingleJetCorrectorEENS_9enable_ifIXaasr21is_move_constructibleIT_EE5valuesr18is_move_assignableIS4_EE5valueEvE4typeERS4_S7_, symObjAddr: 0x16168, symBinAddr: 0x10001A2C8, symSize: 0x3C }
  - { offset: 0x4FB49, size: 0x8, addend: 0x0, symName: __ZNSt3__122__make_exception_guardB8ne180100INS_29_AllocatorDestroyRangeReverseINS_9allocatorI18SingleJetCorrectorEENS_16reverse_iteratorIPS3_EEEEEENS_28__exception_guard_exceptionsIT_EESA_, symObjAddr: 0x161B8, symBinAddr: 0x10001A318, symSize: 0x4C }
  - { offset: 0x4FB7F, size: 0x8, addend: 0x0, symName: __ZNSt3__1neB8ne180100IP18SingleJetCorrectorS2_EEbRKNS_16reverse_iteratorIT_EERKNS3_IT0_EE, symObjAddr: 0x16248, symBinAddr: 0x10001A3A8, symSize: 0x48 }
  - { offset: 0x4FBCB, size: 0x8, addend: 0x0, symName: __ZNSt3__112__to_addressB8ne180100INS_16reverse_iteratorIP18SingleJetCorrectorEEvEEu7__decayIDTclsr19__to_address_helperIT_EE6__callclsr3stdE7declvalIRKS5_EEEEES7_, symObjAddr: 0x162C4, symBinAddr: 0x10001A424, symSize: 0x24 }
  - { offset: 0x4FC2C, size: 0x8, addend: 0x0, symName: __ZNSt3__119__allocator_destroyB8ne180100INS_9allocatorI18SingleJetCorrectorEENS_16reverse_iteratorINS4_IPS2_EEEES7_EEvRT_T0_T1_, symObjAddr: 0x165A4, symBinAddr: 0x10001A704, symSize: 0x70 }
  - { offset: 0x4FC91, size: 0x8, addend: 0x0, symName: __ZNSt3__1neB8ne180100INS_16reverse_iteratorIP18SingleJetCorrectorEES4_EEbRKNS1_IT_EERKNS1_IT0_EE, symObjAddr: 0x16650, symBinAddr: 0x10001A7B0, symSize: 0x60 }
  - { offset: 0x4FCDD, size: 0x8, addend: 0x0, symName: __ZNSt3__112__to_addressB8ne180100INS_16reverse_iteratorINS1_IP18SingleJetCorrectorEEEEvEEu7__decayIDTclsr19__to_address_helperIT_EE6__callclsr3stdE7declvalIRKS6_EEEEES8_, symObjAddr: 0x166B0, symBinAddr: 0x10001A810, symSize: 0x24 }
  - { offset: 0x4FD3D, size: 0x8, addend: 0x0, symName: __ZNSt3__142__uninitialized_allocator_move_if_noexceptB8ne180100INS_9allocatorIN18SingleJetCorrector4TypeEEENS_16reverse_iteratorIPS3_EES7_S3_vEET1_RT_T0_SB_S8_, symObjAddr: 0x1732C, symBinAddr: 0x10001B48C, symSize: 0x78 }
  - { offset: 0x4FDBB, size: 0x8, addend: 0x0, symName: __ZNSt3__14swapB8ne180100IPN18SingleJetCorrector4TypeEEENS_9enable_ifIXaasr21is_move_constructibleIT_EE5valuesr18is_move_assignableIS5_EE5valueEvE4typeERS5_S8_, symObjAddr: 0x173F0, symBinAddr: 0x10001B550, symSize: 0x3C }
  - { offset: 0x4FE0C, size: 0x8, addend: 0x0, symName: __ZNSt3__14moveB8ne180100INS_16reverse_iteratorIPN18SingleJetCorrector4TypeEEES5_EET0_T_S7_S6_, symObjAddr: 0x1742C, symBinAddr: 0x10001B58C, symSize: 0x78 }
  - { offset: 0x4FE66, size: 0x8, addend: 0x0, symName: __ZNSt3__16__moveB8ne180100INS_17_ClassicAlgPolicyENS_16reverse_iteratorIPN18SingleJetCorrector4TypeEEES6_S6_EENS_4pairIT0_T2_EES8_T1_S9_, symObjAddr: 0x174A4, symBinAddr: 0x10001B604, symSize: 0x64 }
  - { offset: 0x4FED2, size: 0x8, addend: 0x0, symName: __ZNSt3__123__dispatch_copy_or_moveB8ne180100INS_17_ClassicAlgPolicyENS_11__move_loopIS1_EENS_14__move_trivialENS_16reverse_iteratorIPN18SingleJetCorrector4TypeEEES9_S9_EENS_4pairIT2_T4_EESB_T3_SC_, symObjAddr: 0x17508, symBinAddr: 0x10001B668, symSize: 0x64 }
  - { offset: 0x4FF50, size: 0x8, addend: 0x0, symName: __ZNSt3__121__unwrap_and_dispatchB8ne180100INS_10__overloadINS_11__move_loopINS_17_ClassicAlgPolicyEEENS_14__move_trivialEEENS_16reverse_iteratorIPN18SingleJetCorrector4TypeEEESB_SB_Li0EEENS_4pairIT0_T2_EESD_T1_SE_, symObjAddr: 0x1756C, symBinAddr: 0x10001B6CC, symSize: 0x12C }
  - { offset: 0x4FFE0, size: 0x8, addend: 0x0, symName: __ZNSt3__114__unwrap_rangeB8ne180100INS_16reverse_iteratorIPN18SingleJetCorrector4TypeEEES5_EENS_4pairIT0_S7_EET_S9_, symObjAddr: 0x17698, symBinAddr: 0x10001B7F8, symSize: 0x84 }
  - { offset: 0x502D5, size: 0x8, addend: 0x0, symName: __ZNSt3__113__unwrap_iterB8ne180100INS_16reverse_iteratorIPN18SingleJetCorrector4TypeEEENS_18__unwrap_iter_implIS5_Lb0EEELi0EEEDTclsrT0_8__unwrapclsr3stdE7declvalIT_EEEES9_, symObjAddr: 0x177BC, symBinAddr: 0x10001B91C, symSize: 0x44 }
  - { offset: 0x50319, size: 0x8, addend: 0x0, symName: __ZNSt3__19make_pairB8ne180100INS_16reverse_iteratorIPN18SingleJetCorrector4TypeEEES5_EENS_4pairINS_18__unwrap_ref_decayIT_E4typeENS7_IT0_E4typeEEEOS8_OSB_, symObjAddr: 0x17800, symBinAddr: 0x10001B960, symSize: 0x38 }
  - { offset: 0x50368, size: 0x8, addend: 0x0, symName: __ZNSt3__114__rewrap_rangeB8ne180100INS_16reverse_iteratorIPN18SingleJetCorrector4TypeEEES5_EET_S6_T0_, symObjAddr: 0x17838, symBinAddr: 0x10001B998, symSize: 0x5C }
  - { offset: 0x503B4, size: 0x8, addend: 0x0, symName: __ZNSt3__113__rewrap_iterB8ne180100INS_16reverse_iteratorIPN18SingleJetCorrector4TypeEEES5_NS_18__unwrap_iter_implIS5_Lb0EEEEET_S8_T0_, symObjAddr: 0x17894, symBinAddr: 0x10001B9F4, symSize: 0x74 }
  - { offset: 0x50409, size: 0x8, addend: 0x0, symName: __ZNSt3__1neB8ne180100IPN18SingleJetCorrector4TypeES3_EEbRKNS_16reverse_iteratorIT_EERKNS4_IT0_EE, symObjAddr: 0x17908, symBinAddr: 0x10001BA68, symSize: 0x48 }
  - { offset: 0x50697, size: 0x8, addend: 0x0, symName: __ZNSt3__142__uninitialized_allocator_move_if_noexceptB8ne180100INS_9allocatorIdEENS_16reverse_iteratorIPdEES5_dvEET1_RT_T0_S9_S6_, symObjAddr: 0x182CC, symBinAddr: 0x10001C42C, symSize: 0x78 }
  - { offset: 0x50715, size: 0x8, addend: 0x0, symName: __ZNSt3__14swapB8ne180100IPdEENS_9enable_ifIXaasr21is_move_constructibleIT_EE5valuesr18is_move_assignableIS3_EE5valueEvE4typeERS3_S6_, symObjAddr: 0x18390, symBinAddr: 0x10001C4F0, symSize: 0x3C }
  - { offset: 0x50766, size: 0x8, addend: 0x0, symName: __ZNSt3__14moveB8ne180100INS_16reverse_iteratorIPdEES3_EET0_T_S5_S4_, symObjAddr: 0x183CC, symBinAddr: 0x10001C52C, symSize: 0x78 }
  - { offset: 0x507C0, size: 0x8, addend: 0x0, symName: __ZNSt3__16__moveB8ne180100INS_17_ClassicAlgPolicyENS_16reverse_iteratorIPdEES4_S4_EENS_4pairIT0_T2_EES6_T1_S7_, symObjAddr: 0x18444, symBinAddr: 0x10001C5A4, symSize: 0x64 }
  - { offset: 0x5082C, size: 0x8, addend: 0x0, symName: __ZNSt3__123__dispatch_copy_or_moveB8ne180100INS_17_ClassicAlgPolicyENS_11__move_loopIS1_EENS_14__move_trivialENS_16reverse_iteratorIPdEES7_S7_EENS_4pairIT2_T4_EES9_T3_SA_, symObjAddr: 0x184A8, symBinAddr: 0x10001C608, symSize: 0x64 }
  - { offset: 0x508AA, size: 0x8, addend: 0x0, symName: __ZNSt3__121__unwrap_and_dispatchB8ne180100INS_10__overloadINS_11__move_loopINS_17_ClassicAlgPolicyEEENS_14__move_trivialEEENS_16reverse_iteratorIPdEES9_S9_Li0EEENS_4pairIT0_T2_EESB_T1_SC_, symObjAddr: 0x1850C, symBinAddr: 0x10001C66C, symSize: 0x12C }
  - { offset: 0x5093A, size: 0x8, addend: 0x0, symName: __ZNSt3__114__unwrap_rangeB8ne180100INS_16reverse_iteratorIPdEES3_EENS_4pairIT0_S5_EET_S7_, symObjAddr: 0x18638, symBinAddr: 0x10001C798, symSize: 0x84 }
  - { offset: 0x50A5A, size: 0x8, addend: 0x0, symName: __ZNSt3__113__unwrap_iterB8ne180100INS_16reverse_iteratorIPdEENS_18__unwrap_iter_implIS3_Lb0EEELi0EEEDTclsrT0_8__unwrapclsr3stdE7declvalIT_EEEES7_, symObjAddr: 0x1875C, symBinAddr: 0x10001C8BC, symSize: 0x44 }
  - { offset: 0x50A9E, size: 0x8, addend: 0x0, symName: __ZNSt3__19make_pairB8ne180100INS_16reverse_iteratorIPdEES3_EENS_4pairINS_18__unwrap_ref_decayIT_E4typeENS5_IT0_E4typeEEEOS6_OS9_, symObjAddr: 0x187A0, symBinAddr: 0x10001C900, symSize: 0x38 }
  - { offset: 0x50AED, size: 0x8, addend: 0x0, symName: __ZNSt3__114__rewrap_rangeB8ne180100INS_16reverse_iteratorIPdEES3_EET_S4_T0_, symObjAddr: 0x187D8, symBinAddr: 0x10001C938, symSize: 0x5C }
  - { offset: 0x50B39, size: 0x8, addend: 0x0, symName: __ZNSt3__113__rewrap_iterB8ne180100INS_16reverse_iteratorIPdEES3_NS_18__unwrap_iter_implIS3_Lb0EEEEET_S6_T0_, symObjAddr: 0x18834, symBinAddr: 0x10001C994, symSize: 0x74 }
  - { offset: 0x50B8E, size: 0x8, addend: 0x0, symName: __ZNSt3__1neB8ne180100IPdS1_EEbRKNS_16reverse_iteratorIT_EERKNS2_IT0_EE, symObjAddr: 0x188A8, symBinAddr: 0x10001CA08, symSize: 0x48 }
  - { offset: 0x50C2D, size: 0x8, addend: 0x0, symName: __ZNSt3__142__uninitialized_allocator_move_if_noexceptB8ne180100INS_9allocatorINS_6vectorIdNS1_IdEEEEEENS_16reverse_iteratorIPS4_EES8_S8_EET2_RT_T0_T1_S9_, symObjAddr: 0x19280, symBinAddr: 0x10001D3E0, symSize: 0x11C }
  - { offset: 0x50CCE, size: 0x8, addend: 0x0, symName: __ZNSt3__14swapB8ne180100IPNS_6vectorIdNS_9allocatorIdEEEEEENS_9enable_ifIXaasr21is_move_constructibleIT_EE5valuesr18is_move_assignableIS7_EE5valueEvE4typeERS7_SA_, symObjAddr: 0x1939C, symBinAddr: 0x10001D4FC, symSize: 0x3C }
  - { offset: 0x50D1F, size: 0x8, addend: 0x0, symName: __ZNSt3__122__make_exception_guardB8ne180100INS_29_AllocatorDestroyRangeReverseINS_9allocatorINS_6vectorIdNS2_IdEEEEEENS_16reverse_iteratorIPS5_EEEEEENS_28__exception_guard_exceptionsIT_EESC_, symObjAddr: 0x193D8, symBinAddr: 0x10001D538, symSize: 0x4C }
  - { offset: 0x50D56, size: 0x8, addend: 0x0, symName: __ZNSt3__119__allocator_destroyB8ne180100INS_9allocatorINS_6vectorIdNS1_IdEEEEEENS_16reverse_iteratorINS6_IPS4_EEEES9_EEvRT_T0_T1_, symObjAddr: 0x197AC, symBinAddr: 0x10001D90C, symSize: 0x70 }
  - { offset: 0x50DBB, size: 0x8, addend: 0x0, symName: __ZNSt3__1neB8ne180100INS_16reverse_iteratorIPNS_6vectorIdNS_9allocatorIdEEEEEES7_EEbRKNS1_IT_EERKNS1_IT0_EE, symObjAddr: 0x19858, symBinAddr: 0x10001D9B8, symSize: 0x60 }
  - { offset: 0x50E07, size: 0x8, addend: 0x0, symName: __ZNSt3__112__to_addressB8ne180100INS_16reverse_iteratorINS1_IPNS_6vectorIdNS_9allocatorIdEEEEEEEEvEEu7__decayIDTclsr19__to_address_helperIT_EE6__callclsr3stdE7declvalIRKS9_EEEEESB_, symObjAddr: 0x198B8, symBinAddr: 0x10001DA18, symSize: 0x24 }
  - { offset: 0x50E67, size: 0x8, addend: 0x0, symName: __ZNSt3__142__uninitialized_allocator_move_if_noexceptB8ne180100INS_9allocatorINS_6vectorIN18SingleJetCorrector4TypeENS1_IS4_EEEEEENS_16reverse_iteratorIPS6_EESA_SA_EET2_RT_T0_T1_SB_, symObjAddr: 0x1A240, symBinAddr: 0x10001E3A0, symSize: 0x11C }
  - { offset: 0x50F08, size: 0x8, addend: 0x0, symName: __ZNSt3__14swapB8ne180100IPNS_6vectorIN18SingleJetCorrector4TypeENS_9allocatorIS3_EEEEEENS_9enable_ifIXaasr21is_move_constructibleIT_EE5valuesr18is_move_assignableIS9_EE5valueEvE4typeERS9_SC_, symObjAddr: 0x1A35C, symBinAddr: 0x10001E4BC, symSize: 0x3C }
  - { offset: 0x50F59, size: 0x8, addend: 0x0, symName: __ZNSt3__122__make_exception_guardB8ne180100INS_29_AllocatorDestroyRangeReverseINS_9allocatorINS_6vectorIN18SingleJetCorrector4TypeENS2_IS5_EEEEEENS_16reverse_iteratorIPS7_EEEEEENS_28__exception_guard_exceptionsIT_EESE_, symObjAddr: 0x1A398, symBinAddr: 0x10001E4F8, symSize: 0x4C }
  - { offset: 0x50F90, size: 0x8, addend: 0x0, symName: __ZNSt3__119__allocator_destroyB8ne180100INS_9allocatorINS_6vectorIN18SingleJetCorrector4TypeENS1_IS4_EEEEEENS_16reverse_iteratorINS8_IPS6_EEEESB_EEvRT_T0_T1_, symObjAddr: 0x1A76C, symBinAddr: 0x10001E8CC, symSize: 0x70 }
  - { offset: 0x50FF5, size: 0x8, addend: 0x0, symName: __ZNSt3__1neB8ne180100INS_16reverse_iteratorIPNS_6vectorIN18SingleJetCorrector4TypeENS_9allocatorIS4_EEEEEES9_EEbRKNS1_IT_EERKNS1_IT0_EE, symObjAddr: 0x1A818, symBinAddr: 0x10001E978, symSize: 0x60 }
  - { offset: 0x51041, size: 0x8, addend: 0x0, symName: __ZNSt3__112__to_addressB8ne180100INS_16reverse_iteratorINS1_IPNS_6vectorIN18SingleJetCorrector4TypeENS_9allocatorIS4_EEEEEEEEvEEu7__decayIDTclsr19__to_address_helperIT_EE6__callclsr3stdE7declvalIRKSB_EEEEESD_, symObjAddr: 0x1A878, symBinAddr: 0x10001E9D8, symSize: 0x24 }
  - { offset: 0x510A1, size: 0x8, addend: 0x0, symName: __ZNSt3__142__uninitialized_allocator_move_if_noexceptB8ne180100INS_9allocatorIP3TF1EENS_16reverse_iteratorIPS3_EES7_S3_vEET1_RT_T0_SB_S8_, symObjAddr: 0x1B378, symBinAddr: 0x10001F4D8, symSize: 0x78 }
  - { offset: 0x5111F, size: 0x8, addend: 0x0, symName: __ZNSt3__14swapB8ne180100IPP3TF1EENS_9enable_ifIXaasr21is_move_constructibleIT_EE5valuesr18is_move_assignableIS5_EE5valueEvE4typeERS5_S8_, symObjAddr: 0x1B43C, symBinAddr: 0x10001F59C, symSize: 0x3C }
  - { offset: 0x51170, size: 0x8, addend: 0x0, symName: __ZNSt3__14moveB8ne180100INS_16reverse_iteratorIPP3TF1EES5_EET0_T_S7_S6_, symObjAddr: 0x1B478, symBinAddr: 0x10001F5D8, symSize: 0x78 }
  - { offset: 0x511CA, size: 0x8, addend: 0x0, symName: __ZNSt3__16__moveB8ne180100INS_17_ClassicAlgPolicyENS_16reverse_iteratorIPP3TF1EES6_S6_EENS_4pairIT0_T2_EES8_T1_S9_, symObjAddr: 0x1B4F0, symBinAddr: 0x10001F650, symSize: 0x64 }
  - { offset: 0x51236, size: 0x8, addend: 0x0, symName: __ZNSt3__123__dispatch_copy_or_moveB8ne180100INS_17_ClassicAlgPolicyENS_11__move_loopIS1_EENS_14__move_trivialENS_16reverse_iteratorIPP3TF1EES9_S9_EENS_4pairIT2_T4_EESB_T3_SC_, symObjAddr: 0x1B554, symBinAddr: 0x10001F6B4, symSize: 0x64 }
  - { offset: 0x512B4, size: 0x8, addend: 0x0, symName: __ZNSt3__121__unwrap_and_dispatchB8ne180100INS_10__overloadINS_11__move_loopINS_17_ClassicAlgPolicyEEENS_14__move_trivialEEENS_16reverse_iteratorIPP3TF1EESB_SB_Li0EEENS_4pairIT0_T2_EESD_T1_SE_, symObjAddr: 0x1B5B8, symBinAddr: 0x10001F718, symSize: 0x12C }
  - { offset: 0x51344, size: 0x8, addend: 0x0, symName: __ZNSt3__114__unwrap_rangeB8ne180100INS_16reverse_iteratorIPP3TF1EES5_EENS_4pairIT0_S7_EET_S9_, symObjAddr: 0x1B6E4, symBinAddr: 0x10001F844, symSize: 0x84 }
  - { offset: 0x51464, size: 0x8, addend: 0x0, symName: __ZNSt3__113__unwrap_iterB8ne180100INS_16reverse_iteratorIPP3TF1EENS_18__unwrap_iter_implIS5_Lb0EEELi0EEEDTclsrT0_8__unwrapclsr3stdE7declvalIT_EEEES9_, symObjAddr: 0x1B808, symBinAddr: 0x10001F968, symSize: 0x44 }
  - { offset: 0x514A8, size: 0x8, addend: 0x0, symName: __ZNSt3__19make_pairB8ne180100INS_16reverse_iteratorIPP3TF1EES5_EENS_4pairINS_18__unwrap_ref_decayIT_E4typeENS7_IT0_E4typeEEEOS8_OSB_, symObjAddr: 0x1B84C, symBinAddr: 0x10001F9AC, symSize: 0x38 }
  - { offset: 0x514F7, size: 0x8, addend: 0x0, symName: __ZNSt3__114__rewrap_rangeB8ne180100INS_16reverse_iteratorIPP3TF1EES5_EET_S6_T0_, symObjAddr: 0x1B884, symBinAddr: 0x10001F9E4, symSize: 0x5C }
  - { offset: 0x51543, size: 0x8, addend: 0x0, symName: __ZNSt3__113__rewrap_iterB8ne180100INS_16reverse_iteratorIPP3TF1EES5_NS_18__unwrap_iter_implIS5_Lb0EEEEET_S8_T0_, symObjAddr: 0x1B8E0, symBinAddr: 0x10001FA40, symSize: 0x74 }
  - { offset: 0x51598, size: 0x8, addend: 0x0, symName: __ZNSt3__1neB8ne180100IPP3TF1S3_EEbRKNS_16reverse_iteratorIT_EERKNS4_IT0_EE, symObjAddr: 0x1B954, symBinAddr: 0x10001FAB4, symSize: 0x48 }
  - { offset: 0x51823, size: 0x8, addend: 0x0, symName: __ZNSt3__1miB8ne180100IPKcPcEEDTmicldtfp_4baseEcldtfp0_4baseEERKNS_11__wrap_iterIT_EERKNS5_IT0_EE, symObjAddr: 0x1C648, symBinAddr: 0x1000207A8, symSize: 0x40 }
  - { offset: 0x5186F, size: 0x8, addend: 0x0, symName: __ZNSt3__14copyB8ne180100IPKcPcEET0_T_S5_S4_, symObjAddr: 0x1CBA4, symBinAddr: 0x100020D04, symSize: 0x40 }
  - { offset: 0x518C9, size: 0x8, addend: 0x0, symName: __ZNSt3__16__copyB8ne180100INS_17_ClassicAlgPolicyEPKcS3_PcEENS_4pairIT0_T2_EES6_T1_S7_, symObjAddr: 0x1CBE4, symBinAddr: 0x100020D44, symSize: 0x44 }
  - { offset: 0x51935, size: 0x8, addend: 0x0, symName: __ZNSt3__123__dispatch_copy_or_moveB8ne180100INS_17_ClassicAlgPolicyENS_11__copy_loopIS1_EENS_14__copy_trivialEPKcS6_PcEENS_4pairIT2_T4_EES9_T3_SA_, symObjAddr: 0x1CC28, symBinAddr: 0x100020D88, symSize: 0x44 }
  - { offset: 0x519B3, size: 0x8, addend: 0x0, symName: __ZNSt3__121__unwrap_and_dispatchB8ne180100INS_10__overloadINS_11__copy_loopINS_17_ClassicAlgPolicyEEENS_14__copy_trivialEEEPKcS8_PcLi0EEENS_4pairIT0_T2_EESB_T1_SC_, symObjAddr: 0x1CC6C, symBinAddr: 0x100020DCC, symSize: 0xB4 }
  - { offset: 0x51A41, size: 0x8, addend: 0x0, symName: __ZNSt3__114__unwrap_rangeB8ne180100IPKcS2_EENS_4pairIT0_S4_EET_S6_, symObjAddr: 0x1CD20, symBinAddr: 0x100020E80, symSize: 0x60 }
  - { offset: 0x51B90, size: 0x8, addend: 0x0, symName: __ZNSt3__113__unwrap_iterB8ne180100IPcNS_18__unwrap_iter_implIS1_Lb1EEELi0EEEDTclsrT0_8__unwrapclsr3stdE7declvalIT_EEEES5_, symObjAddr: 0x1CDC8, symBinAddr: 0x100020F28, symSize: 0x24 }
  - { offset: 0x51BD4, size: 0x8, addend: 0x0, symName: __ZNSt3__19make_pairB8ne180100IPKcPcEENS_4pairINS_18__unwrap_ref_decayIT_E4typeENS5_IT0_E4typeEEEOS6_OS9_, symObjAddr: 0x1CDEC, symBinAddr: 0x100020F4C, symSize: 0x38 }
  - { offset: 0x51C23, size: 0x8, addend: 0x0, symName: __ZNSt3__114__rewrap_rangeB8ne180100IPKcS2_EET_S3_T0_, symObjAddr: 0x1CE24, symBinAddr: 0x100020F84, symSize: 0x2C }
  - { offset: 0x51C6F, size: 0x8, addend: 0x0, symName: __ZNSt3__113__rewrap_iterB8ne180100IPcS1_NS_18__unwrap_iter_implIS1_Lb1EEEEET_S4_T0_, symObjAddr: 0x1CE50, symBinAddr: 0x100020FB0, symSize: 0x3C }
  - { offset: 0x51CC4, size: 0x8, addend: 0x0, symName: __ZNSt3__19make_pairB8ne180100IPKcS2_EENS_4pairINS_18__unwrap_ref_decayIT_E4typeENS4_IT0_E4typeEEEOS5_OS8_, symObjAddr: 0x1CE8C, symBinAddr: 0x100020FEC, symSize: 0x38 }
  - { offset: 0x51D13, size: 0x8, addend: 0x0, symName: __ZNSt3__113__unwrap_iterB8ne180100IPKcNS_18__unwrap_iter_implIS2_Lb1EEELi0EEEDTclsrT0_8__unwrapclsr3stdE7declvalIT_EEEES6_, symObjAddr: 0x1CEC4, symBinAddr: 0x100021024, symSize: 0x24 }
  - { offset: 0x51E7E, size: 0x8, addend: 0x0, symName: __ZNSt3__119__copy_trivial_implB8ne180100IKccEENS_4pairIPT_PT0_EES4_S4_S6_, symObjAddr: 0x1CF7C, symBinAddr: 0x1000210DC, symSize: 0x78 }
  - { offset: 0x51EE6, size: 0x8, addend: 0x0, symName: __ZNSt3__119__constexpr_memmoveB8ne180100IcKcLi0EEEPT_S3_PT0_NS_15__element_countE, symObjAddr: 0x1CFF4, symBinAddr: 0x100021154, symSize: 0x64 }
  - { offset: 0x51F54, size: 0x8, addend: 0x0, symName: __ZNSt3__19make_pairB8ne180100IRPKcPcEENS_4pairINS_18__unwrap_ref_decayIT_E4typeENS6_IT0_E4typeEEEOS7_OSA_, symObjAddr: 0x1D058, symBinAddr: 0x1000211B8, symSize: 0x38 }
  - { offset: 0x51FF6, size: 0x8, addend: 0x0, symName: __ZNSt3__113__rewrap_iterB8ne180100IPKcS2_NS_18__unwrap_iter_implIS2_Lb1EEEEET_S5_T0_, symObjAddr: 0x1D194, symBinAddr: 0x1000212F4, symSize: 0x3C }
  - { offset: 0x5204B, size: 0x8, addend: 0x0, symName: __ZNSt3__16fill_nB8ne180100IPcmcEET_S2_T0_RKT1_, symObjAddr: 0x1D260, symBinAddr: 0x1000213C0, symSize: 0x44 }
  - { offset: 0x520AF, size: 0x8, addend: 0x0, symName: __ZNSt3__18__fill_nB8ne180100IPcmcEET_S2_T0_RKT1_, symObjAddr: 0x1D2A4, symBinAddr: 0x100021404, symSize: 0x64 }
  - { offset: 0x52113, size: 0x8, addend: 0x0, symName: __ZNSt3__121__convert_to_integralB8ne180100Em, symObjAddr: 0x1D308, symBinAddr: 0x100021468, symSize: 0x14 }
  - { offset: 0x5213F, size: 0x8, addend: 0x0, symName: __ZNSt3__1neB8ne180100ERKNS_16__deque_iteratorIiPiRiPS1_lLl1024EEES6_, symObjAddr: 0x1DA8C, symBinAddr: 0x100021BEC, symSize: 0x34 }
  - { offset: 0x5217D, size: 0x8, addend: 0x0, symName: __ZNSt3__1eqB8ne180100ERKNS_16__deque_iteratorIiPiRiPS1_lLl1024EEES6_, symObjAddr: 0x1DC98, symBinAddr: 0x100021DF8, symSize: 0x30 }
  - { offset: 0x521BB, size: 0x8, addend: 0x0, symName: __ZNSt3__112__to_addressB8ne180100IPiEEPT_S3_, symObjAddr: 0x1E000, symBinAddr: 0x100022160, symSize: 0x14 }
  - { offset: 0x5258E, size: 0x8, addend: 0x0, symName: __ZNSt3__14swapB8ne180100IPPiEENS_9enable_ifIXaasr21is_move_constructibleIT_EE5valuesr18is_move_assignableIS4_EE5valueEvE4typeERS4_S7_, symObjAddr: 0x1F2E4, symBinAddr: 0x100023444, symSize: 0x3C }
  - { offset: 0x525DF, size: 0x8, addend: 0x0, symName: __ZNSt3__14moveB8ne180100IPPiS2_EET0_T_S4_S3_, symObjAddr: 0x1F3C8, symBinAddr: 0x100023528, symSize: 0x40 }
  - { offset: 0x52639, size: 0x8, addend: 0x0, symName: __ZNSt3__16__moveB8ne180100INS_17_ClassicAlgPolicyEPPiS3_S3_EENS_4pairIT0_T2_EES5_T1_S6_, symObjAddr: 0x1F4D0, symBinAddr: 0x100023630, symSize: 0x44 }
  - { offset: 0x526A5, size: 0x8, addend: 0x0, symName: __ZNSt3__123__dispatch_copy_or_moveB8ne180100INS_17_ClassicAlgPolicyENS_11__move_loopIS1_EENS_14__move_trivialEPPiS6_S6_EENS_4pairIT2_T4_EES8_T3_S9_, symObjAddr: 0x1F514, symBinAddr: 0x100023674, symSize: 0x44 }
  - { offset: 0x52723, size: 0x8, addend: 0x0, symName: __ZNSt3__121__unwrap_and_dispatchB8ne180100INS_10__overloadINS_11__move_loopINS_17_ClassicAlgPolicyEEENS_14__move_trivialEEEPPiS8_S8_Li0EEENS_4pairIT0_T2_EESA_T1_SB_, symObjAddr: 0x1F558, symBinAddr: 0x1000236B8, symSize: 0xB4 }
  - { offset: 0x527B1, size: 0x8, addend: 0x0, symName: __ZNSt3__114__unwrap_rangeB8ne180100IPPiS2_EENS_4pairIT0_S4_EET_S6_, symObjAddr: 0x1F60C, symBinAddr: 0x10002376C, symSize: 0x60 }
  - { offset: 0x52975, size: 0x8, addend: 0x0, symName: __ZNSt3__113__unwrap_iterB8ne180100IPPiNS_18__unwrap_iter_implIS2_Lb1EEELi0EEEDTclsrT0_8__unwrapclsr3stdE7declvalIT_EEEES6_, symObjAddr: 0x1F6B4, symBinAddr: 0x100023814, symSize: 0x24 }
  - { offset: 0x529B9, size: 0x8, addend: 0x0, symName: __ZNSt3__19make_pairB8ne180100IPPiS2_EENS_4pairINS_18__unwrap_ref_decayIT_E4typeENS4_IT0_E4typeEEEOS5_OS8_, symObjAddr: 0x1F6D8, symBinAddr: 0x100023838, symSize: 0x38 }
  - { offset: 0x52A08, size: 0x8, addend: 0x0, symName: __ZNSt3__114__rewrap_rangeB8ne180100IPPiS2_EET_S3_T0_, symObjAddr: 0x1F710, symBinAddr: 0x100023870, symSize: 0x2C }
  - { offset: 0x52A54, size: 0x8, addend: 0x0, symName: __ZNSt3__113__rewrap_iterB8ne180100IPPiS2_NS_18__unwrap_iter_implIS2_Lb1EEEEET_S5_T0_, symObjAddr: 0x1F73C, symBinAddr: 0x10002389C, symSize: 0x3C }
  - { offset: 0x52AA9, size: 0x8, addend: 0x0, symName: __ZNSt3__119__copy_trivial_implB8ne180100IPiS1_EENS_4pairIPT_PT0_EES4_S4_S6_, symObjAddr: 0x1F778, symBinAddr: 0x1000238D8, symSize: 0x80 }
  - { offset: 0x52B11, size: 0x8, addend: 0x0, symName: __ZNSt3__119__constexpr_memmoveB8ne180100IPiS1_Li0EEEPT_S3_PT0_NS_15__element_countE, symObjAddr: 0x1F7F8, symBinAddr: 0x100023958, symSize: 0x64 }
  - { offset: 0x52B7F, size: 0x8, addend: 0x0, symName: __ZNSt3__19make_pairB8ne180100IRPPiS2_EENS_4pairINS_18__unwrap_ref_decayIT_E4typeENS5_IT0_E4typeEEEOS6_OS9_, symObjAddr: 0x1F85C, symBinAddr: 0x1000239BC, symSize: 0x38 }
  - { offset: 0x52C21, size: 0x8, addend: 0x0, symName: __ZNSt3__18distanceB8ne180100INS_13move_iteratorIPPiEEEENS_15iterator_traitsIT_E15difference_typeES6_S6_, symObjAddr: 0x1FAC4, symBinAddr: 0x100023C24, symSize: 0x3C }
  - { offset: 0x52C64, size: 0x8, addend: 0x0, symName: __ZNSt3__110__distanceB8ne180100INS_13move_iteratorIPPiEEEENS_15iterator_traitsIT_E15difference_typeES6_S6_NS_26random_access_iterator_tagE, symObjAddr: 0x1FCC8, symBinAddr: 0x100023E28, symSize: 0x30 }
  - { offset: 0x52CB2, size: 0x8, addend: 0x0, symName: __ZNSt3__1miB8ne180100IPPiS2_EEDTmicldtfp_4baseEcldtfp0_4baseEERKNS_13move_iteratorIT_EERKNS4_IT0_EE, symObjAddr: 0x1FCF8, symBinAddr: 0x100023E58, symSize: 0x48 }
  - { offset: 0x52D01, size: 0x8, addend: 0x0, symName: __ZNSt3__113move_backwardB8ne180100IPPiS2_EET0_T_S4_S3_, symObjAddr: 0x1FE30, symBinAddr: 0x100023F90, symSize: 0x40 }
  - { offset: 0x52D5B, size: 0x8, addend: 0x0, symName: __ZNSt3__115__move_backwardB8ne180100INS_17_ClassicAlgPolicyEPPiS3_S3_EENS_4pairIT0_T2_EES5_T1_S6_, symObjAddr: 0x1FE70, symBinAddr: 0x100023FD0, symSize: 0x44 }
  - { offset: 0x52DC7, size: 0x8, addend: 0x0, symName: __ZNSt3__123__dispatch_copy_or_moveB8ne180100INS_17_ClassicAlgPolicyENS_20__move_backward_loopIS1_EENS_23__move_backward_trivialEPPiS6_S6_EENS_4pairIT2_T4_EES8_T3_S9_, symObjAddr: 0x1FEB4, symBinAddr: 0x100024014, symSize: 0x44 }
  - { offset: 0x52E45, size: 0x8, addend: 0x0, symName: __ZNSt3__121__unwrap_and_dispatchB8ne180100INS_10__overloadINS_20__move_backward_loopINS_17_ClassicAlgPolicyEEENS_23__move_backward_trivialEEEPPiS8_S8_Li0EEENS_4pairIT0_T2_EESA_T1_SB_, symObjAddr: 0x1FEF8, symBinAddr: 0x100024058, symSize: 0xB4 }
  - { offset: 0x52F19, size: 0x8, addend: 0x0, symName: __ZNSt3__128__copy_backward_trivial_implB8ne180100IPiS1_EENS_4pairIPT_PT0_EES4_S4_S6_, symObjAddr: 0x1FFF4, symBinAddr: 0x100024154, symSize: 0x90 }
  - { offset: 0x52F81, size: 0x8, addend: 0x0, symName: __ZNSt3__19make_pairB8ne180100IRPPiS3_EENS_4pairINS_18__unwrap_ref_decayIT_E4typeENS5_IT0_E4typeEEEOS6_OS9_, symObjAddr: 0x20084, symBinAddr: 0x1000241E4, symSize: 0x38 }
  - { offset: 0x52FD0, size: 0x8, addend: 0x0, symName: __ZNSt3__119__allocate_at_leastB8ne180100INS_9allocatorIPiEEEENS_19__allocation_resultINS_16allocator_traitsIT_E7pointerEEERS6_m, symObjAddr: 0x2023C, symBinAddr: 0x10002439C, symSize: 0x40 }
  - { offset: 0x53014, size: 0x8, addend: 0x0, symName: __ZNSt3__112__to_addressB8ne180100IiEEPT_S2_, symObjAddr: 0x2090C, symBinAddr: 0x100024A6C, symSize: 0x14 }
  - { offset: 0x5304A, size: 0x8, addend: 0x0, symName: __ZNSt3__112__to_addressB8ne180100I3JetEEPT_S3_, symObjAddr: 0x20E54, symBinAddr: 0x100024FB4, symSize: 0x14 }
  - { offset: 0x53080, size: 0x8, addend: 0x0, symName: __ZNSt3__112__to_addressB8ne180100IP4TH1FEEPT_S4_, symObjAddr: 0x2135C, symBinAddr: 0x1000254BC, symSize: 0x14 }
  - { offset: 0x530B6, size: 0x8, addend: 0x0, symName: __ZNSt3__112__to_addressB8ne180100IP4TH2FEEPT_S4_, symObjAddr: 0x21860, symBinAddr: 0x1000259C0, symSize: 0x14 }
  - { offset: 0x530EC, size: 0x8, addend: 0x0, symName: __ZNSt3__112__to_addressB8ne180100INS_6vectorIP4TH2FNS_9allocatorIS3_EEEEEEPT_S8_, symObjAddr: 0x21D64, symBinAddr: 0x100025EC4, symSize: 0x14 }
  - { offset: 0x53122, size: 0x8, addend: 0x0, symName: __ZNSt3__112__to_addressB8ne180100I10FourVectorEEPT_S3_, symObjAddr: 0x22280, symBinAddr: 0x1000263E0, symSize: 0x14 }
  - { offset: 0x53157, size: 0x8, addend: 0x0, symName: __ZNSt3__130__uninitialized_allocator_copyB8ne180100INS_9allocatorIdEEPKdS4_PdEET2_RT_T0_T1_S6_, symObjAddr: 0x22590, symBinAddr: 0x1000266F0, symSize: 0x80 }
  - { offset: 0x531F4, size: 0x8, addend: 0x0, symName: __ZNSt3__114__unwrap_rangeB8ne180100IPKdS2_EENS_4pairIT0_S4_EET_S6_, symObjAddr: 0x22610, symBinAddr: 0x100026770, symSize: 0x60 }
  - { offset: 0x53240, size: 0x8, addend: 0x0, symName: __ZNSt3__135__uninitialized_allocator_copy_implB8ne180100INS_9allocatorIdEEKdddLPv0EEEPT2_RT_PT0_SA_S6_, symObjAddr: 0x22670, symBinAddr: 0x1000267D0, symSize: 0x38 }
  - { offset: 0x532C1, size: 0x8, addend: 0x0, symName: __ZNSt3__19make_pairB8ne180100IPKdS2_EENS_4pairINS_18__unwrap_ref_decayIT_E4typeENS4_IT0_E4typeEEEOS5_OS8_, symObjAddr: 0x226A8, symBinAddr: 0x100026808, symSize: 0x38 }
  - { offset: 0x53310, size: 0x8, addend: 0x0, symName: __ZNSt3__113__unwrap_iterB8ne180100IPKdNS_18__unwrap_iter_implIS2_Lb1EEELi0EEEDTclsrT0_8__unwrapclsr3stdE7declvalIT_EEEES6_, symObjAddr: 0x226E0, symBinAddr: 0x100026840, symSize: 0x24 }
  - { offset: 0x5347C, size: 0x8, addend: 0x0, symName: __ZNSt3__112__to_addressB8ne180100IKdEEPT_S3_, symObjAddr: 0x22798, symBinAddr: 0x1000268F8, symSize: 0x14 }
  - { offset: 0x534B1, size: 0x8, addend: 0x0, symName: __ZNSt3__14copyB8ne180100IPKdPdEET0_T_S5_S4_, symObjAddr: 0x227AC, symBinAddr: 0x10002690C, symSize: 0x40 }
  - { offset: 0x5350B, size: 0x8, addend: 0x0, symName: __ZNSt3__16__copyB8ne180100INS_17_ClassicAlgPolicyEPKdS3_PdEENS_4pairIT0_T2_EES6_T1_S7_, symObjAddr: 0x227EC, symBinAddr: 0x10002694C, symSize: 0x44 }
  - { offset: 0x53577, size: 0x8, addend: 0x0, symName: __ZNSt3__123__dispatch_copy_or_moveB8ne180100INS_17_ClassicAlgPolicyENS_11__copy_loopIS1_EENS_14__copy_trivialEPKdS6_PdEENS_4pairIT2_T4_EES9_T3_SA_, symObjAddr: 0x22830, symBinAddr: 0x100026990, symSize: 0x44 }
  - { offset: 0x535F5, size: 0x8, addend: 0x0, symName: __ZNSt3__121__unwrap_and_dispatchB8ne180100INS_10__overloadINS_11__copy_loopINS_17_ClassicAlgPolicyEEENS_14__copy_trivialEEEPKdS8_PdLi0EEENS_4pairIT0_T2_EESB_T1_SC_, symObjAddr: 0x22874, symBinAddr: 0x1000269D4, symSize: 0xB4 }
  - { offset: 0x53786, size: 0x8, addend: 0x0, symName: __ZNSt3__19make_pairB8ne180100IPKdPdEENS_4pairINS_18__unwrap_ref_decayIT_E4typeENS5_IT0_E4typeEEEOS6_OS9_, symObjAddr: 0x22970, symBinAddr: 0x100026AD0, symSize: 0x38 }
  - { offset: 0x537D5, size: 0x8, addend: 0x0, symName: __ZNSt3__114__rewrap_rangeB8ne180100IPKdS2_EET_S3_T0_, symObjAddr: 0x229A8, symBinAddr: 0x100026B08, symSize: 0x2C }
  - { offset: 0x53821, size: 0x8, addend: 0x0, symName: __ZNSt3__119__copy_trivial_implB8ne180100IKddEENS_4pairIPT_PT0_EES4_S4_S6_, symObjAddr: 0x229D4, symBinAddr: 0x100026B34, symSize: 0x80 }
  - { offset: 0x53889, size: 0x8, addend: 0x0, symName: __ZNSt3__119__constexpr_memmoveB8ne180100IdKdLi0EEEPT_S3_PT0_NS_15__element_countE, symObjAddr: 0x22A54, symBinAddr: 0x100026BB4, symSize: 0x64 }
  - { offset: 0x538F7, size: 0x8, addend: 0x0, symName: __ZNSt3__19make_pairB8ne180100IRPKdPdEENS_4pairINS_18__unwrap_ref_decayIT_E4typeENS6_IT0_E4typeEEEOS7_OSA_, symObjAddr: 0x22AB8, symBinAddr: 0x100026C18, symSize: 0x38 }
  - { offset: 0x53946, size: 0x8, addend: 0x0, symName: __ZNSt3__113__rewrap_iterB8ne180100IPKdS2_NS_18__unwrap_iter_implIS2_Lb1EEEEET_S5_T0_, symObjAddr: 0x22BD0, symBinAddr: 0x100026D30, symSize: 0x3C }
  - { offset: 0x5399B, size: 0x8, addend: 0x0, symName: __ZNSt3__130__uninitialized_allocator_copyB8ne180100INS_9allocatorINS_12basic_stringIcNS_11char_traitsIcEENS1_IcEEEEEEPKS6_S9_PS6_EET2_RT_T0_T1_SB_, symObjAddr: 0x22E60, symBinAddr: 0x100026FC0, symSize: 0x80 }
  - { offset: 0x53A38, size: 0x8, addend: 0x0, symName: __ZNSt3__114__unwrap_rangeB8ne180100IPKNS_12basic_stringIcNS_11char_traitsIcEENS_9allocatorIcEEEES8_EENS_4pairIT0_SA_EET_SC_, symObjAddr: 0x22EE0, symBinAddr: 0x100027040, symSize: 0x60 }
  - { offset: 0x53A84, size: 0x8, addend: 0x0, symName: __ZNSt3__135__uninitialized_allocator_copy_implB8ne180100INS_9allocatorINS_12basic_stringIcNS_11char_traitsIcEENS1_IcEEEEEEPKS6_S9_PS6_EET2_RT_T0_T1_SB_, symObjAddr: 0x22F40, symBinAddr: 0x1000270A0, symSize: 0xF4 }
  - { offset: 0x53B22, size: 0x8, addend: 0x0, symName: __ZNSt3__19make_pairB8ne180100IPKNS_12basic_stringIcNS_11char_traitsIcEENS_9allocatorIcEEEES8_EENS_4pairINS_18__unwrap_ref_decayIT_E4typeENSA_IT0_E4typeEEEOSB_OSE_, symObjAddr: 0x23034, symBinAddr: 0x100027194, symSize: 0x38 }
  - { offset: 0x53B71, size: 0x8, addend: 0x0, symName: __ZNSt3__113__unwrap_iterB8ne180100IPKNS_12basic_stringIcNS_11char_traitsIcEENS_9allocatorIcEEEENS_18__unwrap_iter_implIS8_Lb1EEELi0EEEDTclsrT0_8__unwrapclsr3stdE7declvalIT_EEEESC_, symObjAddr: 0x2306C, symBinAddr: 0x1000271CC, symSize: 0x24 }
  - { offset: 0x53CDD, size: 0x8, addend: 0x0, symName: __ZNSt3__112__to_addressB8ne180100IKNS_12basic_stringIcNS_11char_traitsIcEENS_9allocatorIcEEEEEEPT_S9_, symObjAddr: 0x23124, symBinAddr: 0x100027284, symSize: 0x14 }
  - { offset: 0x53D12, size: 0x8, addend: 0x0, symName: __ZNSt3__119__allocate_at_leastB8ne180100INS_9allocatorIP4TH1FEEEENS_19__allocation_resultINS_16allocator_traitsIT_E7pointerEEERS7_m, symObjAddr: 0x238B8, symBinAddr: 0x100027A18, symSize: 0x40 }
  - { offset: 0x53D55, size: 0x8, addend: 0x0, symName: __ZNSt3__142__uninitialized_allocator_move_if_noexceptB8ne180100INS_9allocatorIP4TH1FEENS_16reverse_iteratorIPS3_EES7_S3_vEET1_RT_T0_SB_S8_, symObjAddr: 0x23A6C, symBinAddr: 0x100027BCC, symSize: 0x78 }
  - { offset: 0x53DD3, size: 0x8, addend: 0x0, symName: __ZNSt3__14swapB8ne180100IPP4TH1FEENS_9enable_ifIXaasr21is_move_constructibleIT_EE5valuesr18is_move_assignableIS5_EE5valueEvE4typeERS5_S8_, symObjAddr: 0x23B30, symBinAddr: 0x100027C90, symSize: 0x3C }
  - { offset: 0x53E24, size: 0x8, addend: 0x0, symName: __ZNSt3__14moveB8ne180100INS_16reverse_iteratorIPP4TH1FEES5_EET0_T_S7_S6_, symObjAddr: 0x23B80, symBinAddr: 0x100027CE0, symSize: 0x78 }
  - { offset: 0x53E7E, size: 0x8, addend: 0x0, symName: __ZNSt3__16__moveB8ne180100INS_17_ClassicAlgPolicyENS_16reverse_iteratorIPP4TH1FEES6_S6_EENS_4pairIT0_T2_EES8_T1_S9_, symObjAddr: 0x23BF8, symBinAddr: 0x100027D58, symSize: 0x64 }
  - { offset: 0x53EEA, size: 0x8, addend: 0x0, symName: __ZNSt3__123__dispatch_copy_or_moveB8ne180100INS_17_ClassicAlgPolicyENS_11__move_loopIS1_EENS_14__move_trivialENS_16reverse_iteratorIPP4TH1FEES9_S9_EENS_4pairIT2_T4_EESB_T3_SC_, symObjAddr: 0x23C5C, symBinAddr: 0x100027DBC, symSize: 0x64 }
  - { offset: 0x53F68, size: 0x8, addend: 0x0, symName: __ZNSt3__121__unwrap_and_dispatchB8ne180100INS_10__overloadINS_11__move_loopINS_17_ClassicAlgPolicyEEENS_14__move_trivialEEENS_16reverse_iteratorIPP4TH1FEESB_SB_Li0EEENS_4pairIT0_T2_EESD_T1_SE_, symObjAddr: 0x23CC0, symBinAddr: 0x100027E20, symSize: 0x12C }
  - { offset: 0x53FF8, size: 0x8, addend: 0x0, symName: __ZNSt3__114__unwrap_rangeB8ne180100INS_16reverse_iteratorIPP4TH1FEES5_EENS_4pairIT0_S7_EET_S9_, symObjAddr: 0x23DEC, symBinAddr: 0x100027F4C, symSize: 0x84 }
  - { offset: 0x54118, size: 0x8, addend: 0x0, symName: __ZNSt3__113__unwrap_iterB8ne180100INS_16reverse_iteratorIPP4TH1FEENS_18__unwrap_iter_implIS5_Lb0EEELi0EEEDTclsrT0_8__unwrapclsr3stdE7declvalIT_EEEES9_, symObjAddr: 0x23F10, symBinAddr: 0x100028070, symSize: 0x44 }
  - { offset: 0x5415C, size: 0x8, addend: 0x0, symName: __ZNSt3__19make_pairB8ne180100INS_16reverse_iteratorIPP4TH1FEES5_EENS_4pairINS_18__unwrap_ref_decayIT_E4typeENS7_IT0_E4typeEEEOS8_OSB_, symObjAddr: 0x23F54, symBinAddr: 0x1000280B4, symSize: 0x38 }
  - { offset: 0x541AB, size: 0x8, addend: 0x0, symName: __ZNSt3__114__rewrap_rangeB8ne180100INS_16reverse_iteratorIPP4TH1FEES5_EET_S6_T0_, symObjAddr: 0x23F8C, symBinAddr: 0x1000280EC, symSize: 0x5C }
  - { offset: 0x541F7, size: 0x8, addend: 0x0, symName: __ZNSt3__113__rewrap_iterB8ne180100INS_16reverse_iteratorIPP4TH1FEES5_NS_18__unwrap_iter_implIS5_Lb0EEEEET_S8_T0_, symObjAddr: 0x23FE8, symBinAddr: 0x100028148, symSize: 0x74 }
  - { offset: 0x5424C, size: 0x8, addend: 0x0, symName: __ZNSt3__1neB8ne180100IPP4TH1FS3_EEbRKNS_16reverse_iteratorIT_EERKNS4_IT0_EE, symObjAddr: 0x2405C, symBinAddr: 0x1000281BC, symSize: 0x48 }
  - { offset: 0x542EB, size: 0x8, addend: 0x0, symName: __ZNSt3__119__allocate_at_leastB8ne180100INS_9allocatorIP4TH2FEEEENS_19__allocation_resultINS_16allocator_traitsIT_E7pointerEEERS7_m, symObjAddr: 0x24B44, symBinAddr: 0x100028CA4, symSize: 0x40 }
  - { offset: 0x5432E, size: 0x8, addend: 0x0, symName: __ZNSt3__142__uninitialized_allocator_move_if_noexceptB8ne180100INS_9allocatorIP4TH2FEENS_16reverse_iteratorIPS3_EES7_S3_vEET1_RT_T0_SB_S8_, symObjAddr: 0x24CF8, symBinAddr: 0x100028E58, symSize: 0x78 }
  - { offset: 0x543AC, size: 0x8, addend: 0x0, symName: __ZNSt3__14swapB8ne180100IPP4TH2FEENS_9enable_ifIXaasr21is_move_constructibleIT_EE5valuesr18is_move_assignableIS5_EE5valueEvE4typeERS5_S8_, symObjAddr: 0x24DBC, symBinAddr: 0x100028F1C, symSize: 0x3C }
  - { offset: 0x543FD, size: 0x8, addend: 0x0, symName: __ZNSt3__14moveB8ne180100INS_16reverse_iteratorIPP4TH2FEES5_EET0_T_S7_S6_, symObjAddr: 0x24E0C, symBinAddr: 0x100028F6C, symSize: 0x78 }
  - { offset: 0x54457, size: 0x8, addend: 0x0, symName: __ZNSt3__16__moveB8ne180100INS_17_ClassicAlgPolicyENS_16reverse_iteratorIPP4TH2FEES6_S6_EENS_4pairIT0_T2_EES8_T1_S9_, symObjAddr: 0x24E84, symBinAddr: 0x100028FE4, symSize: 0x64 }
  - { offset: 0x544C3, size: 0x8, addend: 0x0, symName: __ZNSt3__123__dispatch_copy_or_moveB8ne180100INS_17_ClassicAlgPolicyENS_11__move_loopIS1_EENS_14__move_trivialENS_16reverse_iteratorIPP4TH2FEES9_S9_EENS_4pairIT2_T4_EESB_T3_SC_, symObjAddr: 0x24EE8, symBinAddr: 0x100029048, symSize: 0x64 }
  - { offset: 0x54541, size: 0x8, addend: 0x0, symName: __ZNSt3__121__unwrap_and_dispatchB8ne180100INS_10__overloadINS_11__move_loopINS_17_ClassicAlgPolicyEEENS_14__move_trivialEEENS_16reverse_iteratorIPP4TH2FEESB_SB_Li0EEENS_4pairIT0_T2_EESD_T1_SE_, symObjAddr: 0x24F4C, symBinAddr: 0x1000290AC, symSize: 0x12C }
  - { offset: 0x545D1, size: 0x8, addend: 0x0, symName: __ZNSt3__114__unwrap_rangeB8ne180100INS_16reverse_iteratorIPP4TH2FEES5_EENS_4pairIT0_S7_EET_S9_, symObjAddr: 0x25078, symBinAddr: 0x1000291D8, symSize: 0x84 }
  - { offset: 0x546F1, size: 0x8, addend: 0x0, symName: __ZNSt3__113__unwrap_iterB8ne180100INS_16reverse_iteratorIPP4TH2FEENS_18__unwrap_iter_implIS5_Lb0EEELi0EEEDTclsrT0_8__unwrapclsr3stdE7declvalIT_EEEES9_, symObjAddr: 0x2519C, symBinAddr: 0x1000292FC, symSize: 0x44 }
  - { offset: 0x54735, size: 0x8, addend: 0x0, symName: __ZNSt3__19make_pairB8ne180100INS_16reverse_iteratorIPP4TH2FEES5_EENS_4pairINS_18__unwrap_ref_decayIT_E4typeENS7_IT0_E4typeEEEOS8_OSB_, symObjAddr: 0x251E0, symBinAddr: 0x100029340, symSize: 0x38 }
  - { offset: 0x54784, size: 0x8, addend: 0x0, symName: __ZNSt3__114__rewrap_rangeB8ne180100INS_16reverse_iteratorIPP4TH2FEES5_EET_S6_T0_, symObjAddr: 0x25218, symBinAddr: 0x100029378, symSize: 0x5C }
  - { offset: 0x547D0, size: 0x8, addend: 0x0, symName: __ZNSt3__113__rewrap_iterB8ne180100INS_16reverse_iteratorIPP4TH2FEES5_NS_18__unwrap_iter_implIS5_Lb0EEEEET_S8_T0_, symObjAddr: 0x25274, symBinAddr: 0x1000293D4, symSize: 0x74 }
  - { offset: 0x54825, size: 0x8, addend: 0x0, symName: __ZNSt3__1neB8ne180100IPP4TH2FS3_EEbRKNS_16reverse_iteratorIT_EERKNS4_IT0_EE, symObjAddr: 0x252E8, symBinAddr: 0x100029448, symSize: 0x48 }
  - { offset: 0x548C4, size: 0x8, addend: 0x0, symName: __ZNSt3__122__make_exception_guardB8ne180100INS_6vectorIP4TH2FNS_9allocatorIS3_EEE16__destroy_vectorEEENS_28__exception_guard_exceptionsIT_EES9_, symObjAddr: 0x25B90, symBinAddr: 0x100029CF0, symSize: 0x40 }
  - { offset: 0x548F9, size: 0x8, addend: 0x0, symName: __ZNSt3__130__uninitialized_allocator_copyB8ne180100INS_9allocatorIP4TH2FEEPS3_S5_S5_EET2_RT_T0_T1_S6_, symObjAddr: 0x25DA8, symBinAddr: 0x100029F08, symSize: 0x80 }
  - { offset: 0x54996, size: 0x8, addend: 0x0, symName: __ZNSt3__114__unwrap_rangeB8ne180100IPP4TH2FS3_EENS_4pairIT0_S5_EET_S7_, symObjAddr: 0x25E28, symBinAddr: 0x100029F88, symSize: 0x60 }
  - { offset: 0x549E2, size: 0x8, addend: 0x0, symName: __ZNSt3__135__uninitialized_allocator_copy_implB8ne180100INS_9allocatorIP4TH2FEES3_S3_S3_LPv0EEEPT2_RT_PT0_SB_S7_, symObjAddr: 0x25E88, symBinAddr: 0x100029FE8, symSize: 0x38 }
  - { offset: 0x54A63, size: 0x8, addend: 0x0, symName: __ZNSt3__113__unwrap_iterB8ne180100IPP4TH2FNS_18__unwrap_iter_implIS3_Lb1EEELi0EEEDTclsrT0_8__unwrapclsr3stdE7declvalIT_EEEES7_, symObjAddr: 0x25EC0, symBinAddr: 0x10002A020, symSize: 0x24 }
  - { offset: 0x54AA7, size: 0x8, addend: 0x0, symName: __ZNSt3__113__rewrap_iterB8ne180100IPP4TH2FS3_NS_18__unwrap_iter_implIS3_Lb1EEEEET_S6_T0_, symObjAddr: 0x25EE4, symBinAddr: 0x10002A044, symSize: 0x3C }
  - { offset: 0x54AFC, size: 0x8, addend: 0x0, symName: __ZNSt3__19make_pairB8ne180100IPP4TH2FS3_EENS_4pairINS_18__unwrap_ref_decayIT_E4typeENS5_IT0_E4typeEEEOS6_OS9_, symObjAddr: 0x25F20, symBinAddr: 0x10002A080, symSize: 0x38 }
  - { offset: 0x54C4E, size: 0x8, addend: 0x0, symName: __ZNSt3__14copyB8ne180100IPP4TH2FS3_EET0_T_S5_S4_, symObjAddr: 0x25FC8, symBinAddr: 0x10002A128, symSize: 0x40 }
  - { offset: 0x54CA8, size: 0x8, addend: 0x0, symName: __ZNSt3__16__copyB8ne180100INS_17_ClassicAlgPolicyEPP4TH2FS4_S4_EENS_4pairIT0_T2_EES6_T1_S7_, symObjAddr: 0x26008, symBinAddr: 0x10002A168, symSize: 0x44 }
  - { offset: 0x54D14, size: 0x8, addend: 0x0, symName: __ZNSt3__123__dispatch_copy_or_moveB8ne180100INS_17_ClassicAlgPolicyENS_11__copy_loopIS1_EENS_14__copy_trivialEPP4TH2FS7_S7_EENS_4pairIT2_T4_EES9_T3_SA_, symObjAddr: 0x2604C, symBinAddr: 0x10002A1AC, symSize: 0x44 }
  - { offset: 0x54D92, size: 0x8, addend: 0x0, symName: __ZNSt3__121__unwrap_and_dispatchB8ne180100INS_10__overloadINS_11__copy_loopINS_17_ClassicAlgPolicyEEENS_14__copy_trivialEEEPP4TH2FS9_S9_Li0EEENS_4pairIT0_T2_EESB_T1_SC_, symObjAddr: 0x26090, symBinAddr: 0x10002A1F0, symSize: 0xB4 }
  - { offset: 0x54E20, size: 0x8, addend: 0x0, symName: __ZNSt3__114__rewrap_rangeB8ne180100IPP4TH2FS3_EET_S4_T0_, symObjAddr: 0x2618C, symBinAddr: 0x10002A2EC, symSize: 0x2C }
  - { offset: 0x54E6C, size: 0x8, addend: 0x0, symName: __ZNSt3__119__copy_trivial_implB8ne180100IP4TH2FS2_EENS_4pairIPT_PT0_EES5_S5_S7_, symObjAddr: 0x261B8, symBinAddr: 0x10002A318, symSize: 0x80 }
  - { offset: 0x54ED4, size: 0x8, addend: 0x0, symName: __ZNSt3__119__constexpr_memmoveB8ne180100IP4TH2FS2_Li0EEEPT_S4_PT0_NS_15__element_countE, symObjAddr: 0x26238, symBinAddr: 0x10002A398, symSize: 0x64 }
  - { offset: 0x54F42, size: 0x8, addend: 0x0, symName: __ZNSt3__19make_pairB8ne180100IRPP4TH2FS3_EENS_4pairINS_18__unwrap_ref_decayIT_E4typeENS6_IT0_E4typeEEEOS7_OSA_, symObjAddr: 0x2629C, symBinAddr: 0x10002A3FC, symSize: 0x38 }
  - { offset: 0x54FE4, size: 0x8, addend: 0x0, symName: __ZNSt3__119__allocate_at_leastB8ne180100INS_9allocatorINS_6vectorIP4TH2FNS1_IS4_EEEEEEEENS_19__allocation_resultINS_16allocator_traitsIT_E7pointerEEERSA_m, symObjAddr: 0x26888, symBinAddr: 0x10002A9E8, symSize: 0x40 }
  - { offset: 0x55027, size: 0x8, addend: 0x0, symName: __ZNSt3__142__uninitialized_allocator_move_if_noexceptB8ne180100INS_9allocatorINS_6vectorIP4TH2FNS1_IS4_EEEEEENS_16reverse_iteratorIPS6_EESA_SA_EET2_RT_T0_T1_SB_, symObjAddr: 0x26A40, symBinAddr: 0x10002ABA0, symSize: 0x12C }
  - { offset: 0x550C8, size: 0x8, addend: 0x0, symName: __ZNSt3__14swapB8ne180100IPNS_6vectorIP4TH2FNS_9allocatorIS3_EEEEEENS_9enable_ifIXaasr21is_move_constructibleIT_EE5valuesr18is_move_assignableIS9_EE5valueEvE4typeERS9_SC_, symObjAddr: 0x26BB8, symBinAddr: 0x10002AD18, symSize: 0x3C }
  - { offset: 0x55119, size: 0x8, addend: 0x0, symName: __ZNSt3__122__make_exception_guardB8ne180100INS_29_AllocatorDestroyRangeReverseINS_9allocatorINS_6vectorIP4TH2FNS2_IS5_EEEEEENS_16reverse_iteratorIPS7_EEEEEENS_28__exception_guard_exceptionsIT_EESE_, symObjAddr: 0x26C08, symBinAddr: 0x10002AD68, symSize: 0x4C }
  - { offset: 0x5514F, size: 0x8, addend: 0x0, symName: __ZNSt3__1neB8ne180100IPNS_6vectorIP4TH2FNS_9allocatorIS3_EEEES7_EEbRKNS_16reverse_iteratorIT_EERKNS8_IT0_EE, symObjAddr: 0x26C98, symBinAddr: 0x10002ADF8, symSize: 0x48 }
  - { offset: 0x5519B, size: 0x8, addend: 0x0, symName: __ZNSt3__112__to_addressB8ne180100INS_16reverse_iteratorIPNS_6vectorIP4TH2FNS_9allocatorIS4_EEEEEEvEEu7__decayIDTclsr19__to_address_helperIT_EE6__callclsr3stdE7declvalIRKSA_EEEEESC_, symObjAddr: 0x26D14, symBinAddr: 0x10002AE74, symSize: 0x24 }
  - { offset: 0x551FC, size: 0x8, addend: 0x0, symName: __ZNSt3__119__allocator_destroyB8ne180100INS_9allocatorINS_6vectorIP4TH2FNS1_IS4_EEEEEENS_16reverse_iteratorINS8_IPS6_EEEESB_EEvRT_T0_T1_, symObjAddr: 0x270EC, symBinAddr: 0x10002B24C, symSize: 0x70 }
  - { offset: 0x55261, size: 0x8, addend: 0x0, symName: __ZNSt3__1neB8ne180100INS_16reverse_iteratorIPNS_6vectorIP4TH2FNS_9allocatorIS4_EEEEEES9_EEbRKNS1_IT_EERKNS1_IT0_EE, symObjAddr: 0x27198, symBinAddr: 0x10002B2F8, symSize: 0x60 }
  - { offset: 0x552AD, size: 0x8, addend: 0x0, symName: __ZNSt3__112__to_addressB8ne180100INS_16reverse_iteratorINS1_IPNS_6vectorIP4TH2FNS_9allocatorIS4_EEEEEEEEvEEu7__decayIDTclsr19__to_address_helperIT_EE6__callclsr3stdE7declvalIRKSB_EEEEESD_, symObjAddr: 0x271F8, symBinAddr: 0x10002B358, symSize: 0x24 }
  - { offset: 0x5530D, size: 0x8, addend: 0x0, symName: __ZNSt3__119__allocate_at_leastB8ne180100INS_9allocatorI10FourVectorEEEENS_19__allocation_resultINS_16allocator_traitsIT_E7pointerEEERS6_m, symObjAddr: 0x27E8C, symBinAddr: 0x10002BFEC, symSize: 0x40 }
  - { offset: 0x55350, size: 0x8, addend: 0x0, symName: __ZNSt3__142__uninitialized_allocator_move_if_noexceptB8ne180100INS_9allocatorI10FourVectorEENS_16reverse_iteratorIPS2_EES6_S6_EET2_RT_T0_T1_S7_, symObjAddr: 0x28040, symBinAddr: 0x10002C1A0, symSize: 0x12C }
  - { offset: 0x553F1, size: 0x8, addend: 0x0, symName: __ZNSt3__14swapB8ne180100IP10FourVectorEENS_9enable_ifIXaasr21is_move_constructibleIT_EE5valuesr18is_move_assignableIS4_EE5valueEvE4typeERS4_S7_, symObjAddr: 0x281B8, symBinAddr: 0x10002C318, symSize: 0x3C }
  - { offset: 0x55442, size: 0x8, addend: 0x0, symName: __ZNSt3__122__make_exception_guardB8ne180100INS_29_AllocatorDestroyRangeReverseINS_9allocatorI10FourVectorEENS_16reverse_iteratorIPS3_EEEEEENS_28__exception_guard_exceptionsIT_EESA_, symObjAddr: 0x28208, symBinAddr: 0x10002C368, symSize: 0x4C }
  - { offset: 0x55478, size: 0x8, addend: 0x0, symName: __ZNSt3__1neB8ne180100IP10FourVectorS2_EEbRKNS_16reverse_iteratorIT_EERKNS3_IT0_EE, symObjAddr: 0x28298, symBinAddr: 0x10002C3F8, symSize: 0x48 }
  - { offset: 0x554C4, size: 0x8, addend: 0x0, symName: __ZNSt3__112__to_addressB8ne180100INS_16reverse_iteratorIP10FourVectorEEvEEu7__decayIDTclsr19__to_address_helperIT_EE6__callclsr3stdE7declvalIRKS5_EEEEES7_, symObjAddr: 0x28314, symBinAddr: 0x10002C474, symSize: 0x24 }
  - { offset: 0x55525, size: 0x8, addend: 0x0, symName: __ZNSt3__119__allocator_destroyB8ne180100INS_9allocatorI10FourVectorEENS_16reverse_iteratorINS4_IPS2_EEEES7_EEvRT_T0_T1_, symObjAddr: 0x285F8, symBinAddr: 0x10002C758, symSize: 0x70 }
  - { offset: 0x5558A, size: 0x8, addend: 0x0, symName: __ZNSt3__1neB8ne180100INS_16reverse_iteratorIP10FourVectorEES4_EEbRKNS1_IT_EERKNS1_IT0_EE, symObjAddr: 0x286A4, symBinAddr: 0x10002C804, symSize: 0x60 }
  - { offset: 0x555D6, size: 0x8, addend: 0x0, symName: __ZNSt3__112__to_addressB8ne180100INS_16reverse_iteratorINS1_IP10FourVectorEEEEvEEu7__decayIDTclsr19__to_address_helperIT_EE6__callclsr3stdE7declvalIRKS6_EEEEES8_, symObjAddr: 0x28704, symBinAddr: 0x10002C864, symSize: 0x24 }
  - { offset: 0x55637, size: 0x8, addend: 0x0, symName: __ZNSt3__112__to_addressB8ne180100IP4NodeEEPT_S4_, symObjAddr: 0x28E70, symBinAddr: 0x10002CFD0, symSize: 0x14 }
  - { offset: 0x5566C, size: 0x8, addend: 0x0, symName: __ZNSt3__119__allocate_at_leastB8ne180100INS_9allocatorIP4NodeEEEENS_19__allocation_resultINS_16allocator_traitsIT_E7pointerEEERS7_m, symObjAddr: 0x296C8, symBinAddr: 0x10002D828, symSize: 0x40 }
  - { offset: 0x556AF, size: 0x8, addend: 0x0, symName: __ZNSt3__142__uninitialized_allocator_move_if_noexceptB8ne180100INS_9allocatorIP4NodeEENS_16reverse_iteratorIPS3_EES7_S3_vEET1_RT_T0_SB_S8_, symObjAddr: 0x2987C, symBinAddr: 0x10002D9DC, symSize: 0x78 }
  - { offset: 0x5572D, size: 0x8, addend: 0x0, symName: __ZNSt3__14swapB8ne180100IPP4NodeEENS_9enable_ifIXaasr21is_move_constructibleIT_EE5valuesr18is_move_assignableIS5_EE5valueEvE4typeERS5_S8_, symObjAddr: 0x29940, symBinAddr: 0x10002DAA0, symSize: 0x3C }
  - { offset: 0x5577E, size: 0x8, addend: 0x0, symName: __ZNSt3__14moveB8ne180100INS_16reverse_iteratorIPP4NodeEES5_EET0_T_S7_S6_, symObjAddr: 0x29990, symBinAddr: 0x10002DAF0, symSize: 0x78 }
  - { offset: 0x557D8, size: 0x8, addend: 0x0, symName: __ZNSt3__16__moveB8ne180100INS_17_ClassicAlgPolicyENS_16reverse_iteratorIPP4NodeEES6_S6_EENS_4pairIT0_T2_EES8_T1_S9_, symObjAddr: 0x29A08, symBinAddr: 0x10002DB68, symSize: 0x64 }
  - { offset: 0x55844, size: 0x8, addend: 0x0, symName: __ZNSt3__123__dispatch_copy_or_moveB8ne180100INS_17_ClassicAlgPolicyENS_11__move_loopIS1_EENS_14__move_trivialENS_16reverse_iteratorIPP4NodeEES9_S9_EENS_4pairIT2_T4_EESB_T3_SC_, symObjAddr: 0x29A6C, symBinAddr: 0x10002DBCC, symSize: 0x64 }
  - { offset: 0x558C2, size: 0x8, addend: 0x0, symName: __ZNSt3__121__unwrap_and_dispatchB8ne180100INS_10__overloadINS_11__move_loopINS_17_ClassicAlgPolicyEEENS_14__move_trivialEEENS_16reverse_iteratorIPP4NodeEESB_SB_Li0EEENS_4pairIT0_T2_EESD_T1_SE_, symObjAddr: 0x29AD0, symBinAddr: 0x10002DC30, symSize: 0x12C }
  - { offset: 0x55952, size: 0x8, addend: 0x0, symName: __ZNSt3__114__unwrap_rangeB8ne180100INS_16reverse_iteratorIPP4NodeEES5_EENS_4pairIT0_S7_EET_S9_, symObjAddr: 0x29BFC, symBinAddr: 0x10002DD5C, symSize: 0x84 }
  - { offset: 0x55A72, size: 0x8, addend: 0x0, symName: __ZNSt3__113__unwrap_iterB8ne180100INS_16reverse_iteratorIPP4NodeEENS_18__unwrap_iter_implIS5_Lb0EEELi0EEEDTclsrT0_8__unwrapclsr3stdE7declvalIT_EEEES9_, symObjAddr: 0x29D20, symBinAddr: 0x10002DE80, symSize: 0x44 }
  - { offset: 0x55AB6, size: 0x8, addend: 0x0, symName: __ZNSt3__19make_pairB8ne180100INS_16reverse_iteratorIPP4NodeEES5_EENS_4pairINS_18__unwrap_ref_decayIT_E4typeENS7_IT0_E4typeEEEOS8_OSB_, symObjAddr: 0x29D64, symBinAddr: 0x10002DEC4, symSize: 0x38 }
  - { offset: 0x55B05, size: 0x8, addend: 0x0, symName: __ZNSt3__114__rewrap_rangeB8ne180100INS_16reverse_iteratorIPP4NodeEES5_EET_S6_T0_, symObjAddr: 0x29D9C, symBinAddr: 0x10002DEFC, symSize: 0x5C }
  - { offset: 0x55B51, size: 0x8, addend: 0x0, symName: __ZNSt3__113__rewrap_iterB8ne180100INS_16reverse_iteratorIPP4NodeEES5_NS_18__unwrap_iter_implIS5_Lb0EEEEET_S8_T0_, symObjAddr: 0x29DF8, symBinAddr: 0x10002DF58, symSize: 0x74 }
  - { offset: 0x55BA6, size: 0x8, addend: 0x0, symName: __ZNSt3__1neB8ne180100IPP4NodeS3_EEbRKNS_16reverse_iteratorIT_EERKNS4_IT0_EE, symObjAddr: 0x29E6C, symBinAddr: 0x10002DFCC, symSize: 0x48 }
  - { offset: 0x55C45, size: 0x8, addend: 0x0, symName: __ZNSt3__119__allocate_at_leastB8ne180100INS_9allocatorI3JetEEEENS_19__allocation_resultINS_16allocator_traitsIT_E7pointerEEERS6_m, symObjAddr: 0x2A978, symBinAddr: 0x10002EAD8, symSize: 0x40 }
  - { offset: 0x55C88, size: 0x8, addend: 0x0, symName: __ZNSt3__142__uninitialized_allocator_move_if_noexceptB8ne180100INS_9allocatorI3JetEENS_16reverse_iteratorIPS2_EES6_S2_vEET1_RT_T0_SA_S7_, symObjAddr: 0x2AB30, symBinAddr: 0x10002EC90, symSize: 0x78 }
  - { offset: 0x55D06, size: 0x8, addend: 0x0, symName: __ZNSt3__14swapB8ne180100IP3JetEENS_9enable_ifIXaasr21is_move_constructibleIT_EE5valuesr18is_move_assignableIS4_EE5valueEvE4typeERS4_S7_, symObjAddr: 0x2ABF4, symBinAddr: 0x10002ED54, symSize: 0x3C }
  - { offset: 0x55D57, size: 0x8, addend: 0x0, symName: __ZNSt3__14moveB8ne180100INS_16reverse_iteratorIP3JetEES4_EET0_T_S6_S5_, symObjAddr: 0x2AC44, symBinAddr: 0x10002EDA4, symSize: 0x78 }
  - { offset: 0x55DB1, size: 0x8, addend: 0x0, symName: __ZNSt3__16__moveB8ne180100INS_17_ClassicAlgPolicyENS_16reverse_iteratorIP3JetEES5_S5_EENS_4pairIT0_T2_EES7_T1_S8_, symObjAddr: 0x2ACBC, symBinAddr: 0x10002EE1C, symSize: 0x64 }
  - { offset: 0x55E1D, size: 0x8, addend: 0x0, symName: __ZNSt3__123__dispatch_copy_or_moveB8ne180100INS_17_ClassicAlgPolicyENS_11__move_loopIS1_EENS_14__move_trivialENS_16reverse_iteratorIP3JetEES8_S8_EENS_4pairIT2_T4_EESA_T3_SB_, symObjAddr: 0x2AD20, symBinAddr: 0x10002EE80, symSize: 0x64 }
  - { offset: 0x55E9B, size: 0x8, addend: 0x0, symName: __ZNSt3__121__unwrap_and_dispatchB8ne180100INS_10__overloadINS_11__move_loopINS_17_ClassicAlgPolicyEEENS_14__move_trivialEEENS_16reverse_iteratorIP3JetEESA_SA_Li0EEENS_4pairIT0_T2_EESC_T1_SD_, symObjAddr: 0x2AD84, symBinAddr: 0x10002EEE4, symSize: 0x12C }
  - { offset: 0x55F2B, size: 0x8, addend: 0x0, symName: __ZNSt3__114__unwrap_rangeB8ne180100INS_16reverse_iteratorIP3JetEES4_EENS_4pairIT0_S6_EET_S8_, symObjAddr: 0x2AEB0, symBinAddr: 0x10002F010, symSize: 0x84 }
  - { offset: 0x5604B, size: 0x8, addend: 0x0, symName: __ZNSt3__113__unwrap_iterB8ne180100INS_16reverse_iteratorIP3JetEENS_18__unwrap_iter_implIS4_Lb0EEELi0EEEDTclsrT0_8__unwrapclsr3stdE7declvalIT_EEEES8_, symObjAddr: 0x2AFD0, symBinAddr: 0x10002F130, symSize: 0x44 }
  - { offset: 0x5608F, size: 0x8, addend: 0x0, symName: __ZNSt3__19make_pairB8ne180100INS_16reverse_iteratorIP3JetEES4_EENS_4pairINS_18__unwrap_ref_decayIT_E4typeENS6_IT0_E4typeEEEOS7_OSA_, symObjAddr: 0x2B014, symBinAddr: 0x10002F174, symSize: 0x38 }
  - { offset: 0x560DE, size: 0x8, addend: 0x0, symName: __ZNSt3__114__rewrap_rangeB8ne180100INS_16reverse_iteratorIP3JetEES4_EET_S5_T0_, symObjAddr: 0x2B04C, symBinAddr: 0x10002F1AC, symSize: 0x5C }
  - { offset: 0x5612A, size: 0x8, addend: 0x0, symName: __ZNSt3__113__rewrap_iterB8ne180100INS_16reverse_iteratorIP3JetEES4_NS_18__unwrap_iter_implIS4_Lb0EEEEET_S7_T0_, symObjAddr: 0x2B0A8, symBinAddr: 0x10002F208, symSize: 0x74 }
  - { offset: 0x5617F, size: 0x8, addend: 0x0, symName: __ZNSt3__1neB8ne180100IP3JetS2_EEbRKNS_16reverse_iteratorIT_EERKNS3_IT0_EE, symObjAddr: 0x2B11C, symBinAddr: 0x10002F27C, symSize: 0x48 }
  - { offset: 0x5621E, size: 0x8, addend: 0x0, symName: __ZNSt3__13maxB8ne180100IiEERKT_S3_S3_, symObjAddr: 0x2B4AC, symBinAddr: 0x10002F60C, symSize: 0x2C }
  - { offset: 0x56261, size: 0x8, addend: 0x0, symName: __ZNSt3__13maxB8ne180100IiNS_6__lessIvvEEEERKT_S5_S5_T0_, symObjAddr: 0x2B584, symBinAddr: 0x10002F6E4, symSize: 0x54 }
  - { offset: 0x56325, size: 0x8, addend: 0x0, symName: __ZNSt3__116forward_as_tupleB8ne180100IJRKiEEENS_5tupleIJDpOT_EEES6_, symObjAddr: 0x2BA9C, symBinAddr: 0x10002FBFC, symSize: 0x2C }
  - { offset: 0x5635F, size: 0x8, addend: 0x0, symName: __ZNSt3__116forward_as_tupleB8ne180100IJEEENS_5tupleIJDpOT_EEES4_, symObjAddr: 0x2BAC8, symBinAddr: 0x10002FC28, symSize: 0x4 }
  - { offset: 0x56383, size: 0x8, addend: 0x0, symName: __ZNSt3__17launderB8ne180100IKNS_4pairIKiiEEEEPT_S6_, symObjAddr: 0x2C194, symBinAddr: 0x1000302F4, symSize: 0x24 }
  - { offset: 0x563BB, size: 0x8, addend: 0x0, symName: __ZNSt3__19__launderB8ne180100IKNS_4pairIKiiEEEEPT_S6_, symObjAddr: 0x2C1B8, symBinAddr: 0x100030318, symSize: 0x14 }
  - { offset: 0x5641C, size: 0x8, addend: 0x0, symName: __ZNSt3__13getB8ne180100ILm0EJRKiEEERNS_13tuple_elementIXT_ENS_5tupleIJDpT0_EEEE4typeERS7_, symObjAddr: 0x2C680, symBinAddr: 0x1000307E0, symSize: 0x24 }
  - { offset: 0x56460, size: 0x8, addend: 0x0, symName: __ZNSt3__127__tree_balance_after_insertB8ne180100IPNS_16__tree_node_baseIPvEEEEvT_S5_, symObjAddr: 0x2C730, symBinAddr: 0x100030890, symSize: 0x32C }
  - { offset: 0x564DF, size: 0x8, addend: 0x0, symName: __ZNSt3__120__tree_is_left_childB8ne180100IPNS_16__tree_node_baseIPvEEEEbT_, symObjAddr: 0x2CA9C, symBinAddr: 0x100030BFC, symSize: 0x2C }
  - { offset: 0x56515, size: 0x8, addend: 0x0, symName: __ZNSt3__118__tree_left_rotateB8ne180100IPNS_16__tree_node_baseIPvEEEEvT_, symObjAddr: 0x2CAC8, symBinAddr: 0x100030C28, symSize: 0xD8 }
  - { offset: 0x56555, size: 0x8, addend: 0x0, symName: __ZNSt3__119__tree_right_rotateB8ne180100IPNS_16__tree_node_baseIPvEEEEvT_, symObjAddr: 0x2CBA0, symBinAddr: 0x100030D00, symSize: 0xCC }
  - { offset: 0x56598, size: 0x8, addend: 0x0, symName: __ZNSt3__112__destroy_atB8ne180100INS_4pairIKiiEELi0EEEvPT_, symObjAddr: 0x2CE84, symBinAddr: 0x100030FE4, symSize: 0x10 }
  - { offset: 0x56626, size: 0x8, addend: 0x0, symName: __ZNSt3__17launderB8ne180100INS_4pairIKiiEEEEPT_S5_, symObjAddr: 0x2D04C, symBinAddr: 0x1000311AC, symSize: 0x24 }
  - { offset: 0x5665E, size: 0x8, addend: 0x0, symName: __ZNSt3__19__launderB8ne180100INS_4pairIKiiEEEEPT_S5_, symObjAddr: 0x2D070, symBinAddr: 0x1000311D0, symSize: 0x14 }
  - { offset: 0x56695, size: 0x8, addend: 0x0, symName: __ZNSt3__122__make_exception_guardB8ne180100INS_6vectorI3JetNS_9allocatorIS2_EEE16__destroy_vectorEEENS_28__exception_guard_exceptionsIT_EES8_, symObjAddr: 0x2D278, symBinAddr: 0x1000313D8, symSize: 0x40 }
  - { offset: 0x566CA, size: 0x8, addend: 0x0, symName: __ZNSt3__130__uninitialized_allocator_copyB8ne180100INS_9allocatorI3JetEEPS2_S4_S4_EET2_RT_T0_T1_S5_, symObjAddr: 0x2D498, symBinAddr: 0x1000315F8, symSize: 0x80 }
  - { offset: 0x56767, size: 0x8, addend: 0x0, symName: __ZNSt3__114__unwrap_rangeB8ne180100IP3JetS2_EENS_4pairIT0_S4_EET_S6_, symObjAddr: 0x2D518, symBinAddr: 0x100031678, symSize: 0x60 }
  - { offset: 0x567B3, size: 0x8, addend: 0x0, symName: __ZNSt3__135__uninitialized_allocator_copy_implB8ne180100INS_9allocatorI3JetEES2_S2_S2_LPv0EEEPT2_RT_PT0_SA_S6_, symObjAddr: 0x2D578, symBinAddr: 0x1000316D8, symSize: 0x38 }
  - { offset: 0x56834, size: 0x8, addend: 0x0, symName: __ZNSt3__113__unwrap_iterB8ne180100IP3JetNS_18__unwrap_iter_implIS2_Lb1EEELi0EEEDTclsrT0_8__unwrapclsr3stdE7declvalIT_EEEES6_, symObjAddr: 0x2D5B0, symBinAddr: 0x100031710, symSize: 0x24 }
  - { offset: 0x56878, size: 0x8, addend: 0x0, symName: __ZNSt3__113__rewrap_iterB8ne180100IP3JetS2_NS_18__unwrap_iter_implIS2_Lb1EEEEET_S5_T0_, symObjAddr: 0x2D5D4, symBinAddr: 0x100031734, symSize: 0x3C }
  - { offset: 0x568CD, size: 0x8, addend: 0x0, symName: __ZNSt3__19make_pairB8ne180100IP3JetS2_EENS_4pairINS_18__unwrap_ref_decayIT_E4typeENS4_IT0_E4typeEEEOS5_OS8_, symObjAddr: 0x2D610, symBinAddr: 0x100031770, symSize: 0x38 }
  - { offset: 0x56A1F, size: 0x8, addend: 0x0, symName: __ZNSt3__14copyB8ne180100IP3JetS2_EET0_T_S4_S3_, symObjAddr: 0x2D6B8, symBinAddr: 0x100031818, symSize: 0x40 }
  - { offset: 0x56A79, size: 0x8, addend: 0x0, symName: __ZNSt3__16__copyB8ne180100INS_17_ClassicAlgPolicyEP3JetS3_S3_EENS_4pairIT0_T2_EES5_T1_S6_, symObjAddr: 0x2D6F8, symBinAddr: 0x100031858, symSize: 0x44 }
  - { offset: 0x56AE5, size: 0x8, addend: 0x0, symName: __ZNSt3__123__dispatch_copy_or_moveB8ne180100INS_17_ClassicAlgPolicyENS_11__copy_loopIS1_EENS_14__copy_trivialEP3JetS6_S6_EENS_4pairIT2_T4_EES8_T3_S9_, symObjAddr: 0x2D73C, symBinAddr: 0x10003189C, symSize: 0x44 }
  - { offset: 0x56B63, size: 0x8, addend: 0x0, symName: __ZNSt3__121__unwrap_and_dispatchB8ne180100INS_10__overloadINS_11__copy_loopINS_17_ClassicAlgPolicyEEENS_14__copy_trivialEEEP3JetS8_S8_Li0EEENS_4pairIT0_T2_EESA_T1_SB_, symObjAddr: 0x2D780, symBinAddr: 0x1000318E0, symSize: 0xB4 }
  - { offset: 0x56BF1, size: 0x8, addend: 0x0, symName: __ZNSt3__114__rewrap_rangeB8ne180100IP3JetS2_EET_S3_T0_, symObjAddr: 0x2D87C, symBinAddr: 0x1000319DC, symSize: 0x2C }
  - { offset: 0x56C3D, size: 0x8, addend: 0x0, symName: __ZNSt3__119__copy_trivial_implB8ne180100I3JetS1_EENS_4pairIPT_PT0_EES4_S4_S6_, symObjAddr: 0x2D8A8, symBinAddr: 0x100031A08, symSize: 0x88 }
  - { offset: 0x56CA5, size: 0x8, addend: 0x0, symName: __ZNSt3__119__constexpr_memmoveB8ne180100I3JetS1_Li0EEEPT_S3_PT0_NS_15__element_countE, symObjAddr: 0x2D930, symBinAddr: 0x100031A90, symSize: 0x68 }
  - { offset: 0x56D13, size: 0x8, addend: 0x0, symName: __ZNSt3__19make_pairB8ne180100IRP3JetS2_EENS_4pairINS_18__unwrap_ref_decayIT_E4typeENS5_IT0_E4typeEEEOS6_OS9_, symObjAddr: 0x2D998, symBinAddr: 0x100031AF8, symSize: 0x38 }
  - { offset: 0x56DB5, size: 0x8, addend: 0x0, symName: __ZNSt3__119__allocate_at_leastB8ne180100INS_9allocatorImEEEENS_19__allocation_resultINS_16allocator_traitsIT_E7pointerEEERS5_m, symObjAddr: 0x2DFF8, symBinAddr: 0x100032158, symSize: 0x40 }
  - { offset: 0x56DF9, size: 0x8, addend: 0x0, symName: __ZNSt3__16fill_nB8ne180100INS_6vectorIbNS_9allocatorIbEEEEEEvNS_14__bit_iteratorIT_Lb0EXLi0EEEENS6_9size_typeEb, symObjAddr: 0x2E210, symBinAddr: 0x100032370, symSize: 0x94 }
  - { offset: 0x56E47, size: 0x8, addend: 0x0, symName: __ZNSt3__16fill_nB8ne180100IPmmmEET_S2_T0_RKT1_, symObjAddr: 0x2E600, symBinAddr: 0x100032760, symSize: 0x44 }
  - { offset: 0x56EAB, size: 0x8, addend: 0x0, symName: __ZNSt3__112__to_addressB8ne180100ImEEPT_S2_, symObjAddr: 0x2E644, symBinAddr: 0x1000327A4, symSize: 0x14 }
  - { offset: 0x56EE1, size: 0x8, addend: 0x0, symName: __ZNSt3__18__fill_nB8ne180100IPmmmEET_S2_T0_RKT1_, symObjAddr: 0x2E658, symBinAddr: 0x1000327B8, symSize: 0x64 }
  - { offset: 0x56F44, size: 0x8, addend: 0x0, symName: __ZNSt3__1neB8ne180100ERKNS_15__tree_iteratorINS_12__value_typeIiiEEPNS_11__tree_nodeIS2_PvEElEES9_, symObjAddr: 0x2E9EC, symBinAddr: 0x100032B4C, symSize: 0x34 }
  - { offset: 0x56F82, size: 0x8, addend: 0x0, symName: __ZNSt3__1eqB8ne180100ERKNS_15__tree_iteratorINS_12__value_typeIiiEEPNS_11__tree_nodeIS2_PvEElEES9_, symObjAddr: 0x2EA20, symBinAddr: 0x100032B80, symSize: 0x30 }
  - { offset: 0x56FBF, size: 0x8, addend: 0x0, symName: __ZNSt3__116__tree_next_iterB8ne180100IPNS_15__tree_end_nodeIPNS_16__tree_node_baseIPvEEEES5_EET_T0_, symObjAddr: 0x2EA88, symBinAddr: 0x100032BE8, symSize: 0x80 }
  - { offset: 0x56FFE, size: 0x8, addend: 0x0, symName: __ZNSt3__110__tree_minB8ne180100IPNS_16__tree_node_baseIPvEEEET_S5_, symObjAddr: 0x2EB08, symBinAddr: 0x100032C68, symSize: 0x40 }
  - { offset: 0x59B03, size: 0x8, addend: 0x0, symName: __ZSt28__throw_bad_array_new_lengthB8ne180100v, symObjAddr: 0xD280, symBinAddr: 0x1000113E0, symSize: 0x34 }
  - { offset: 0x7C862, size: 0x8, addend: 0x0, symName: __ZNSt3__16vectorINS_12basic_stringIcNS_11char_traitsIcEENS_9allocatorIcEEEENS4_IS6_EEE26__swap_out_circular_bufferERNS_14__split_bufferIS6_RS7_EE, symObjAddr: 0xFC74, symBinAddr: 0x100013DD4, symSize: 0x110 }
  - { offset: 0x7C9F6, size: 0x8, addend: 0x0, symName: __ZNSt3__16vectorI18SingleJetCorrectorNS_9allocatorIS1_EEE26__swap_out_circular_bufferERNS_14__split_bufferIS1_RS3_EE, symObjAddr: 0x15AC8, symBinAddr: 0x100019C28, symSize: 0x110 }
  - { offset: 0x7CA8E, size: 0x8, addend: 0x0, symName: __ZNSt3__16vectorIN18SingleJetCorrector4TypeENS_9allocatorIS2_EEE26__swap_out_circular_bufferERNS_14__split_bufferIS2_RS4_EE, symObjAddr: 0x16FC4, symBinAddr: 0x10001B124, symSize: 0x110 }
  - { offset: 0x7CAE6, size: 0x8, addend: 0x0, symName: __ZNSt3__16vectorIdNS_9allocatorIdEEE26__swap_out_circular_bufferERNS_14__split_bufferIdRS2_EE, symObjAddr: 0x17F64, symBinAddr: 0x10001C0C4, symSize: 0x110 }
  - { offset: 0x7CB3E, size: 0x8, addend: 0x0, symName: __ZNSt3__16vectorINS0_IdNS_9allocatorIdEEEENS1_IS3_EEE26__swap_out_circular_bufferERNS_14__split_bufferIS3_RS4_EE, symObjAddr: 0x18F0C, symBinAddr: 0x10001D06C, symSize: 0x110 }
  - { offset: 0x7CBC1, size: 0x8, addend: 0x0, symName: __ZNSt3__16vectorINS0_IN18SingleJetCorrector4TypeENS_9allocatorIS2_EEEENS3_IS5_EEE26__swap_out_circular_bufferERNS_14__split_bufferIS5_RS6_EE, symObjAddr: 0x19ECC, symBinAddr: 0x10001E02C, symSize: 0x110 }
  - { offset: 0x7CC44, size: 0x8, addend: 0x0, symName: __ZNSt3__16vectorIP3TF1NS_9allocatorIS2_EEE26__swap_out_circular_bufferERNS_14__split_bufferIS2_RS4_EE, symObjAddr: 0x1B010, symBinAddr: 0x10001F170, symSize: 0x110 }
  - { offset: 0x7F823, size: 0x8, addend: 0x0, symName: __ZNSt3__16vectorIP4TH1FNS_9allocatorIS2_EEE26__swap_out_circular_bufferERNS_14__split_bufferIS2_RS4_EE, symObjAddr: 0x23558, symBinAddr: 0x1000276B8, symSize: 0x110 }
  - { offset: 0x7F87B, size: 0x8, addend: 0x0, symName: __ZNSt3__16vectorIP4TH2FNS_9allocatorIS2_EEE26__swap_out_circular_bufferERNS_14__split_bufferIS2_RS4_EE, symObjAddr: 0x247E4, symBinAddr: 0x100028944, symSize: 0x110 }
  - { offset: 0x7F8EF, size: 0x8, addend: 0x0, symName: __ZNSt3__16vectorINS0_IP4TH2FNS_9allocatorIS2_EEEENS3_IS5_EEE26__swap_out_circular_bufferERNS_14__split_bufferIS5_RS6_EE, symObjAddr: 0x26518, symBinAddr: 0x10002A678, symSize: 0x110 }
  - { offset: 0x7F987, size: 0x8, addend: 0x0, symName: __ZNSt3__16vectorI10FourVectorNS_9allocatorIS1_EEE26__swap_out_circular_bufferERNS_14__split_bufferIS1_RS3_EE, symObjAddr: 0x27B2C, symBinAddr: 0x10002BC8C, symSize: 0x110 }
  - { offset: 0x7FC4B, size: 0x8, addend: 0x0, symName: __ZNSt3__16vectorIP4NodeNS_9allocatorIS2_EEE26__swap_out_circular_bufferERNS_14__split_bufferIS2_RS4_EE, symObjAddr: 0x29368, symBinAddr: 0x10002D4C8, symSize: 0x110 }
  - { offset: 0x7FCA3, size: 0x8, addend: 0x0, symName: __ZNSt3__16vectorI3JetNS_9allocatorIS1_EEE26__swap_out_circular_bufferERNS_14__split_bufferIS1_RS3_EE, symObjAddr: 0x2A608, symBinAddr: 0x10002E768, symSize: 0x110 }
  - { offset: 0x80549, size: 0x8, addend: 0x0, symName: __ZN12JetCorrector10InitializeENSt3__16vectorINS0_12basic_stringIcNS0_11char_traitsIcEENS0_9allocatorIcEEEENS5_IS7_EEEE, symObjAddr: 0x0, symBinAddr: 0x100004160, symSize: 0x14C }
  - { offset: 0x805C1, size: 0x8, addend: 0x0, symName: __ZNSt3__16vectorI18SingleJetCorrectorNS_9allocatorIS1_EEE5clearB8ne180100Ev, symObjAddr: 0x14C, symBinAddr: 0x1000042AC, symSize: 0x44 }
  - { offset: 0x805F6, size: 0x8, addend: 0x0, symName: __ZNSt3__16vectorINS_12basic_stringIcNS_11char_traitsIcEENS_9allocatorIcEEEENS4_IS6_EEE5beginB8ne180100Ev, symObjAddr: 0x190, symBinAddr: 0x1000042F0, symSize: 0x30 }
  - { offset: 0x8061E, size: 0x8, addend: 0x0, symName: __ZNSt3__16vectorINS_12basic_stringIcNS_11char_traitsIcEENS_9allocatorIcEEEENS4_IS6_EEE3endB8ne180100Ev, symObjAddr: 0x1C0, symBinAddr: 0x100004320, symSize: 0x30 }
  - { offset: 0x80646, size: 0x8, addend: 0x0, symName: __ZNKSt3__111__wrap_iterIPNS_12basic_stringIcNS_11char_traitsIcEENS_9allocatorIcEEEEEdeB8ne180100Ev, symObjAddr: 0x224, symBinAddr: 0x100004384, symSize: 0x18 }
  - { offset: 0x8066C, size: 0x8, addend: 0x0, symName: __ZNSt3__16vectorI18SingleJetCorrectorNS_9allocatorIS1_EEE9push_backB8ne180100EOS1_, symObjAddr: 0x23C, symBinAddr: 0x10000439C, symSize: 0x90 }
  - { offset: 0x806B2, size: 0x8, addend: 0x0, symName: __ZN18SingleJetCorrectorC1ENSt3__112basic_stringIcNS0_11char_traitsIcEENS0_9allocatorIcEEEE, symObjAddr: 0x2CC, symBinAddr: 0x10000442C, symSize: 0x34 }
  - { offset: 0x806EB, size: 0x8, addend: 0x0, symName: __ZN18SingleJetCorrectorD1Ev, symObjAddr: 0x300, symBinAddr: 0x100004460, symSize: 0x2C }
  - { offset: 0x80715, size: 0x8, addend: 0x0, symName: __ZNSt3__111__wrap_iterIPNS_12basic_stringIcNS_11char_traitsIcEENS_9allocatorIcEEEEEppB8ne180100Ev, symObjAddr: 0x32C, symBinAddr: 0x10000448C, symSize: 0x20 }
  - { offset: 0x8073B, size: 0x8, addend: 0x0, symName: __ZN12JetCorrector13GetCorrectionEv, symObjAddr: 0x34C, symBinAddr: 0x1000044AC, symSize: 0x68 }
  - { offset: 0x80770, size: 0x8, addend: 0x0, symName: __ZN12JetCorrector13GetCorrectedPEv, symObjAddr: 0x3B4, symBinAddr: 0x100004514, symSize: 0x18C }
  - { offset: 0x807DE, size: 0x8, addend: 0x0, symName: __ZN12JetCorrector13GetCorrectedEEv, symObjAddr: 0x540, symBinAddr: 0x1000046A0, symSize: 0x18C }
  - { offset: 0x8084C, size: 0x8, addend: 0x0, symName: __ZNKSt3__16vectorI18SingleJetCorrectorNS_9allocatorIS1_EEE4sizeB8ne180100Ev, symObjAddr: 0x6CC, symBinAddr: 0x10000482C, symSize: 0x28 }
  - { offset: 0x80872, size: 0x8, addend: 0x0, symName: __ZNSt3__16vectorI18SingleJetCorrectorNS_9allocatorIS1_EEEixB8ne180100Em, symObjAddr: 0x6F4, symBinAddr: 0x100004854, symSize: 0x2C }
  - { offset: 0x808A9, size: 0x8, addend: 0x0, symName: __ZN18SingleJetCorrector7SetJetEEd, symObjAddr: 0x720, symBinAddr: 0x100004880, symSize: 0x20 }
  - { offset: 0x808DD, size: 0x8, addend: 0x0, symName: __ZN18SingleJetCorrector7SetJetPEd, symObjAddr: 0x740, symBinAddr: 0x1000048A0, symSize: 0x20 }
  - { offset: 0x80911, size: 0x8, addend: 0x0, symName: __ZN18SingleJetCorrector8SetJetPTEd, symObjAddr: 0x760, symBinAddr: 0x1000048C0, symSize: 0x20 }
  - { offset: 0x80945, size: 0x8, addend: 0x0, symName: __ZN18SingleJetCorrector9SetJetEtaEd, symObjAddr: 0x780, symBinAddr: 0x1000048E0, symSize: 0x20 }
  - { offset: 0x80979, size: 0x8, addend: 0x0, symName: __ZN18SingleJetCorrector11SetJetThetaEd, symObjAddr: 0x7A0, symBinAddr: 0x100004900, symSize: 0x20 }
  - { offset: 0x809AD, size: 0x8, addend: 0x0, symName: __ZN18SingleJetCorrector9SetJetPhiEd, symObjAddr: 0x7C0, symBinAddr: 0x100004920, symSize: 0x20 }
  - { offset: 0x809E1, size: 0x8, addend: 0x0, symName: __ZN18SingleJetCorrector6SetRhoEd, symObjAddr: 0x7E0, symBinAddr: 0x100004940, symSize: 0x20 }
  - { offset: 0x80A15, size: 0x8, addend: 0x0, symName: __ZN18SingleJetCorrector10SetJetAreaEd, symObjAddr: 0x800, symBinAddr: 0x100004960, symSize: 0x20 }
  - { offset: 0x80A49, size: 0x8, addend: 0x0, symName: __ZN18SingleJetCorrector13GetCorrectedEEv, symObjAddr: 0x820, symBinAddr: 0x100004980, symSize: 0x68 }
  - { offset: 0x80A80, size: 0x8, addend: 0x0, symName: __ZN18SingleJetCorrector13GetCorrectedPEv, symObjAddr: 0x888, symBinAddr: 0x1000049E8, symSize: 0x68 }
  - { offset: 0x80AB7, size: 0x8, addend: 0x0, symName: __ZN18SingleJetCorrector14GetCorrectedPTEv, symObjAddr: 0x8F0, symBinAddr: 0x100004A50, symSize: 0x68 }
  - { offset: 0x80AEE, size: 0x8, addend: 0x0, symName: __ZN12JetCorrector14GetCorrectedPTEv, symObjAddr: 0x958, symBinAddr: 0x100004AB8, symSize: 0x18C }
  - { offset: 0x80B5C, size: 0x8, addend: 0x0, symName: __ZN18SingleJetCorrector10InitializeENSt3__112basic_stringIcNS0_11char_traitsIcEENS0_9allocatorIcEEEE, symObjAddr: 0xAE4, symBinAddr: 0x100004C44, symSize: 0xAA8 }
  - { offset: 0x80D1E, size: 0x8, addend: 0x0, symName: __ZNSt3__112basic_stringIcNS_11char_traitsIcEENS_9allocatorIcEEEC1B8ne180100ILi0EEEPKc, symObjAddr: 0x158C, symBinAddr: 0x1000056EC, symSize: 0x34 }
  - { offset: 0x80D5D, size: 0x8, addend: 0x0, symName: __ZNSt3__16vectorIN18SingleJetCorrector4TypeENS_9allocatorIS2_EEEC1B8ne180100Ev, symObjAddr: 0x15C0, symBinAddr: 0x100005720, symSize: 0x2C }
  - { offset: 0x80D87, size: 0x8, addend: 0x0, symName: __ZNKSt3__112basic_stringIcNS_11char_traitsIcEENS_9allocatorIcEEE5c_strB8ne180100Ev, symObjAddr: 0x15EC, symBinAddr: 0x10000574C, symSize: 0x24 }
  - { offset: 0x80E9E, size: 0x8, addend: 0x0, symName: __ZNSt3__114basic_ifstreamIcNS_11char_traitsIcEEEC1EPKcj, symObjAddr: 0x1610, symBinAddr: 0x100005770, symSize: 0x164 }
  - { offset: 0x80EE8, size: 0x8, addend: 0x0, symName: __ZNKSt3__19basic_iosIcNS_11char_traitsIcEEEcvbB8ne180100Ev, symObjAddr: 0x1774, symBinAddr: 0x1000058D4, symSize: 0x2C }
  - { offset: 0x80F0E, size: 0x8, addend: 0x0, symName: __ZN18SingleJetCorrector15CheckDefinitionENSt3__112basic_stringIcNS0_11char_traitsIcEENS0_9allocatorIcEEEE, symObjAddr: 0x17A0, symBinAddr: 0x100005900, symSize: 0xEC }
  - { offset: 0x80F64, size: 0x8, addend: 0x0, symName: __ZN18SingleJetCorrector14BreakIntoPartsENSt3__112basic_stringIcNS0_11char_traitsIcEENS0_9allocatorIcEEEE, symObjAddr: 0x188C, symBinAddr: 0x1000059EC, symSize: 0x184 }
  - { offset: 0x80FD1, size: 0x8, addend: 0x0, symName: __ZN18SingleJetCorrector12StripBracketENSt3__112basic_stringIcNS0_11char_traitsIcEENS0_9allocatorIcEEEE, symObjAddr: 0x1A10, symBinAddr: 0x100005B70, symSize: 0x108 }
  - { offset: 0x81027, size: 0x8, addend: 0x0, symName: __ZNKSt3__16vectorINS_12basic_stringIcNS_11char_traitsIcEENS_9allocatorIcEEEENS4_IS6_EEE4sizeB8ne180100Ev, symObjAddr: 0x1B18, symBinAddr: 0x100005C78, symSize: 0x28 }
  - { offset: 0x8104D, size: 0x8, addend: 0x0, symName: __ZNSt3__16vectorINS_12basic_stringIcNS_11char_traitsIcEENS_9allocatorIcEEEENS4_IS6_EEEixB8ne180100Em, symObjAddr: 0x1B40, symBinAddr: 0x100005CA0, symSize: 0x2C }
  - { offset: 0x81084, size: 0x8, addend: 0x0, symName: __ZNSt3__16vectorIN18SingleJetCorrector4TypeENS_9allocatorIS2_EEE5clearB8ne180100Ev, symObjAddr: 0x1B6C, symBinAddr: 0x100005CCC, symSize: 0x44 }
  - { offset: 0x810B9, size: 0x8, addend: 0x0, symName: __ZNSt3__16vectorIN18SingleJetCorrector4TypeENS_9allocatorIS2_EEE9push_backB8ne180100EOS2_, symObjAddr: 0x1BB0, symBinAddr: 0x100005D10, symSize: 0x90 }
  - { offset: 0x810FF, size: 0x8, addend: 0x0, symName: __ZN18SingleJetCorrector6ToTypeENSt3__112basic_stringIcNS0_11char_traitsIcEENS0_9allocatorIcEEEE, symObjAddr: 0x1C40, symBinAddr: 0x100005DA0, symSize: 0x18C }
  - { offset: 0x81137, size: 0x8, addend: 0x0, symName: __ZNSt3__16vectorIdNS_9allocatorIdEEEC1B8ne180100Ev, symObjAddr: 0x1DCC, symBinAddr: 0x100005F2C, symSize: 0x2C }
  - { offset: 0x81161, size: 0x8, addend: 0x0, symName: __ZNSt3__16vectorIdNS_9allocatorIdEEE9push_backB8ne180100EOd, symObjAddr: 0x1DF8, symBinAddr: 0x100005F58, symSize: 0x90 }
  - { offset: 0x811A7, size: 0x8, addend: 0x0, symName: __ZNSt3__16vectorINS0_IdNS_9allocatorIdEEEENS1_IS3_EEE9push_backB8ne180100ERKS3_, symObjAddr: 0x1E88, symBinAddr: 0x100005FE8, symSize: 0x90 }
  - { offset: 0x811ED, size: 0x8, addend: 0x0, symName: __ZNSt3__16vectorINS0_IN18SingleJetCorrector4TypeENS_9allocatorIS2_EEEENS3_IS5_EEE9push_backB8ne180100ERKS5_, symObjAddr: 0x1F18, symBinAddr: 0x100006078, symSize: 0x90 }
  - { offset: 0x81233, size: 0x8, addend: 0x0, symName: __ZNKSt3__16vectorIN18SingleJetCorrector4TypeENS_9allocatorIS2_EEE4sizeB8ne180100Ev, symObjAddr: 0x1FA8, symBinAddr: 0x100006108, symSize: 0x28 }
  - { offset: 0x81259, size: 0x8, addend: 0x0, symName: __ZNSt3__16vectorINS_12basic_stringIcNS_11char_traitsIcEENS_9allocatorIcEEEENS4_IS6_EEE9push_backB8ne180100EOS6_, symObjAddr: 0x1FD0, symBinAddr: 0x100006130, symSize: 0x90 }
  - { offset: 0x8129F, size: 0x8, addend: 0x0, symName: __ZN18SingleJetCorrector5Hack4ENSt3__112basic_stringIcNS0_11char_traitsIcEENS0_9allocatorIcEEEEci, symObjAddr: 0x2060, symBinAddr: 0x1000061C0, symSize: 0x2CC }
  - { offset: 0x81322, size: 0x8, addend: 0x0, symName: __ZNKSt3__16vectorIdNS_9allocatorIdEEE4sizeB8ne180100Ev, symObjAddr: 0x232C, symBinAddr: 0x10000648C, symSize: 0x28 }
  - { offset: 0x81348, size: 0x8, addend: 0x0, symName: __ZNSt3__16vectorINS_12basic_stringIcNS_11char_traitsIcEENS_9allocatorIcEEEENS4_IS6_EEE9push_backB8ne180100ERKS6_, symObjAddr: 0x2354, symBinAddr: 0x1000064B4, symSize: 0x90 }
  - { offset: 0x8138E, size: 0x8, addend: 0x0, symName: __ZNSt3__16vectorIdNS_9allocatorIdEEEixB8ne180100Em, symObjAddr: 0x23E4, symBinAddr: 0x100006544, symSize: 0x24 }
  - { offset: 0x813C5, size: 0x8, addend: 0x0, symName: __ZNSt3__16vectorIdNS_9allocatorIdEEE5clearB8ne180100Ev, symObjAddr: 0x2444, symBinAddr: 0x1000065A4, symSize: 0x44 }
  - { offset: 0x813FA, size: 0x8, addend: 0x0, symName: __ZNSt3__16vectorIP3TF1NS_9allocatorIS2_EEE9push_backB8ne180100EOS2_, symObjAddr: 0x2488, symBinAddr: 0x1000065E8, symSize: 0x90 }
  - { offset: 0x81440, size: 0x8, addend: 0x0, symName: __ZNSt3__16vectorIdNS_9allocatorIdEEED1B8ne180100Ev, symObjAddr: 0x2518, symBinAddr: 0x100006678, symSize: 0x2C }
  - { offset: 0x8146A, size: 0x8, addend: 0x0, symName: __ZNSt3__16vectorINS_12basic_stringIcNS_11char_traitsIcEENS_9allocatorIcEEEENS4_IS6_EEED1B8ne180100Ev, symObjAddr: 0x2544, symBinAddr: 0x1000066A4, symSize: 0x2C }
  - { offset: 0x81494, size: 0x8, addend: 0x0, symName: __ZNSt3__114basic_ifstreamIcNS_11char_traitsIcEEE5closeEv, symObjAddr: 0x2570, symBinAddr: 0x1000066D0, symSize: 0x58 }
  - { offset: 0x814C1, size: 0x8, addend: 0x0, symName: __ZNSt3__114basic_ifstreamIcNS_11char_traitsIcEEED1Ev, symObjAddr: 0x25C8, symBinAddr: 0x100006728, symSize: 0x40 }
  - { offset: 0x814EE, size: 0x8, addend: 0x0, symName: __ZNSt3__16vectorIN18SingleJetCorrector4TypeENS_9allocatorIS2_EEED1B8ne180100Ev, symObjAddr: 0x2608, symBinAddr: 0x100006768, symSize: 0x2C }
  - { offset: 0x8157F, size: 0x8, addend: 0x0, symName: __ZNSt3__118basic_stringstreamIcNS_11char_traitsIcEENS_9allocatorIcEEEC1B8ne180100ERKNS_12basic_stringIcS2_S4_EEj, symObjAddr: 0x2634, symBinAddr: 0x100006794, symSize: 0x100 }
  - { offset: 0x815C7, size: 0x8, addend: 0x0, symName: __ZNSt3__16vectorINS_12basic_stringIcNS_11char_traitsIcEENS_9allocatorIcEEEENS4_IS6_EEEC1B8ne180100Ev, symObjAddr: 0x2734, symBinAddr: 0x100006894, symSize: 0x2C }
  - { offset: 0x815F6, size: 0x8, addend: 0x0, symName: __ZNSt3__118basic_stringstreamIcNS_11char_traitsIcEENS_9allocatorIcEEED1Ev, symObjAddr: 0x2B18, symBinAddr: 0x100006C78, symSize: 0x40 }
  - { offset: 0x81623, size: 0x8, addend: 0x0, symName: __ZNKSt3__112basic_stringIcNS_11char_traitsIcEENS_9allocatorIcEEE4sizeB8ne180100Ev, symObjAddr: 0x2B58, symBinAddr: 0x100006CB8, symSize: 0x54 }
  - { offset: 0x81649, size: 0x8, addend: 0x0, symName: __ZNSt3__112basic_stringIcNS_11char_traitsIcEENS_9allocatorIcEEEixB8ne180100Em, symObjAddr: 0x2BAC, symBinAddr: 0x100006D0C, symSize: 0x48 }
  - { offset: 0x8167E, size: 0x8, addend: 0x0, symName: __ZNSt3__112basic_stringIcNS_11char_traitsIcEENS_9allocatorIcEEE5eraseB8ne180100ENS_11__wrap_iterIPKcEE, symObjAddr: 0x2BF4, symBinAddr: 0x100006D54, symSize: 0x78 }
  - { offset: 0x816D3, size: 0x8, addend: 0x0, symName: __ZNSt3__112basic_stringIcNS_11char_traitsIcEENS_9allocatorIcEEE5beginB8ne180100Ev, symObjAddr: 0x2C6C, symBinAddr: 0x100006DCC, symSize: 0x4C }
  - { offset: 0x816F9, size: 0x8, addend: 0x0, symName: __ZNKSt3__111__wrap_iterIPcEplB8ne180100El, symObjAddr: 0x2CB8, symBinAddr: 0x100006E18, symSize: 0x3C }
  - { offset: 0x81741, size: 0x8, addend: 0x0, symName: __ZNSt3__111__wrap_iterIPKcEC1B8ne180100IPcLi0EEERKNS0_IT_EE, symObjAddr: 0x2CF4, symBinAddr: 0x100006E54, symSize: 0x34 }
  - { offset: 0x81788, size: 0x8, addend: 0x0, symName: __ZNSt3__112basic_stringIcNS_11char_traitsIcEENS_9allocatorIcEEEC1B8ne180100EOS5_, symObjAddr: 0x2D28, symBinAddr: 0x100006E88, symSize: 0x34 }
  - { offset: 0x817C1, size: 0x8, addend: 0x0, symName: __ZNSt3__113basic_ostreamIcNS_11char_traitsIcEEElsB8ne180100EPFRS3_S4_E, symObjAddr: 0x2DF0, symBinAddr: 0x100006F50, symSize: 0x2C }
  - { offset: 0x817F5, size: 0x8, addend: 0x0, symName: __ZN18SingleJetCorrector13GetCorrectionEv, symObjAddr: 0x2E74, symBinAddr: 0x100006FD4, symSize: 0xAF0 }
  - { offset: 0x81923, size: 0x8, addend: 0x0, symName: __ZNSt3__16vectorINS0_IN18SingleJetCorrector4TypeENS_9allocatorIS2_EEEENS3_IS5_EEEixB8ne180100Em, symObjAddr: 0x3964, symBinAddr: 0x100007AC4, symSize: 0x2C }
  - { offset: 0x8195A, size: 0x8, addend: 0x0, symName: __ZN18SingleJetCorrector8GetValueENS_4TypeE, symObjAddr: 0x3990, symBinAddr: 0x100007AF0, symSize: 0x16C }
  - { offset: 0x81991, size: 0x8, addend: 0x0, symName: __ZNSt3__16vectorIN18SingleJetCorrector4TypeENS_9allocatorIS2_EEEixB8ne180100Em, symObjAddr: 0x3AFC, symBinAddr: 0x100007C5C, symSize: 0x24 }
  - { offset: 0x819C8, size: 0x8, addend: 0x0, symName: __ZNSt3__16vectorINS0_IdNS_9allocatorIdEEEENS1_IS3_EEEixB8ne180100Em, symObjAddr: 0x3B20, symBinAddr: 0x100007C80, symSize: 0x2C }
  - { offset: 0x819FF, size: 0x8, addend: 0x0, symName: __ZNSt3__16vectorIP3TF1NS_9allocatorIS2_EEEixB8ne180100Em, symObjAddr: 0x3B4C, symBinAddr: 0x100007CAC, symSize: 0x24 }
  - { offset: 0x81A36, size: 0x8, addend: 0x0, symName: __ZN7TObjectnwEm, symObjAddr: 0x3B70, symBinAddr: 0x100007CD0, symSize: 0x24 }
  - { offset: 0x81A58, size: 0x8, addend: 0x0, symName: __Z21DoHungarianAssignmentiPA500_dPi, symObjAddr: 0x3CB0, symBinAddr: 0x100007E10, symSize: 0x678 }
  - { offset: 0x81C30, size: 0x8, addend: 0x0, symName: __Z22DoHungarianSubtractioniPA500_dPi, symObjAddr: 0x4328, symBinAddr: 0x100008488, symSize: 0x61C }
  - { offset: 0x81DCB, size: 0x8, addend: 0x0, symName: __ZNSt3__15dequeIiNS_9allocatorIiEEEC1B8ne180100Ev, symObjAddr: 0x4944, symBinAddr: 0x100008AA4, symSize: 0x2C }
  - { offset: 0x81DF5, size: 0x8, addend: 0x0, symName: __ZNSt3__15dequeIiNS_9allocatorIiEEE9push_backERKi, symObjAddr: 0x4970, symBinAddr: 0x100008AD0, symSize: 0xAC }
  - { offset: 0x81E3B, size: 0x8, addend: 0x0, symName: __ZNKSt3__15dequeIiNS_9allocatorIiEEE4sizeB8ne180100Ev, symObjAddr: 0x4A1C, symBinAddr: 0x100008B7C, symSize: 0x28 }
  - { offset: 0x81E61, size: 0x8, addend: 0x0, symName: __ZNSt3__15dequeIiNS_9allocatorIiEEEixEm, symObjAddr: 0x4A44, symBinAddr: 0x100008BA4, symSize: 0x5C }
  - { offset: 0x81EA7, size: 0x8, addend: 0x0, symName: __ZNSt3__15dequeIiNS_9allocatorIiEEE9pop_frontEv, symObjAddr: 0x4AA0, symBinAddr: 0x100008C00, symSize: 0xD4 }
  - { offset: 0x81EFC, size: 0x8, addend: 0x0, symName: __ZNSt3__15dequeIiNS_9allocatorIiEEED1B8ne180100Ev, symObjAddr: 0x4B74, symBinAddr: 0x100008CD4, symSize: 0x2C }
  - { offset: 0x81F25, size: 0x8, addend: 0x0, symName: __Z6Metric3JetS_, symObjAddr: 0x4BA0, symBinAddr: 0x100008D00, symSize: 0x1E8 }
  - { offset: 0x8202A, size: 0x8, addend: 0x0, symName: _main, symObjAddr: 0x4D88, symBinAddr: 0x100008EE8, symSize: 0x4A10 }
  - { offset: 0x82FC5, size: 0x8, addend: 0x0, symName: __ZNSt3__16vectorI3JetNS_9allocatorIS1_EEEC1B8ne180100Ev, symObjAddr: 0x9798, symBinAddr: 0x10000D8F8, symSize: 0x2C }
  - { offset: 0x82FEF, size: 0x8, addend: 0x0, symName: __ZNSt3__16vectorIP4TH1FNS_9allocatorIS2_EEEC1B8ne180100Ev, symObjAddr: 0x97C4, symBinAddr: 0x10000D924, symSize: 0x2C }
  - { offset: 0x83019, size: 0x8, addend: 0x0, symName: __ZNSt3__16vectorIP4TH2FNS_9allocatorIS2_EEEC1B8ne180100Ev, symObjAddr: 0x97F0, symBinAddr: 0x10000D950, symSize: 0x2C }
  - { offset: 0x83043, size: 0x8, addend: 0x0, symName: __ZNSt3__16vectorINS0_IP4TH2FNS_9allocatorIS2_EEEENS3_IS5_EEEC1B8ne180100Ev, symObjAddr: 0x981C, symBinAddr: 0x10000D97C, symSize: 0x2C }
  - { offset: 0x8306D, size: 0x8, addend: 0x0, symName: __ZNSt3__16vectorI10FourVectorNS_9allocatorIS1_EEEC1B8ne180100Ev, symObjAddr: 0x9848, symBinAddr: 0x10000D9A8, symSize: 0x2C }
  - { offset: 0x83097, size: 0x8, addend: 0x0, symName: __ZNSt3__16vectorIdNS_9allocatorIdEEEC1B8ne180100ESt16initializer_listIdE, symObjAddr: 0x9874, symBinAddr: 0x10000D9D4, symSize: 0x3C }
  - { offset: 0x830D2, size: 0x8, addend: 0x0, symName: __ZNSt3__16vectorINS_12basic_stringIcNS_11char_traitsIcEENS_9allocatorIcEEEENS4_IS6_EEEC1B8ne180100ESt16initializer_listIS6_E, symObjAddr: 0x98B0, symBinAddr: 0x10000DA10, symSize: 0x3C }
  - { offset: 0x8310D, size: 0x8, addend: 0x0, symName: __ZN12JetCorrectorC1ENSt3__16vectorINS0_12basic_stringIcNS0_11char_traitsIcEENS0_9allocatorIcEEEENS5_IS7_EEEE, symObjAddr: 0x98EC, symBinAddr: 0x10000DA4C, symSize: 0x34 }
  - { offset: 0x83146, size: 0x8, addend: 0x0, symName: __ZNSt3__16vectorIP4TH1FNS_9allocatorIS2_EEE9push_backB8ne180100EOS2_, symObjAddr: 0x9920, symBinAddr: 0x10000DA80, symSize: 0x90 }
  - { offset: 0x8318C, size: 0x8, addend: 0x0, symName: __ZNSt3__16vectorIP4TH2FNS_9allocatorIS2_EEE9push_backB8ne180100EOS2_, symObjAddr: 0x99B0, symBinAddr: 0x10000DB10, symSize: 0x90 }
  - { offset: 0x831D2, size: 0x8, addend: 0x0, symName: __ZNK7TStringcvPKcEv, symObjAddr: 0x9A40, symBinAddr: 0x10000DBA0, symSize: 0x24 }
  - { offset: 0x831F8, size: 0x8, addend: 0x0, symName: __ZNSt3__16vectorIP4TH1FNS_9allocatorIS2_EEEixB8ne180100Em, symObjAddr: 0x9A64, symBinAddr: 0x10000DBC4, symSize: 0x24 }
  - { offset: 0x8322F, size: 0x8, addend: 0x0, symName: __ZNSt3__16vectorINS0_IP4TH2FNS_9allocatorIS2_EEEENS3_IS5_EEE9push_backB8ne180100ERKS5_, symObjAddr: 0x9A88, symBinAddr: 0x10000DBE8, symSize: 0x90 }
  - { offset: 0x83275, size: 0x8, addend: 0x0, symName: __ZNSt3__16vectorIP4TH2FNS_9allocatorIS2_EEED1B8ne180100Ev, symObjAddr: 0x9B18, symBinAddr: 0x10000DC78, symSize: 0x2C }
  - { offset: 0x8329F, size: 0x8, addend: 0x0, symName: __ZNKSt3__16vectorINS0_IP4TH2FNS_9allocatorIS2_EEEENS3_IS5_EEE4sizeB8ne180100Ev, symObjAddr: 0x9B44, symBinAddr: 0x10000DCA4, symSize: 0x28 }
  - { offset: 0x832C5, size: 0x8, addend: 0x0, symName: __ZNSt3__16vectorINS0_IP4TH2FNS_9allocatorIS2_EEEENS3_IS5_EEEixB8ne180100Em, symObjAddr: 0x9B6C, symBinAddr: 0x10000DCCC, symSize: 0x2C }
  - { offset: 0x832FC, size: 0x8, addend: 0x0, symName: __ZNKSt3__16vectorIP4TH2FNS_9allocatorIS2_EEE4sizeB8ne180100Ev, symObjAddr: 0x9B98, symBinAddr: 0x10000DCF8, symSize: 0x28 }
  - { offset: 0x83322, size: 0x8, addend: 0x0, symName: __ZNSt3__16vectorIP4TH2FNS_9allocatorIS2_EEEixB8ne180100Em, symObjAddr: 0x9BC0, symBinAddr: 0x10000DD20, symSize: 0x24 }
  - { offset: 0x8335E, size: 0x8, addend: 0x0, symName: __ZN5TTree16SetBranchAddressIfEEiPKcPT_PP7TBranch, symObjAddr: 0x9BE4, symBinAddr: 0x10000DD44, symSize: 0xA4 }
  - { offset: 0x833D8, size: 0x8, addend: 0x0, symName: __ZN5TTree16SetBranchAddressIiEEiPKcPT_PP7TBranch, symObjAddr: 0x9C88, symBinAddr: 0x10000DDE8, symSize: 0xA4 }
  - { offset: 0x83452, size: 0x8, addend: 0x0, symName: __ZNSt3__16vectorI3JetNS_9allocatorIS1_EEE5clearB8ne180100Ev, symObjAddr: 0x9D58, symBinAddr: 0x10000DEB8, symSize: 0x44 }
  - { offset: 0x83487, size: 0x8, addend: 0x0, symName: __ZNSt3__16vectorI10FourVectorNS_9allocatorIS1_EEE5clearB8ne180100Ev, symObjAddr: 0x9D9C, symBinAddr: 0x10000DEFC, symSize: 0x44 }
  - { offset: 0x834BC, size: 0x8, addend: 0x0, symName: __ZNSt3__16vectorI10FourVectorNS_9allocatorIS1_EEE9push_backB8ne180100ERKS1_, symObjAddr: 0x9E70, symBinAddr: 0x10000DFD0, symSize: 0x90 }
  - { offset: 0x83502, size: 0x8, addend: 0x0, symName: __ZNSt3__16vectorIP4NodeNS_9allocatorIS2_EEEC1B8ne180100Ev, symObjAddr: 0x9F00, symBinAddr: 0x10000E060, symSize: 0x2C }
  - { offset: 0x8352C, size: 0x8, addend: 0x0, symName: __ZNKSt3__16vectorI10FourVectorNS_9allocatorIS1_EEE4sizeB8ne180100Ev, symObjAddr: 0x9F2C, symBinAddr: 0x10000E08C, symSize: 0x28 }
  - { offset: 0x83552, size: 0x8, addend: 0x0, symName: __ZNSt3__16vectorI10FourVectorNS_9allocatorIS1_EEEixB8ne180100Em, symObjAddr: 0x9F54, symBinAddr: 0x10000E0B4, symSize: 0x24 }
  - { offset: 0x83589, size: 0x8, addend: 0x0, symName: __ZNSt3__16vectorIP4NodeNS_9allocatorIS2_EEE9push_backB8ne180100ERKS2_, symObjAddr: 0x9F78, symBinAddr: 0x10000E0D8, symSize: 0x90 }
  - { offset: 0x835CF, size: 0x8, addend: 0x0, symName: __ZNKSt3__16vectorIP4NodeNS_9allocatorIS2_EEE4sizeB8ne180100Ev, symObjAddr: 0xA008, symBinAddr: 0x10000E168, symSize: 0x28 }
  - { offset: 0x835F4, size: 0x8, addend: 0x0, symName: __Z8SoftDropP4Nodeddd, symObjAddr: 0xA030, symBinAddr: 0x10000E190, symSize: 0x2EC }
  - { offset: 0x836B9, size: 0x8, addend: 0x0, symName: __ZNSt3__16vectorIP4NodeNS_9allocatorIS2_EEEixB8ne180100Em, symObjAddr: 0xA31C, symBinAddr: 0x10000E47C, symSize: 0x24 }
  - { offset: 0x836F6, size: 0x8, addend: 0x0, symName: __ZNSt3__16vectorI3JetNS_9allocatorIS1_EEE12emplace_backIJS1_EEERS1_DpOT_, symObjAddr: 0xA36C, symBinAddr: 0x10000E4CC, symSize: 0x98 }
  - { offset: 0x83747, size: 0x8, addend: 0x0, symName: __ZN3JetC1Eddddd, symObjAddr: 0xA404, symBinAddr: 0x10000E564, symSize: 0x54 }
  - { offset: 0x837B7, size: 0x8, addend: 0x0, symName: __ZNSt3__16vectorIP4NodeNS_9allocatorIS2_EEED1B8ne180100Ev, symObjAddr: 0xA458, symBinAddr: 0x10000E5B8, symSize: 0x2C }
  - { offset: 0x837E1, size: 0x8, addend: 0x0, symName: __ZN12JetCorrector7SetJetEEd, symObjAddr: 0xA4CC, symBinAddr: 0x10000E62C, symSize: 0x20 }
  - { offset: 0x83815, size: 0x8, addend: 0x0, symName: __ZN12JetCorrector11SetJetThetaEd, symObjAddr: 0xA4EC, symBinAddr: 0x10000E64C, symSize: 0x20 }
  - { offset: 0x83849, size: 0x8, addend: 0x0, symName: __ZN12JetCorrector9SetJetPhiEd, symObjAddr: 0xA50C, symBinAddr: 0x10000E66C, symSize: 0x20 }
  - { offset: 0x8387C, size: 0x8, addend: 0x0, symName: __Z18MatchJetsHungarianI3JetS0_ENSt3__13mapIiiNS1_4lessIiEENS1_9allocatorINS1_4pairIKiiEEEEEEPFdT_T0_ENS1_6vectorISB_NS5_ISB_EEEENSF_ISC_NS5_ISC_EEEE, symObjAddr: 0xA52C, symBinAddr: 0x10000E68C, symSize: 0x6CC }
  - { offset: 0x83AB4, size: 0x8, addend: 0x0, symName: __ZNSt3__16vectorI3JetNS_9allocatorIS1_EEEC1ERKS4_, symObjAddr: 0xABF8, symBinAddr: 0x10000ED58, symSize: 0x34 }
  - { offset: 0x83AEF, size: 0x8, addend: 0x0, symName: __ZNSt3__16vectorI3JetNS_9allocatorIS1_EEED1B8ne180100Ev, symObjAddr: 0xAC2C, symBinAddr: 0x10000ED8C, symSize: 0x2C }
  - { offset: 0x83B19, size: 0x8, addend: 0x0, symName: __ZNKSt3__16vectorI3JetNS_9allocatorIS1_EEE4sizeB8ne180100Ev, symObjAddr: 0xAC58, symBinAddr: 0x10000EDB8, symSize: 0x28 }
  - { offset: 0x83B3F, size: 0x8, addend: 0x0, symName: __ZNSt3__16vectorIbNS_9allocatorIbEEEC1EmRKb, symObjAddr: 0xAC80, symBinAddr: 0x10000EDE0, symSize: 0x3C }
  - { offset: 0x83B89, size: 0x8, addend: 0x0, symName: __ZNSt3__13mapIiiNS_4lessIiEENS_9allocatorINS_4pairIKiiEEEEE5beginB8ne180100Ev, symObjAddr: 0xACBC, symBinAddr: 0x10000EE1C, symSize: 0x38 }
  - { offset: 0x83BAF, size: 0x8, addend: 0x0, symName: __ZNSt3__13mapIiiNS_4lessIiEENS_9allocatorINS_4pairIKiiEEEEE3endB8ne180100Ev, symObjAddr: 0xACF4, symBinAddr: 0x10000EE54, symSize: 0x38 }
  - { offset: 0x83BD5, size: 0x8, addend: 0x0, symName: __ZNKSt3__114__map_iteratorINS_15__tree_iteratorINS_12__value_typeIiiEEPNS_11__tree_nodeIS3_PvEElEEEdeB8ne180100Ev, symObjAddr: 0xAD5C, symBinAddr: 0x10000EEBC, symSize: 0x28 }
  - { offset: 0x83BFB, size: 0x8, addend: 0x0, symName: __ZNSt3__16vectorI3JetNS_9allocatorIS1_EEEixB8ne180100Em, symObjAddr: 0xAD84, symBinAddr: 0x10000EEE4, symSize: 0x2C }
  - { offset: 0x83C32, size: 0x8, addend: 0x0, symName: __ZNSt3__16vectorIbNS_9allocatorIbEEEixB8ne180100Em, symObjAddr: 0xADB0, symBinAddr: 0x10000EF10, symSize: 0x3C }
  - { offset: 0x83C67, size: 0x8, addend: 0x0, symName: __ZNSt3__115__bit_referenceINS_6vectorIbNS_9allocatorIbEEEELb1EEaSB8ne180100Eb, symObjAddr: 0xADEC, symBinAddr: 0x10000EF4C, symSize: 0x6C }
  - { offset: 0x83C9B, size: 0x8, addend: 0x0, symName: __ZNKSt3__115__bit_referenceINS_6vectorIbNS_9allocatorIbEEEELb1EEcvbB8ne180100Ev, symObjAddr: 0xAE58, symBinAddr: 0x10000EFB8, symSize: 0x2C }
  - { offset: 0x83CC1, size: 0x8, addend: 0x0, symName: __ZNSt3__114__map_iteratorINS_15__tree_iteratorINS_12__value_typeIiiEEPNS_11__tree_nodeIS3_PvEElEEEppB8ne180100Ev, symObjAddr: 0xAE84, symBinAddr: 0x10000EFE4, symSize: 0x2C }
  - { offset: 0x83CE7, size: 0x8, addend: 0x0, symName: __ZNSt3__16vectorIbNS_9allocatorIbEEED1B8ne180100Ev, symObjAddr: 0xAEB0, symBinAddr: 0x10000F010, symSize: 0x2C }
  - { offset: 0x83D11, size: 0x8, addend: 0x0, symName: __ZNSt3__13mapIiiNS_4lessIiEENS_9allocatorINS_4pairIKiiEEEEED1B8ne180100Ev, symObjAddr: 0xAEDC, symBinAddr: 0x10000F03C, symSize: 0x2C }
  - { offset: 0x83D3B, size: 0x8, addend: 0x0, symName: __ZN12JetCorrectorD1Ev, symObjAddr: 0xAF08, symBinAddr: 0x10000F068, symSize: 0x2C }
  - { offset: 0x83D67, size: 0x8, addend: 0x0, symName: __ZNSt3__16vectorI10FourVectorNS_9allocatorIS1_EEED1B8ne180100Ev, symObjAddr: 0xAF34, symBinAddr: 0x10000F094, symSize: 0x2C }
  - { offset: 0x83D91, size: 0x8, addend: 0x0, symName: __ZNSt3__16vectorINS0_IP4TH2FNS_9allocatorIS2_EEEENS3_IS5_EEED1B8ne180100Ev, symObjAddr: 0xAF60, symBinAddr: 0x10000F0C0, symSize: 0x2C }
  - { offset: 0x83DBB, size: 0x8, addend: 0x0, symName: __ZNSt3__16vectorIP4TH1FNS_9allocatorIS2_EEED1B8ne180100Ev, symObjAddr: 0xAF8C, symBinAddr: 0x10000F0EC, symSize: 0x2C }
  - { offset: 0x83DE5, size: 0x8, addend: 0x0, symName: __ZNKSt3__111__wrap_iterIPNS_12basic_stringIcNS_11char_traitsIcEENS_9allocatorIcEEEEE4baseB8ne180100Ev, symObjAddr: 0xB000, symBinAddr: 0x10000F160, symSize: 0x18 }
  - { offset: 0x83E0B, size: 0x8, addend: 0x0, symName: __ZN18SingleJetCorrectorC2ENSt3__112basic_stringIcNS0_11char_traitsIcEENS0_9allocatorIcEEEE, symObjAddr: 0xB018, symBinAddr: 0x10000F178, symSize: 0x138 }
  - { offset: 0x83E44, size: 0x8, addend: 0x0, symName: __ZNSt3__16vectorINS0_IdNS_9allocatorIdEEEENS1_IS3_EEEC1B8ne180100Ev, symObjAddr: 0xB150, symBinAddr: 0x10000F2B0, symSize: 0x2C }
  - { offset: 0x83E6E, size: 0x8, addend: 0x0, symName: __ZNSt3__16vectorINS0_IN18SingleJetCorrector4TypeENS_9allocatorIS2_EEEENS3_IS5_EEEC1B8ne180100Ev, symObjAddr: 0xB17C, symBinAddr: 0x10000F2DC, symSize: 0x2C }
  - { offset: 0x83E98, size: 0x8, addend: 0x0, symName: __ZNSt3__16vectorIP3TF1NS_9allocatorIS2_EEEC1B8ne180100Ev, symObjAddr: 0xB1A8, symBinAddr: 0x10000F308, symSize: 0x2C }
  - { offset: 0x83EC2, size: 0x8, addend: 0x0, symName: __ZNSt3__16vectorIP3TF1NS_9allocatorIS2_EEED1B8ne180100Ev, symObjAddr: 0xB1D4, symBinAddr: 0x10000F334, symSize: 0x2C }
  - { offset: 0x83EEC, size: 0x8, addend: 0x0, symName: __ZNSt3__16vectorINS0_IdNS_9allocatorIdEEEENS1_IS3_EEED1B8ne180100Ev, symObjAddr: 0xB200, symBinAddr: 0x10000F360, symSize: 0x2C }
  - { offset: 0x83F16, size: 0x8, addend: 0x0, symName: __ZNSt3__16vectorINS0_IN18SingleJetCorrector4TypeENS_9allocatorIS2_EEEENS3_IS5_EEED1B8ne180100Ev, symObjAddr: 0xB22C, symBinAddr: 0x10000F38C, symSize: 0x2C }
  - { offset: 0x83F40, size: 0x8, addend: 0x0, symName: __ZNSt3__16vectorINS0_IdNS_9allocatorIdEEEENS1_IS3_EEEC2B8ne180100Ev, symObjAddr: 0xB258, symBinAddr: 0x10000F3B8, symSize: 0x4C }
  - { offset: 0x83F76, size: 0x8, addend: 0x0, symName: __ZNSt3__117__compressed_pairIPNS_6vectorIdNS_9allocatorIdEEEENS2_IS4_EEEC1B8ne180100IDnNS_18__default_init_tagEEEOT_OT0_, symObjAddr: 0xB2A4, symBinAddr: 0x10000F404, symSize: 0x3C }
  - { offset: 0x83FCE, size: 0x8, addend: 0x0, symName: __ZNSt3__117__compressed_pairIPNS_6vectorIdNS_9allocatorIdEEEENS2_IS4_EEEC2B8ne180100IDnNS_18__default_init_tagEEEOT_OT0_, symObjAddr: 0xB2F0, symBinAddr: 0x10000F450, symSize: 0x40 }
  - { offset: 0x84026, size: 0x8, addend: 0x0, symName: __ZNSt3__122__compressed_pair_elemIPNS_6vectorIdNS_9allocatorIdEEEELi0ELb0EEC2B8ne180100IDnvEEOT_, symObjAddr: 0xB330, symBinAddr: 0x10000F490, symSize: 0x1C }
  - { offset: 0x84068, size: 0x8, addend: 0x0, symName: __ZNSt3__122__compressed_pair_elemINS_9allocatorINS_6vectorIdNS1_IdEEEEEELi1ELb1EEC2B8ne180100ENS_18__default_init_tagE, symObjAddr: 0xB34C, symBinAddr: 0x10000F4AC, symSize: 0x2C }
  - { offset: 0x8409D, size: 0x8, addend: 0x0, symName: __ZNSt3__19allocatorINS_6vectorIdNS0_IdEEEEEC2B8ne180100Ev, symObjAddr: 0xB378, symBinAddr: 0x10000F4D8, symSize: 0x2C }
  - { offset: 0x840C7, size: 0x8, addend: 0x0, symName: __ZNSt3__116__non_trivial_ifILb1ENS_9allocatorINS_6vectorIdNS1_IdEEEEEEEC2B8ne180100Ev, symObjAddr: 0xB3A4, symBinAddr: 0x10000F504, symSize: 0x14 }
  - { offset: 0x840F1, size: 0x8, addend: 0x0, symName: __ZNSt3__16vectorINS0_IN18SingleJetCorrector4TypeENS_9allocatorIS2_EEEENS3_IS5_EEEC2B8ne180100Ev, symObjAddr: 0xB3B8, symBinAddr: 0x10000F518, symSize: 0x4C }
  - { offset: 0x8411B, size: 0x8, addend: 0x0, symName: __ZNSt3__117__compressed_pairIPNS_6vectorIN18SingleJetCorrector4TypeENS_9allocatorIS3_EEEENS4_IS6_EEEC1B8ne180100IDnNS_18__default_init_tagEEEOT_OT0_, symObjAddr: 0xB404, symBinAddr: 0x10000F564, symSize: 0x3C }
  - { offset: 0x84173, size: 0x8, addend: 0x0, symName: __ZNSt3__117__compressed_pairIPNS_6vectorIN18SingleJetCorrector4TypeENS_9allocatorIS3_EEEENS4_IS6_EEEC2B8ne180100IDnNS_18__default_init_tagEEEOT_OT0_, symObjAddr: 0xB440, symBinAddr: 0x10000F5A0, symSize: 0x40 }
  - { offset: 0x841CB, size: 0x8, addend: 0x0, symName: __ZNSt3__122__compressed_pair_elemIPNS_6vectorIN18SingleJetCorrector4TypeENS_9allocatorIS3_EEEELi0ELb0EEC2B8ne180100IDnvEEOT_, symObjAddr: 0xB480, symBinAddr: 0x10000F5E0, symSize: 0x1C }
  - { offset: 0x8420D, size: 0x8, addend: 0x0, symName: __ZNSt3__122__compressed_pair_elemINS_9allocatorINS_6vectorIN18SingleJetCorrector4TypeENS1_IS4_EEEEEELi1ELb1EEC2B8ne180100ENS_18__default_init_tagE, symObjAddr: 0xB49C, symBinAddr: 0x10000F5FC, symSize: 0x2C }
  - { offset: 0x84242, size: 0x8, addend: 0x0, symName: __ZNSt3__19allocatorINS_6vectorIN18SingleJetCorrector4TypeENS0_IS3_EEEEEC2B8ne180100Ev, symObjAddr: 0xB4C8, symBinAddr: 0x10000F628, symSize: 0x2C }
  - { offset: 0x8426C, size: 0x8, addend: 0x0, symName: __ZNSt3__116__non_trivial_ifILb1ENS_9allocatorINS_6vectorIN18SingleJetCorrector4TypeENS1_IS4_EEEEEEEC2B8ne180100Ev, symObjAddr: 0xB4F4, symBinAddr: 0x10000F654, symSize: 0x14 }
  - { offset: 0x84296, size: 0x8, addend: 0x0, symName: __ZNSt3__16vectorIP3TF1NS_9allocatorIS2_EEEC2B8ne180100Ev, symObjAddr: 0xB508, symBinAddr: 0x10000F668, symSize: 0x4C }
  - { offset: 0x842C0, size: 0x8, addend: 0x0, symName: __ZNSt3__117__compressed_pairIPP3TF1NS_9allocatorIS2_EEEC1B8ne180100IDnNS_18__default_init_tagEEEOT_OT0_, symObjAddr: 0xB554, symBinAddr: 0x10000F6B4, symSize: 0x3C }
  - { offset: 0x84318, size: 0x8, addend: 0x0, symName: __ZNSt3__117__compressed_pairIPP3TF1NS_9allocatorIS2_EEEC2B8ne180100IDnNS_18__default_init_tagEEEOT_OT0_, symObjAddr: 0xB590, symBinAddr: 0x10000F6F0, symSize: 0x40 }
  - { offset: 0x84370, size: 0x8, addend: 0x0, symName: __ZNSt3__122__compressed_pair_elemIPP3TF1Li0ELb0EEC2B8ne180100IDnvEEOT_, symObjAddr: 0xB5D0, symBinAddr: 0x10000F730, symSize: 0x1C }
  - { offset: 0x843B2, size: 0x8, addend: 0x0, symName: __ZNSt3__122__compressed_pair_elemINS_9allocatorIP3TF1EELi1ELb1EEC2B8ne180100ENS_18__default_init_tagE, symObjAddr: 0xB5EC, symBinAddr: 0x10000F74C, symSize: 0x2C }
  - { offset: 0x843E7, size: 0x8, addend: 0x0, symName: __ZNSt3__19allocatorIP3TF1EC2B8ne180100Ev, symObjAddr: 0xB618, symBinAddr: 0x10000F778, symSize: 0x2C }
  - { offset: 0x84411, size: 0x8, addend: 0x0, symName: __ZNSt3__116__non_trivial_ifILb1ENS_9allocatorIP3TF1EEEC2B8ne180100Ev, symObjAddr: 0xB644, symBinAddr: 0x10000F7A4, symSize: 0x14 }
  - { offset: 0x8443B, size: 0x8, addend: 0x0, symName: __ZNSt3__16vectorIP3TF1NS_9allocatorIS2_EEED2B8ne180100Ev, symObjAddr: 0xB658, symBinAddr: 0x10000F7B8, symSize: 0x44 }
  - { offset: 0x84465, size: 0x8, addend: 0x0, symName: __ZNSt3__16vectorIP3TF1NS_9allocatorIS2_EEE16__destroy_vectorC1B8ne180100ERS5_, symObjAddr: 0xB69C, symBinAddr: 0x10000F7FC, symSize: 0x34 }
  - { offset: 0x8449E, size: 0x8, addend: 0x0, symName: __ZNSt3__16vectorIP3TF1NS_9allocatorIS2_EEE16__destroy_vectorclB8ne180100Ev, symObjAddr: 0xB6D0, symBinAddr: 0x10000F830, symSize: 0x90 }
  - { offset: 0x844C4, size: 0x8, addend: 0x0, symName: __ZNSt3__16vectorIP3TF1NS_9allocatorIS2_EEE16__destroy_vectorC2B8ne180100ERS5_, symObjAddr: 0xB760, symBinAddr: 0x10000F8C0, symSize: 0x20 }
  - { offset: 0x844FD, size: 0x8, addend: 0x0, symName: __ZNSt3__16vectorIP3TF1NS_9allocatorIS2_EEE7__clearB8ne180100Ev, symObjAddr: 0xB780, symBinAddr: 0x10000F8E0, symSize: 0x28 }
  - { offset: 0x84523, size: 0x8, addend: 0x0, symName: __ZNKSt3__16vectorIP3TF1NS_9allocatorIS2_EEE17__annotate_deleteB8ne180100Ev, symObjAddr: 0xB7A8, symBinAddr: 0x10000F908, symSize: 0x10 }
  - { offset: 0x84549, size: 0x8, addend: 0x0, symName: __ZNSt3__116allocator_traitsINS_9allocatorIP3TF1EEE10deallocateB8ne180100ERS4_PS3_m, symObjAddr: 0xB7B8, symBinAddr: 0x10000F918, symSize: 0x34 }
  - { offset: 0x8458B, size: 0x8, addend: 0x0, symName: __ZNSt3__16vectorIP3TF1NS_9allocatorIS2_EEE7__allocB8ne180100Ev, symObjAddr: 0xB7EC, symBinAddr: 0x10000F94C, symSize: 0x28 }
  - { offset: 0x845B1, size: 0x8, addend: 0x0, symName: __ZNKSt3__16vectorIP3TF1NS_9allocatorIS2_EEE8capacityB8ne180100Ev, symObjAddr: 0xB814, symBinAddr: 0x10000F974, symSize: 0x40 }
  - { offset: 0x845D7, size: 0x8, addend: 0x0, symName: __ZNSt3__16vectorIP3TF1NS_9allocatorIS2_EEE22__base_destruct_at_endB8ne180100EPS2_, symObjAddr: 0xB854, symBinAddr: 0x10000F9B4, symSize: 0x8C }
  - { offset: 0x8461B, size: 0x8, addend: 0x0, symName: __ZNSt3__116allocator_traitsINS_9allocatorIP3TF1EEE7destroyB8ne180100IS3_vEEvRS4_PT_, symObjAddr: 0xB8E0, symBinAddr: 0x10000FA40, symSize: 0x2C }
  - { offset: 0x84658, size: 0x8, addend: 0x0, symName: __ZNSt3__19allocatorIP3TF1E7destroyB8ne180100EPS2_, symObjAddr: 0xB920, symBinAddr: 0x10000FA80, symSize: 0x14 }
  - { offset: 0x8468C, size: 0x8, addend: 0x0, symName: __ZNSt3__19allocatorIP3TF1E10deallocateB8ne180100EPS2_m, symObjAddr: 0xB934, symBinAddr: 0x10000FA94, symSize: 0x40 }
  - { offset: 0x846CE, size: 0x8, addend: 0x0, symName: __ZNSt3__117__compressed_pairIPP3TF1NS_9allocatorIS2_EEE6secondB8ne180100Ev, symObjAddr: 0xBA9C, symBinAddr: 0x10000FBFC, symSize: 0x24 }
  - { offset: 0x846F4, size: 0x8, addend: 0x0, symName: __ZNSt3__122__compressed_pair_elemINS_9allocatorIP3TF1EELi1ELb1EE5__getB8ne180100Ev, symObjAddr: 0xBAC0, symBinAddr: 0x10000FC20, symSize: 0x14 }
  - { offset: 0x8471A, size: 0x8, addend: 0x0, symName: __ZNKSt3__16vectorIP3TF1NS_9allocatorIS2_EEE9__end_capB8ne180100Ev, symObjAddr: 0xBAD4, symBinAddr: 0x10000FC34, symSize: 0x28 }
  - { offset: 0x84740, size: 0x8, addend: 0x0, symName: __ZNKSt3__117__compressed_pairIPP3TF1NS_9allocatorIS2_EEE5firstB8ne180100Ev, symObjAddr: 0xBAFC, symBinAddr: 0x10000FC5C, symSize: 0x24 }
  - { offset: 0x84766, size: 0x8, addend: 0x0, symName: __ZNKSt3__122__compressed_pair_elemIPP3TF1Li0ELb0EE5__getB8ne180100Ev, symObjAddr: 0xBB20, symBinAddr: 0x10000FC80, symSize: 0x14 }
  - { offset: 0x8478C, size: 0x8, addend: 0x0, symName: __ZNSt3__16vectorINS0_IdNS_9allocatorIdEEEENS1_IS3_EEED2B8ne180100Ev, symObjAddr: 0xBB34, symBinAddr: 0x10000FC94, symSize: 0x44 }
  - { offset: 0x847B6, size: 0x8, addend: 0x0, symName: __ZNSt3__16vectorINS0_IdNS_9allocatorIdEEEENS1_IS3_EEE16__destroy_vectorC1B8ne180100ERS5_, symObjAddr: 0xBB78, symBinAddr: 0x10000FCD8, symSize: 0x34 }
  - { offset: 0x847EF, size: 0x8, addend: 0x0, symName: __ZNSt3__16vectorINS0_IdNS_9allocatorIdEEEENS1_IS3_EEE16__destroy_vectorclB8ne180100Ev, symObjAddr: 0xBBAC, symBinAddr: 0x10000FD0C, symSize: 0x90 }
  - { offset: 0x84815, size: 0x8, addend: 0x0, symName: __ZNSt3__16vectorINS0_IdNS_9allocatorIdEEEENS1_IS3_EEE16__destroy_vectorC2B8ne180100ERS5_, symObjAddr: 0xBC3C, symBinAddr: 0x10000FD9C, symSize: 0x20 }
  - { offset: 0x8484E, size: 0x8, addend: 0x0, symName: __ZNSt3__16vectorINS0_IdNS_9allocatorIdEEEENS1_IS3_EEE7__clearB8ne180100Ev, symObjAddr: 0xBC5C, symBinAddr: 0x10000FDBC, symSize: 0x28 }
  - { offset: 0x84874, size: 0x8, addend: 0x0, symName: __ZNKSt3__16vectorINS0_IdNS_9allocatorIdEEEENS1_IS3_EEE17__annotate_deleteB8ne180100Ev, symObjAddr: 0xBC84, symBinAddr: 0x10000FDE4, symSize: 0x10 }
  - { offset: 0x8489A, size: 0x8, addend: 0x0, symName: __ZNSt3__116allocator_traitsINS_9allocatorINS_6vectorIdNS1_IdEEEEEEE10deallocateB8ne180100ERS5_PS4_m, symObjAddr: 0xBC94, symBinAddr: 0x10000FDF4, symSize: 0x34 }
  - { offset: 0x848DC, size: 0x8, addend: 0x0, symName: __ZNSt3__16vectorINS0_IdNS_9allocatorIdEEEENS1_IS3_EEE7__allocB8ne180100Ev, symObjAddr: 0xBCC8, symBinAddr: 0x10000FE28, symSize: 0x28 }
  - { offset: 0x84902, size: 0x8, addend: 0x0, symName: __ZNKSt3__16vectorINS0_IdNS_9allocatorIdEEEENS1_IS3_EEE8capacityB8ne180100Ev, symObjAddr: 0xBCF0, symBinAddr: 0x10000FE50, symSize: 0x40 }
  - { offset: 0x84928, size: 0x8, addend: 0x0, symName: __ZNSt3__16vectorINS0_IdNS_9allocatorIdEEEENS1_IS3_EEE22__base_destruct_at_endB8ne180100EPS3_, symObjAddr: 0xBD30, symBinAddr: 0x10000FE90, symSize: 0x8C }
  - { offset: 0x8496C, size: 0x8, addend: 0x0, symName: __ZNSt3__116allocator_traitsINS_9allocatorINS_6vectorIdNS1_IdEEEEEEE7destroyB8ne180100IS4_vEEvRS5_PT_, symObjAddr: 0xBDBC, symBinAddr: 0x10000FF1C, symSize: 0x2C }
  - { offset: 0x849A9, size: 0x8, addend: 0x0, symName: __ZNSt3__19allocatorINS_6vectorIdNS0_IdEEEEE7destroyB8ne180100EPS3_, symObjAddr: 0xBDFC, symBinAddr: 0x10000FF5C, symSize: 0x28 }
  - { offset: 0x849DD, size: 0x8, addend: 0x0, symName: __ZNSt3__19allocatorINS_6vectorIdNS0_IdEEEEE10deallocateB8ne180100EPS3_m, symObjAddr: 0xBE24, symBinAddr: 0x10000FF84, symSize: 0x44 }
  - { offset: 0x84A1F, size: 0x8, addend: 0x0, symName: __ZNSt3__117__compressed_pairIPNS_6vectorIdNS_9allocatorIdEEEENS2_IS4_EEE6secondB8ne180100Ev, symObjAddr: 0xBE68, symBinAddr: 0x10000FFC8, symSize: 0x24 }
  - { offset: 0x84A45, size: 0x8, addend: 0x0, symName: __ZNSt3__122__compressed_pair_elemINS_9allocatorINS_6vectorIdNS1_IdEEEEEELi1ELb1EE5__getB8ne180100Ev, symObjAddr: 0xBE8C, symBinAddr: 0x10000FFEC, symSize: 0x14 }
  - { offset: 0x84A6B, size: 0x8, addend: 0x0, symName: __ZNKSt3__16vectorINS0_IdNS_9allocatorIdEEEENS1_IS3_EEE9__end_capB8ne180100Ev, symObjAddr: 0xBEA0, symBinAddr: 0x100010000, symSize: 0x28 }
  - { offset: 0x84A91, size: 0x8, addend: 0x0, symName: __ZNKSt3__117__compressed_pairIPNS_6vectorIdNS_9allocatorIdEEEENS2_IS4_EEE5firstB8ne180100Ev, symObjAddr: 0xBEC8, symBinAddr: 0x100010028, symSize: 0x24 }
  - { offset: 0x84AB7, size: 0x8, addend: 0x0, symName: __ZNKSt3__122__compressed_pair_elemIPNS_6vectorIdNS_9allocatorIdEEEELi0ELb0EE5__getB8ne180100Ev, symObjAddr: 0xBEEC, symBinAddr: 0x10001004C, symSize: 0x14 }
  - { offset: 0x84ADD, size: 0x8, addend: 0x0, symName: __ZNSt3__16vectorINS0_IN18SingleJetCorrector4TypeENS_9allocatorIS2_EEEENS3_IS5_EEED2B8ne180100Ev, symObjAddr: 0xBF00, symBinAddr: 0x100010060, symSize: 0x44 }
  - { offset: 0x84B07, size: 0x8, addend: 0x0, symName: __ZNSt3__16vectorINS0_IN18SingleJetCorrector4TypeENS_9allocatorIS2_EEEENS3_IS5_EEE16__destroy_vectorC1B8ne180100ERS7_, symObjAddr: 0xBF44, symBinAddr: 0x1000100A4, symSize: 0x34 }
  - { offset: 0x84B40, size: 0x8, addend: 0x0, symName: __ZNSt3__16vectorINS0_IN18SingleJetCorrector4TypeENS_9allocatorIS2_EEEENS3_IS5_EEE16__destroy_vectorclB8ne180100Ev, symObjAddr: 0xBF78, symBinAddr: 0x1000100D8, symSize: 0x90 }
  - { offset: 0x84B66, size: 0x8, addend: 0x0, symName: __ZNSt3__16vectorINS0_IN18SingleJetCorrector4TypeENS_9allocatorIS2_EEEENS3_IS5_EEE16__destroy_vectorC2B8ne180100ERS7_, symObjAddr: 0xC008, symBinAddr: 0x100010168, symSize: 0x20 }
  - { offset: 0x84B9F, size: 0x8, addend: 0x0, symName: __ZNSt3__16vectorINS0_IN18SingleJetCorrector4TypeENS_9allocatorIS2_EEEENS3_IS5_EEE7__clearB8ne180100Ev, symObjAddr: 0xC028, symBinAddr: 0x100010188, symSize: 0x28 }
  - { offset: 0x84BC5, size: 0x8, addend: 0x0, symName: __ZNKSt3__16vectorINS0_IN18SingleJetCorrector4TypeENS_9allocatorIS2_EEEENS3_IS5_EEE17__annotate_deleteB8ne180100Ev, symObjAddr: 0xC050, symBinAddr: 0x1000101B0, symSize: 0x10 }
  - { offset: 0x84BEB, size: 0x8, addend: 0x0, symName: __ZNSt3__116allocator_traitsINS_9allocatorINS_6vectorIN18SingleJetCorrector4TypeENS1_IS4_EEEEEEE10deallocateB8ne180100ERS7_PS6_m, symObjAddr: 0xC060, symBinAddr: 0x1000101C0, symSize: 0x34 }
  - { offset: 0x84C2D, size: 0x8, addend: 0x0, symName: __ZNSt3__16vectorINS0_IN18SingleJetCorrector4TypeENS_9allocatorIS2_EEEENS3_IS5_EEE7__allocB8ne180100Ev, symObjAddr: 0xC094, symBinAddr: 0x1000101F4, symSize: 0x28 }
  - { offset: 0x84C53, size: 0x8, addend: 0x0, symName: __ZNKSt3__16vectorINS0_IN18SingleJetCorrector4TypeENS_9allocatorIS2_EEEENS3_IS5_EEE8capacityB8ne180100Ev, symObjAddr: 0xC0BC, symBinAddr: 0x10001021C, symSize: 0x40 }
  - { offset: 0x84C79, size: 0x8, addend: 0x0, symName: __ZNSt3__16vectorINS0_IN18SingleJetCorrector4TypeENS_9allocatorIS2_EEEENS3_IS5_EEE22__base_destruct_at_endB8ne180100EPS5_, symObjAddr: 0xC0FC, symBinAddr: 0x10001025C, symSize: 0x8C }
  - { offset: 0x84CBD, size: 0x8, addend: 0x0, symName: __ZNSt3__116allocator_traitsINS_9allocatorINS_6vectorIN18SingleJetCorrector4TypeENS1_IS4_EEEEEEE7destroyB8ne180100IS6_vEEvRS7_PT_, symObjAddr: 0xC188, symBinAddr: 0x1000102E8, symSize: 0x2C }
  - { offset: 0x84CFA, size: 0x8, addend: 0x0, symName: __ZNSt3__19allocatorINS_6vectorIN18SingleJetCorrector4TypeENS0_IS3_EEEEE7destroyB8ne180100EPS5_, symObjAddr: 0xC1C8, symBinAddr: 0x100010328, symSize: 0x28 }
  - { offset: 0x84D2E, size: 0x8, addend: 0x0, symName: __ZNSt3__19allocatorINS_6vectorIN18SingleJetCorrector4TypeENS0_IS3_EEEEE10deallocateB8ne180100EPS5_m, symObjAddr: 0xC1F0, symBinAddr: 0x100010350, symSize: 0x44 }
  - { offset: 0x84D70, size: 0x8, addend: 0x0, symName: __ZNSt3__117__compressed_pairIPNS_6vectorIN18SingleJetCorrector4TypeENS_9allocatorIS3_EEEENS4_IS6_EEE6secondB8ne180100Ev, symObjAddr: 0xC234, symBinAddr: 0x100010394, symSize: 0x24 }
  - { offset: 0x84D96, size: 0x8, addend: 0x0, symName: __ZNSt3__122__compressed_pair_elemINS_9allocatorINS_6vectorIN18SingleJetCorrector4TypeENS1_IS4_EEEEEELi1ELb1EE5__getB8ne180100Ev, symObjAddr: 0xC258, symBinAddr: 0x1000103B8, symSize: 0x14 }
  - { offset: 0x84DBC, size: 0x8, addend: 0x0, symName: __ZNKSt3__16vectorINS0_IN18SingleJetCorrector4TypeENS_9allocatorIS2_EEEENS3_IS5_EEE9__end_capB8ne180100Ev, symObjAddr: 0xC26C, symBinAddr: 0x1000103CC, symSize: 0x28 }
  - { offset: 0x84DE2, size: 0x8, addend: 0x0, symName: __ZNKSt3__117__compressed_pairIPNS_6vectorIN18SingleJetCorrector4TypeENS_9allocatorIS3_EEEENS4_IS6_EEE5firstB8ne180100Ev, symObjAddr: 0xC294, symBinAddr: 0x1000103F4, symSize: 0x24 }
  - { offset: 0x84E08, size: 0x8, addend: 0x0, symName: __ZNKSt3__122__compressed_pair_elemIPNS_6vectorIN18SingleJetCorrector4TypeENS_9allocatorIS3_EEEELi0ELb0EE5__getB8ne180100Ev, symObjAddr: 0xC2B8, symBinAddr: 0x100010418, symSize: 0x14 }
  - { offset: 0x84E2E, size: 0x8, addend: 0x0, symName: __ZN18SingleJetCorrectorD2Ev, symObjAddr: 0xC2CC, symBinAddr: 0x10001042C, symSize: 0x11C }
  - { offset: 0x84EAB, size: 0x8, addend: 0x0, symName: __ZNSt3__16vectorIP3TF1NS_9allocatorIS2_EEE5beginB8ne180100Ev, symObjAddr: 0xC3E8, symBinAddr: 0x100010548, symSize: 0x30 }
  - { offset: 0x84ED3, size: 0x8, addend: 0x0, symName: __ZNSt3__16vectorIP3TF1NS_9allocatorIS2_EEE3endB8ne180100Ev, symObjAddr: 0xC418, symBinAddr: 0x100010578, symSize: 0x30 }
  - { offset: 0x84EFB, size: 0x8, addend: 0x0, symName: __ZNKSt3__111__wrap_iterIPP3TF1EdeB8ne180100Ev, symObjAddr: 0xC47C, symBinAddr: 0x1000105DC, symSize: 0x18 }
  - { offset: 0x84F21, size: 0x8, addend: 0x0, symName: __ZNSt3__111__wrap_iterIPP3TF1EppB8ne180100Ev, symObjAddr: 0xC494, symBinAddr: 0x1000105F4, symSize: 0x20 }
  - { offset: 0x84F47, size: 0x8, addend: 0x0, symName: __ZNSt3__16vectorIP3TF1NS_9allocatorIS2_EEE11__make_iterB8ne180100EPS2_, symObjAddr: 0xC4B4, symBinAddr: 0x100010614, symSize: 0x30 }
  - { offset: 0x84F7C, size: 0x8, addend: 0x0, symName: __ZNSt3__111__wrap_iterIPP3TF1EC1B8ne180100ES3_, symObjAddr: 0xC4E4, symBinAddr: 0x100010644, symSize: 0x34 }
  - { offset: 0x84FB4, size: 0x8, addend: 0x0, symName: __ZNSt3__111__wrap_iterIPP3TF1EC2B8ne180100ES3_, symObjAddr: 0xC518, symBinAddr: 0x100010678, symSize: 0x20 }
  - { offset: 0x84FEC, size: 0x8, addend: 0x0, symName: __ZNKSt3__111__wrap_iterIPP3TF1E4baseB8ne180100Ev, symObjAddr: 0xC580, symBinAddr: 0x1000106E0, symSize: 0x18 }
  - { offset: 0x85012, size: 0x8, addend: 0x0, symName: __ZNSt3__114basic_ifstreamIcNS_11char_traitsIcEEED2Ev, symObjAddr: 0xC598, symBinAddr: 0x1000106F8, symSize: 0x64 }
  - { offset: 0x8504C, size: 0x8, addend: 0x0, symName: __ZTv0_n24_NSt3__114basic_ifstreamIcNS_11char_traitsIcEEED1Ev, symObjAddr: 0xC5FC, symBinAddr: 0x10001075C, symSize: 0x28 }
  - { offset: 0x85063, size: 0x8, addend: 0x0, symName: __ZNSt3__118basic_stringstreamIcNS_11char_traitsIcEENS_9allocatorIcEEED2Ev, symObjAddr: 0xC624, symBinAddr: 0x100010784, symSize: 0x6C }
  - { offset: 0x8509D, size: 0x8, addend: 0x0, symName: __ZThn16_NSt3__118basic_stringstreamIcNS_11char_traitsIcEENS_9allocatorIcEEED1Ev, symObjAddr: 0xC690, symBinAddr: 0x1000107F0, symSize: 0x1C }
  - { offset: 0x850B4, size: 0x8, addend: 0x0, symName: __ZTv0_n24_NSt3__118basic_stringstreamIcNS_11char_traitsIcEENS_9allocatorIcEEED1Ev, symObjAddr: 0xC6AC, symBinAddr: 0x10001080C, symSize: 0x28 }
  - { offset: 0x850D0, size: 0x8, addend: 0x0, symName: __ZNSt3__115basic_stringbufIcNS_11char_traitsIcEENS_9allocatorIcEEED1Ev, symObjAddr: 0xC6D4, symBinAddr: 0x100010834, symSize: 0x2C }
  - { offset: 0x850FD, size: 0x8, addend: 0x0, symName: __ZNSt3__115basic_stringbufIcNS_11char_traitsIcEENS_9allocatorIcEEED2Ev, symObjAddr: 0xC700, symBinAddr: 0x100010860, symSize: 0x48 }
  - { offset: 0x8512A, size: 0x8, addend: 0x0, symName: __ZNSt3__111__wrap_iterIPcEpLB8ne180100El, symObjAddr: 0xC748, symBinAddr: 0x1000108A8, symSize: 0x28 }
  - { offset: 0x8515E, size: 0x8, addend: 0x0, symName: __ZNSt3__111__wrap_iterIPKcEC2B8ne180100IPcLi0EEERKNS0_IT_EE, symObjAddr: 0xC770, symBinAddr: 0x1000108D0, symSize: 0x3C }
  - { offset: 0x851A5, size: 0x8, addend: 0x0, symName: __ZNKSt3__111__wrap_iterIPcE4baseB8ne180100Ev, symObjAddr: 0xC7AC, symBinAddr: 0x10001090C, symSize: 0x18 }
  - { offset: 0x851CB, size: 0x8, addend: 0x0, symName: __ZN12JetCorrectorC2ENSt3__16vectorINS0_12basic_stringIcNS0_11char_traitsIcEENS0_9allocatorIcEEEENS5_IS7_EEEE, symObjAddr: 0xC7C4, symBinAddr: 0x100010924, symSize: 0x98 }
  - { offset: 0x85204, size: 0x8, addend: 0x0, symName: __ZNSt3__16vectorI18SingleJetCorrectorNS_9allocatorIS1_EEEC1B8ne180100Ev, symObjAddr: 0xC85C, symBinAddr: 0x1000109BC, symSize: 0x2C }
  - { offset: 0x8522E, size: 0x8, addend: 0x0, symName: __ZNSt3__16vectorINS_12basic_stringIcNS_11char_traitsIcEENS_9allocatorIcEEEENS4_IS6_EEEC1ERKS8_, symObjAddr: 0xC888, symBinAddr: 0x1000109E8, symSize: 0x34 }
  - { offset: 0x85269, size: 0x8, addend: 0x0, symName: __ZNSt3__16vectorI18SingleJetCorrectorNS_9allocatorIS1_EEED1B8ne180100Ev, symObjAddr: 0xC8BC, symBinAddr: 0x100010A1C, symSize: 0x2C }
  - { offset: 0x85293, size: 0x8, addend: 0x0, symName: __ZNSt3__16vectorI18SingleJetCorrectorNS_9allocatorIS1_EEEC2B8ne180100Ev, symObjAddr: 0xC8E8, symBinAddr: 0x100010A48, symSize: 0x4C }
  - { offset: 0x852BD, size: 0x8, addend: 0x0, symName: __ZNSt3__117__compressed_pairIP18SingleJetCorrectorNS_9allocatorIS1_EEEC1B8ne180100IDnNS_18__default_init_tagEEEOT_OT0_, symObjAddr: 0xC934, symBinAddr: 0x100010A94, symSize: 0x3C }
  - { offset: 0x85315, size: 0x8, addend: 0x0, symName: __ZNSt3__117__compressed_pairIP18SingleJetCorrectorNS_9allocatorIS1_EEEC2B8ne180100IDnNS_18__default_init_tagEEEOT_OT0_, symObjAddr: 0xC970, symBinAddr: 0x100010AD0, symSize: 0x40 }
  - { offset: 0x8536D, size: 0x8, addend: 0x0, symName: __ZNSt3__122__compressed_pair_elemIP18SingleJetCorrectorLi0ELb0EEC2B8ne180100IDnvEEOT_, symObjAddr: 0xC9B0, symBinAddr: 0x100010B10, symSize: 0x1C }
  - { offset: 0x853AF, size: 0x8, addend: 0x0, symName: __ZNSt3__122__compressed_pair_elemINS_9allocatorI18SingleJetCorrectorEELi1ELb1EEC2B8ne180100ENS_18__default_init_tagE, symObjAddr: 0xC9CC, symBinAddr: 0x100010B2C, symSize: 0x2C }
  - { offset: 0x853E4, size: 0x8, addend: 0x0, symName: __ZNSt3__19allocatorI18SingleJetCorrectorEC2B8ne180100Ev, symObjAddr: 0xC9F8, symBinAddr: 0x100010B58, symSize: 0x2C }
  - { offset: 0x8540E, size: 0x8, addend: 0x0, symName: __ZNSt3__116__non_trivial_ifILb1ENS_9allocatorI18SingleJetCorrectorEEEC2B8ne180100Ev, symObjAddr: 0xCA24, symBinAddr: 0x100010B84, symSize: 0x14 }
  - { offset: 0x85438, size: 0x8, addend: 0x0, symName: __ZNSt3__16vectorINS_12basic_stringIcNS_11char_traitsIcEENS_9allocatorIcEEEENS4_IS6_EEEC2ERKS8_, symObjAddr: 0xCA38, symBinAddr: 0x100010B98, symSize: 0x94 }
  - { offset: 0x8547E, size: 0x8, addend: 0x0, symName: __ZNSt3__116allocator_traitsINS_9allocatorINS_12basic_stringIcNS_11char_traitsIcEENS1_IcEEEEEEE37select_on_container_copy_constructionB8ne180100IS7_vvEES7_RKS7_, symObjAddr: 0xCACC, symBinAddr: 0x100010C2C, symSize: 0x10 }
  - { offset: 0x854AD, size: 0x8, addend: 0x0, symName: __ZNKSt3__16vectorINS_12basic_stringIcNS_11char_traitsIcEENS_9allocatorIcEEEENS4_IS6_EEE7__allocB8ne180100Ev, symObjAddr: 0xCADC, symBinAddr: 0x100010C3C, symSize: 0x28 }
  - { offset: 0x854D9, size: 0x8, addend: 0x0, symName: __ZNSt3__117__compressed_pairIPNS_12basic_stringIcNS_11char_traitsIcEENS_9allocatorIcEEEENS4_IS6_EEEC1B8ne180100IDnS8_EEOT_OT0_, symObjAddr: 0xCB04, symBinAddr: 0x100010C64, symSize: 0x3C }
  - { offset: 0x85531, size: 0x8, addend: 0x0, symName: __ZNSt3__16vectorINS_12basic_stringIcNS_11char_traitsIcEENS_9allocatorIcEEEENS4_IS6_EEE16__init_with_sizeB8ne180100IPS6_SA_EEvT_T0_m, symObjAddr: 0xCB40, symBinAddr: 0x100010CA0, symSize: 0xB8 }
  - { offset: 0x855A5, size: 0x8, addend: 0x0, symName: __ZNKSt3__117__compressed_pairIPNS_12basic_stringIcNS_11char_traitsIcEENS_9allocatorIcEEEENS4_IS6_EEE6secondB8ne180100Ev, symObjAddr: 0xCBF8, symBinAddr: 0x100010D58, symSize: 0x24 }
  - { offset: 0x855CB, size: 0x8, addend: 0x0, symName: __ZNKSt3__122__compressed_pair_elemINS_9allocatorINS_12basic_stringIcNS_11char_traitsIcEENS1_IcEEEEEELi1ELb1EE5__getB8ne180100Ev, symObjAddr: 0xCC1C, symBinAddr: 0x100010D7C, symSize: 0x14 }
  - { offset: 0x855F1, size: 0x8, addend: 0x0, symName: __ZNSt3__117__compressed_pairIPNS_12basic_stringIcNS_11char_traitsIcEENS_9allocatorIcEEEENS4_IS6_EEEC2B8ne180100IDnS8_EEOT_OT0_, symObjAddr: 0xCC30, symBinAddr: 0x100010D90, symSize: 0x44 }
  - { offset: 0x85649, size: 0x8, addend: 0x0, symName: __ZNSt3__122__compressed_pair_elemIPNS_12basic_stringIcNS_11char_traitsIcEENS_9allocatorIcEEEELi0ELb0EEC2B8ne180100IDnvEEOT_, symObjAddr: 0xCC74, symBinAddr: 0x100010DD4, symSize: 0x1C }
  - { offset: 0x8568B, size: 0x8, addend: 0x0, symName: __ZNSt3__122__compressed_pair_elemINS_9allocatorINS_12basic_stringIcNS_11char_traitsIcEENS1_IcEEEEEELi1ELb1EEC2B8ne180100IS7_vEEOT_, symObjAddr: 0xCC90, symBinAddr: 0x100010DF0, symSize: 0x18 }
  - { offset: 0x856CD, size: 0x8, addend: 0x0, symName: __ZNSt3__16vectorINS_12basic_stringIcNS_11char_traitsIcEENS_9allocatorIcEEEENS4_IS6_EEE16__destroy_vectorC1B8ne180100ERS8_, symObjAddr: 0xCCE8, symBinAddr: 0x100010E48, symSize: 0x34 }
  - { offset: 0x85706, size: 0x8, addend: 0x0, symName: __ZNSt3__16vectorINS_12basic_stringIcNS_11char_traitsIcEENS_9allocatorIcEEEENS4_IS6_EEE11__vallocateB8ne180100Em, symObjAddr: 0xCD1C, symBinAddr: 0x100010E7C, symSize: 0xB4 }
  - { offset: 0x8574A, size: 0x8, addend: 0x0, symName: __ZNSt3__16vectorINS_12basic_stringIcNS_11char_traitsIcEENS_9allocatorIcEEEENS4_IS6_EEE18__construct_at_endIPS6_SA_EEvT_T0_m, symObjAddr: 0xCDD0, symBinAddr: 0x100010F30, symSize: 0x8C }
  - { offset: 0x857C0, size: 0x8, addend: 0x0, symName: __ZNSt3__128__exception_guard_exceptionsINS_6vectorINS_12basic_stringIcNS_11char_traitsIcEENS_9allocatorIcEEEENS5_IS7_EEE16__destroy_vectorEE10__completeB8ne180100Ev, symObjAddr: 0xCE5C, symBinAddr: 0x100010FBC, symSize: 0x1C }
  - { offset: 0x857E6, size: 0x8, addend: 0x0, symName: __ZNSt3__128__exception_guard_exceptionsINS_6vectorINS_12basic_stringIcNS_11char_traitsIcEENS_9allocatorIcEEEENS5_IS7_EEE16__destroy_vectorEED1B8ne180100Ev, symObjAddr: 0xCE78, symBinAddr: 0x100010FD8, symSize: 0x2C }
  - { offset: 0x85810, size: 0x8, addend: 0x0, symName: __ZNSt3__128__exception_guard_exceptionsINS_6vectorINS_12basic_stringIcNS_11char_traitsIcEENS_9allocatorIcEEEENS5_IS7_EEE16__destroy_vectorEEC1B8ne180100ESA_, symObjAddr: 0xCEA4, symBinAddr: 0x100011004, symSize: 0x34 }
  - { offset: 0x85848, size: 0x8, addend: 0x0, symName: __ZNSt3__128__exception_guard_exceptionsINS_6vectorINS_12basic_stringIcNS_11char_traitsIcEENS_9allocatorIcEEEENS5_IS7_EEE16__destroy_vectorEEC2B8ne180100ESA_, symObjAddr: 0xCED8, symBinAddr: 0x100011038, symSize: 0x24 }
  - { offset: 0x85880, size: 0x8, addend: 0x0, symName: __ZNSt3__16vectorINS_12basic_stringIcNS_11char_traitsIcEENS_9allocatorIcEEEENS4_IS6_EEE16__destroy_vectorC2B8ne180100ERS8_, symObjAddr: 0xCEFC, symBinAddr: 0x10001105C, symSize: 0x20 }
  - { offset: 0x858B9, size: 0x8, addend: 0x0, symName: __ZNKSt3__16vectorINS_12basic_stringIcNS_11char_traitsIcEENS_9allocatorIcEEEENS4_IS6_EEE8max_sizeEv, symObjAddr: 0xCF1C, symBinAddr: 0x10001107C, symSize: 0x60 }
  - { offset: 0x858E1, size: 0x8, addend: 0x0, symName: __ZNKSt3__16vectorINS_12basic_stringIcNS_11char_traitsIcEENS_9allocatorIcEEEENS4_IS6_EEE20__throw_length_errorB8ne180100Ev, symObjAddr: 0xCF7C, symBinAddr: 0x1000110DC, symSize: 0x1C }
  - { offset: 0x85907, size: 0x8, addend: 0x0, symName: __ZNSt3__16vectorINS_12basic_stringIcNS_11char_traitsIcEENS_9allocatorIcEEEENS4_IS6_EEE7__allocB8ne180100Ev, symObjAddr: 0xCFD8, symBinAddr: 0x100011138, symSize: 0x28 }
  - { offset: 0x8592D, size: 0x8, addend: 0x0, symName: __ZNSt3__16vectorINS_12basic_stringIcNS_11char_traitsIcEENS_9allocatorIcEEEENS4_IS6_EEE9__end_capB8ne180100Ev, symObjAddr: 0xD000, symBinAddr: 0x100011160, symSize: 0x28 }
  - { offset: 0x85953, size: 0x8, addend: 0x0, symName: __ZNKSt3__16vectorINS_12basic_stringIcNS_11char_traitsIcEENS_9allocatorIcEEEENS4_IS6_EEE14__annotate_newB8ne180100Em, symObjAddr: 0xD028, symBinAddr: 0x100011188, symSize: 0x14 }
  - { offset: 0x85988, size: 0x8, addend: 0x0, symName: __ZNSt3__116allocator_traitsINS_9allocatorINS_12basic_stringIcNS_11char_traitsIcEENS1_IcEEEEEEE8max_sizeB8ne180100IS7_vEEmRKS7_, symObjAddr: 0xD068, symBinAddr: 0x1000111C8, symSize: 0x24 }
  - { offset: 0x859B6, size: 0x8, addend: 0x0, symName: __ZNSt3__114numeric_limitsIlE3maxB8ne180100Ev, symObjAddr: 0xD08C, symBinAddr: 0x1000111EC, symSize: 0x14 }
  - { offset: 0x859D4, size: 0x8, addend: 0x0, symName: __ZNKSt3__16__lessIvvEclB8ne180100ImmEEbRKT_RKT0_, symObjAddr: 0xD0F4, symBinAddr: 0x100011254, symSize: 0x34 }
  - { offset: 0x85A28, size: 0x8, addend: 0x0, symName: __ZNKSt3__19allocatorINS_12basic_stringIcNS_11char_traitsIcEENS0_IcEEEEE8max_sizeB8ne180100Ev, symObjAddr: 0xD128, symBinAddr: 0x100011288, symSize: 0x18 }
  - { offset: 0x85A4E, size: 0x8, addend: 0x0, symName: __ZNSt3__123__libcpp_numeric_limitsIlLb1EE3maxB8ne180100Ev, symObjAddr: 0xD140, symBinAddr: 0x1000112A0, symSize: 0x8 }
  - { offset: 0x85A62, size: 0x8, addend: 0x0, symName: __ZNSt12length_errorC1B8ne180100EPKc, symObjAddr: 0xD1AC, symBinAddr: 0x10001130C, symSize: 0x34 }
  - { offset: 0x85A9A, size: 0x8, addend: 0x0, symName: __ZNSt12length_errorC2B8ne180100EPKc, symObjAddr: 0xD1E0, symBinAddr: 0x100011340, symSize: 0x44 }
  - { offset: 0x85AD2, size: 0x8, addend: 0x0, symName: __ZNSt3__19allocatorINS_12basic_stringIcNS_11char_traitsIcEENS0_IcEEEEE8allocateB8ne180100Em, symObjAddr: 0xD224, symBinAddr: 0x100011384, symSize: 0x5C }
  - { offset: 0x85B06, size: 0x8, addend: 0x0, symName: __ZNSt3__117__compressed_pairIPNS_12basic_stringIcNS_11char_traitsIcEENS_9allocatorIcEEEENS4_IS6_EEE6secondB8ne180100Ev, symObjAddr: 0xD364, symBinAddr: 0x1000114C4, symSize: 0x24 }
  - { offset: 0x85B2C, size: 0x8, addend: 0x0, symName: __ZNSt3__122__compressed_pair_elemINS_9allocatorINS_12basic_stringIcNS_11char_traitsIcEENS1_IcEEEEEELi1ELb1EE5__getB8ne180100Ev, symObjAddr: 0xD388, symBinAddr: 0x1000114E8, symSize: 0x14 }
  - { offset: 0x85B52, size: 0x8, addend: 0x0, symName: __ZNSt3__117__compressed_pairIPNS_12basic_stringIcNS_11char_traitsIcEENS_9allocatorIcEEEENS4_IS6_EEE5firstB8ne180100Ev, symObjAddr: 0xD39C, symBinAddr: 0x1000114FC, symSize: 0x24 }
  - { offset: 0x85B78, size: 0x8, addend: 0x0, symName: __ZNSt3__122__compressed_pair_elemIPNS_12basic_stringIcNS_11char_traitsIcEENS_9allocatorIcEEEELi0ELb0EE5__getB8ne180100Ev, symObjAddr: 0xD3C0, symBinAddr: 0x100011520, symSize: 0x14 }
  - { offset: 0x85BB9, size: 0x8, addend: 0x0, symName: __ZNSt3__16vectorINS_12basic_stringIcNS_11char_traitsIcEENS_9allocatorIcEEEENS4_IS6_EEE21_ConstructTransactionC1B8ne180100ERS8_m, symObjAddr: 0xD3D4, symBinAddr: 0x100011534, symSize: 0x3C }
  - { offset: 0x85C01, size: 0x8, addend: 0x0, symName: __ZNSt3__16vectorINS_12basic_stringIcNS_11char_traitsIcEENS_9allocatorIcEEEENS4_IS6_EEE21_ConstructTransactionD1B8ne180100Ev, symObjAddr: 0xD490, symBinAddr: 0x1000115F0, symSize: 0x2C }
  - { offset: 0x85C2B, size: 0x8, addend: 0x0, symName: __ZNSt3__16vectorINS_12basic_stringIcNS_11char_traitsIcEENS_9allocatorIcEEEENS4_IS6_EEE21_ConstructTransactionC2B8ne180100ERS8_m, symObjAddr: 0xD4BC, symBinAddr: 0x10001161C, symSize: 0x4C }
  - { offset: 0x85C95, size: 0x8, addend: 0x0, symName: __ZNSt3__14pairIPNS_12basic_stringIcNS_11char_traitsIcEENS_9allocatorIcEEEES7_EC1B8ne180100IS7_S7_Li0EEEOT_OT0_, symObjAddr: 0xD6F4, symBinAddr: 0x100011854, symSize: 0x3C }
  - { offset: 0x85CF3, size: 0x8, addend: 0x0, symName: __ZNSt3__14pairIPNS_12basic_stringIcNS_11char_traitsIcEENS_9allocatorIcEEEES7_EC2B8ne180100IS7_S7_Li0EEEOT_OT0_, symObjAddr: 0xD730, symBinAddr: 0x100011890, symSize: 0x34 }
  - { offset: 0x85D51, size: 0x8, addend: 0x0, symName: __ZNSt3__129_AllocatorDestroyRangeReverseINS_9allocatorINS_12basic_stringIcNS_11char_traitsIcEENS1_IcEEEEEEPS6_EC1B8ne180100ERS7_RS8_SB_, symObjAddr: 0xD7B0, symBinAddr: 0x100011910, symSize: 0x44 }
  - { offset: 0x85DA8, size: 0x8, addend: 0x0, symName: __ZNSt3__116allocator_traitsINS_9allocatorINS_12basic_stringIcNS_11char_traitsIcEENS1_IcEEEEEEE9constructB8ne180100IS6_JRS6_EvEEvRS7_PT_DpOT0_, symObjAddr: 0xD7F4, symBinAddr: 0x100011954, symSize: 0x34 }
  - { offset: 0x85DFF, size: 0x8, addend: 0x0, symName: __ZNSt3__128__exception_guard_exceptionsINS_29_AllocatorDestroyRangeReverseINS_9allocatorINS_12basic_stringIcNS_11char_traitsIcEENS2_IcEEEEEEPS7_EEE10__completeB8ne180100Ev, symObjAddr: 0xD83C, symBinAddr: 0x10001199C, symSize: 0x1C }
  - { offset: 0x85E25, size: 0x8, addend: 0x0, symName: __ZNSt3__128__exception_guard_exceptionsINS_29_AllocatorDestroyRangeReverseINS_9allocatorINS_12basic_stringIcNS_11char_traitsIcEENS2_IcEEEEEEPS7_EEED1B8ne180100Ev, symObjAddr: 0xD858, symBinAddr: 0x1000119B8, symSize: 0x2C }
  - { offset: 0x85E4F, size: 0x8, addend: 0x0, symName: __ZNSt3__128__exception_guard_exceptionsINS_29_AllocatorDestroyRangeReverseINS_9allocatorINS_12basic_stringIcNS_11char_traitsIcEENS2_IcEEEEEEPS7_EEEC1B8ne180100ESA_, symObjAddr: 0xD884, symBinAddr: 0x1000119E4, symSize: 0x34 }
  - { offset: 0x85E88, size: 0x8, addend: 0x0, symName: __ZNSt3__128__exception_guard_exceptionsINS_29_AllocatorDestroyRangeReverseINS_9allocatorINS_12basic_stringIcNS_11char_traitsIcEENS2_IcEEEEEEPS7_EEEC2B8ne180100ESA_, symObjAddr: 0xD8B8, symBinAddr: 0x100011A18, symSize: 0x30 }
  - { offset: 0x85EC1, size: 0x8, addend: 0x0, symName: __ZNSt3__129_AllocatorDestroyRangeReverseINS_9allocatorINS_12basic_stringIcNS_11char_traitsIcEENS1_IcEEEEEEPS6_EC2B8ne180100ERS7_RS8_SB_, symObjAddr: 0xD8E8, symBinAddr: 0x100011A48, symSize: 0x38 }
  - { offset: 0x85F18, size: 0x8, addend: 0x0, symName: __ZNSt3__19allocatorINS_12basic_stringIcNS_11char_traitsIcEENS0_IcEEEEE9constructB8ne180100IS5_JRS5_EEEvPT_DpOT0_, symObjAddr: 0xD920, symBinAddr: 0x100011A80, symSize: 0x30 }
  - { offset: 0x85F6E, size: 0x8, addend: 0x0, symName: __ZNSt3__128__exception_guard_exceptionsINS_29_AllocatorDestroyRangeReverseINS_9allocatorINS_12basic_stringIcNS_11char_traitsIcEENS2_IcEEEEEEPS7_EEED2B8ne180100Ev, symObjAddr: 0xD950, symBinAddr: 0x100011AB0, symSize: 0x50 }
  - { offset: 0x85F98, size: 0x8, addend: 0x0, symName: __ZNKSt3__129_AllocatorDestroyRangeReverseINS_9allocatorINS_12basic_stringIcNS_11char_traitsIcEENS1_IcEEEEEEPS6_EclB8ne180100Ev, symObjAddr: 0xD9A0, symBinAddr: 0x100011B00, symSize: 0x68 }
  - { offset: 0x85FBE, size: 0x8, addend: 0x0, symName: __ZNSt3__116reverse_iteratorIPNS_12basic_stringIcNS_11char_traitsIcEENS_9allocatorIcEEEEEC1B8ne180100ES7_, symObjAddr: 0xDA78, symBinAddr: 0x100011BD8, symSize: 0x34 }
  - { offset: 0x85FF6, size: 0x8, addend: 0x0, symName: __ZNSt3__116allocator_traitsINS_9allocatorINS_12basic_stringIcNS_11char_traitsIcEENS1_IcEEEEEEE7destroyB8ne180100IS6_vEEvRS7_PT_, symObjAddr: 0xDAF4, symBinAddr: 0x100011C54, symSize: 0x2C }
  - { offset: 0x86033, size: 0x8, addend: 0x0, symName: __ZNSt3__116reverse_iteratorIPNS_12basic_stringIcNS_11char_traitsIcEENS_9allocatorIcEEEEEppB8ne180100Ev, symObjAddr: 0xDB44, symBinAddr: 0x100011CA4, symSize: 0x20 }
  - { offset: 0x86059, size: 0x8, addend: 0x0, symName: __ZNKSt3__116reverse_iteratorIPNS_12basic_stringIcNS_11char_traitsIcEENS_9allocatorIcEEEEE4baseB8ne180100Ev, symObjAddr: 0xDB64, symBinAddr: 0x100011CC4, symSize: 0x18 }
  - { offset: 0x8607F, size: 0x8, addend: 0x0, symName: __ZNSt3__19allocatorINS_12basic_stringIcNS_11char_traitsIcEENS0_IcEEEEE7destroyB8ne180100EPS5_, symObjAddr: 0xDB7C, symBinAddr: 0x100011CDC, symSize: 0x28 }
  - { offset: 0x860B9, size: 0x8, addend: 0x0, symName: __ZNSt3__119__to_address_helperINS_16reverse_iteratorIPNS_12basic_stringIcNS_11char_traitsIcEENS_9allocatorIcEEEEEEvE6__callB8ne180100ERKS9_, symObjAddr: 0xDBA4, symBinAddr: 0x100011D04, symSize: 0x38 }
  - { offset: 0x860DC, size: 0x8, addend: 0x0, symName: __ZNKSt3__116reverse_iteratorIPNS_12basic_stringIcNS_11char_traitsIcEENS_9allocatorIcEEEEEptB8ne180100Ev, symObjAddr: 0xDBDC, symBinAddr: 0x100011D3C, symSize: 0x24 }
  - { offset: 0x86102, size: 0x8, addend: 0x0, symName: __ZNKSt3__116reverse_iteratorIPNS_12basic_stringIcNS_11char_traitsIcEENS_9allocatorIcEEEEEdeB8ne180100Ev, symObjAddr: 0xDC00, symBinAddr: 0x100011D60, symSize: 0x28 }
  - { offset: 0x86136, size: 0x8, addend: 0x0, symName: __ZNSt3__116reverse_iteratorIPNS_12basic_stringIcNS_11char_traitsIcEENS_9allocatorIcEEEEEC2B8ne180100ES7_, symObjAddr: 0xDC28, symBinAddr: 0x100011D88, symSize: 0x28 }
  - { offset: 0x8616E, size: 0x8, addend: 0x0, symName: __ZNSt3__118__unwrap_iter_implIPNS_12basic_stringIcNS_11char_traitsIcEENS_9allocatorIcEEEELb1EE8__unwrapB8ne180100ES7_, symObjAddr: 0xDC50, symBinAddr: 0x100011DB0, symSize: 0x24 }
  - { offset: 0x86191, size: 0x8, addend: 0x0, symName: __ZNSt3__118__unwrap_iter_implIPNS_12basic_stringIcNS_11char_traitsIcEENS_9allocatorIcEEEELb1EE8__rewrapB8ne180100ES7_S7_, symObjAddr: 0xDC74, symBinAddr: 0x100011DD4, symSize: 0x58 }
  - { offset: 0x861C2, size: 0x8, addend: 0x0, symName: __ZNSt3__16vectorINS_12basic_stringIcNS_11char_traitsIcEENS_9allocatorIcEEEENS4_IS6_EEE21_ConstructTransactionD2B8ne180100Ev, symObjAddr: 0xDCCC, symBinAddr: 0x100011E2C, symSize: 0x20 }
  - { offset: 0x861EC, size: 0x8, addend: 0x0, symName: __ZNSt3__128__exception_guard_exceptionsINS_6vectorINS_12basic_stringIcNS_11char_traitsIcEENS_9allocatorIcEEEENS5_IS7_EEE16__destroy_vectorEED2B8ne180100Ev, symObjAddr: 0xDCEC, symBinAddr: 0x100011E4C, symSize: 0x50 }
  - { offset: 0x86216, size: 0x8, addend: 0x0, symName: __ZNSt3__16vectorINS_12basic_stringIcNS_11char_traitsIcEENS_9allocatorIcEEEENS4_IS6_EEE16__destroy_vectorclB8ne180100Ev, symObjAddr: 0xDD3C, symBinAddr: 0x100011E9C, symSize: 0x90 }
  - { offset: 0x8623C, size: 0x8, addend: 0x0, symName: __ZNSt3__16vectorINS_12basic_stringIcNS_11char_traitsIcEENS_9allocatorIcEEEENS4_IS6_EEE7__clearB8ne180100Ev, symObjAddr: 0xDDCC, symBinAddr: 0x100011F2C, symSize: 0x28 }
  - { offset: 0x86262, size: 0x8, addend: 0x0, symName: __ZNKSt3__16vectorINS_12basic_stringIcNS_11char_traitsIcEENS_9allocatorIcEEEENS4_IS6_EEE17__annotate_deleteB8ne180100Ev, symObjAddr: 0xDDF4, symBinAddr: 0x100011F54, symSize: 0x10 }
  - { offset: 0x86288, size: 0x8, addend: 0x0, symName: __ZNSt3__116allocator_traitsINS_9allocatorINS_12basic_stringIcNS_11char_traitsIcEENS1_IcEEEEEEE10deallocateB8ne180100ERS7_PS6_m, symObjAddr: 0xDE04, symBinAddr: 0x100011F64, symSize: 0x34 }
  - { offset: 0x862CA, size: 0x8, addend: 0x0, symName: __ZNKSt3__16vectorINS_12basic_stringIcNS_11char_traitsIcEENS_9allocatorIcEEEENS4_IS6_EEE8capacityB8ne180100Ev, symObjAddr: 0xDE38, symBinAddr: 0x100011F98, symSize: 0x40 }
  - { offset: 0x862F0, size: 0x8, addend: 0x0, symName: __ZNSt3__16vectorINS_12basic_stringIcNS_11char_traitsIcEENS_9allocatorIcEEEENS4_IS6_EEE22__base_destruct_at_endB8ne180100EPS6_, symObjAddr: 0xDE78, symBinAddr: 0x100011FD8, symSize: 0x8C }
  - { offset: 0x86334, size: 0x8, addend: 0x0, symName: __ZNSt3__19allocatorINS_12basic_stringIcNS_11char_traitsIcEENS0_IcEEEEE10deallocateB8ne180100EPS5_m, symObjAddr: 0xDF04, symBinAddr: 0x100012064, symSize: 0x44 }
  - { offset: 0x86376, size: 0x8, addend: 0x0, symName: __ZNKSt3__16vectorINS_12basic_stringIcNS_11char_traitsIcEENS_9allocatorIcEEEENS4_IS6_EEE9__end_capB8ne180100Ev, symObjAddr: 0xDF48, symBinAddr: 0x1000120A8, symSize: 0x28 }
  - { offset: 0x8639C, size: 0x8, addend: 0x0, symName: __ZNKSt3__117__compressed_pairIPNS_12basic_stringIcNS_11char_traitsIcEENS_9allocatorIcEEEENS4_IS6_EEE5firstB8ne180100Ev, symObjAddr: 0xDF70, symBinAddr: 0x1000120D0, symSize: 0x24 }
  - { offset: 0x863C2, size: 0x8, addend: 0x0, symName: __ZNKSt3__122__compressed_pair_elemIPNS_12basic_stringIcNS_11char_traitsIcEENS_9allocatorIcEEEELi0ELb0EE5__getB8ne180100Ev, symObjAddr: 0xDF94, symBinAddr: 0x1000120F4, symSize: 0x14 }
  - { offset: 0x863E8, size: 0x8, addend: 0x0, symName: __ZNSt3__16vectorI18SingleJetCorrectorNS_9allocatorIS1_EEED2B8ne180100Ev, symObjAddr: 0xDFA8, symBinAddr: 0x100012108, symSize: 0x44 }
  - { offset: 0x86412, size: 0x8, addend: 0x0, symName: __ZNSt3__16vectorI18SingleJetCorrectorNS_9allocatorIS1_EEE16__destroy_vectorC1B8ne180100ERS4_, symObjAddr: 0xDFEC, symBinAddr: 0x10001214C, symSize: 0x34 }
  - { offset: 0x8644B, size: 0x8, addend: 0x0, symName: __ZNSt3__16vectorI18SingleJetCorrectorNS_9allocatorIS1_EEE16__destroy_vectorclB8ne180100Ev, symObjAddr: 0xE020, symBinAddr: 0x100012180, symSize: 0x90 }
  - { offset: 0x86471, size: 0x8, addend: 0x0, symName: __ZNSt3__16vectorI18SingleJetCorrectorNS_9allocatorIS1_EEE16__destroy_vectorC2B8ne180100ERS4_, symObjAddr: 0xE0B0, symBinAddr: 0x100012210, symSize: 0x20 }
  - { offset: 0x864AA, size: 0x8, addend: 0x0, symName: __ZNSt3__16vectorI18SingleJetCorrectorNS_9allocatorIS1_EEE7__clearB8ne180100Ev, symObjAddr: 0xE0D0, symBinAddr: 0x100012230, symSize: 0x28 }
  - { offset: 0x864D0, size: 0x8, addend: 0x0, symName: __ZNKSt3__16vectorI18SingleJetCorrectorNS_9allocatorIS1_EEE17__annotate_deleteB8ne180100Ev, symObjAddr: 0xE0F8, symBinAddr: 0x100012258, symSize: 0x10 }
  - { offset: 0x864F6, size: 0x8, addend: 0x0, symName: __ZNSt3__116allocator_traitsINS_9allocatorI18SingleJetCorrectorEEE10deallocateB8ne180100ERS3_PS2_m, symObjAddr: 0xE108, symBinAddr: 0x100012268, symSize: 0x34 }
  - { offset: 0x86538, size: 0x8, addend: 0x0, symName: __ZNSt3__16vectorI18SingleJetCorrectorNS_9allocatorIS1_EEE7__allocB8ne180100Ev, symObjAddr: 0xE13C, symBinAddr: 0x10001229C, symSize: 0x28 }
  - { offset: 0x8655E, size: 0x8, addend: 0x0, symName: __ZNKSt3__16vectorI18SingleJetCorrectorNS_9allocatorIS1_EEE8capacityB8ne180100Ev, symObjAddr: 0xE164, symBinAddr: 0x1000122C4, symSize: 0x40 }
  - { offset: 0x86584, size: 0x8, addend: 0x0, symName: __ZNSt3__16vectorI18SingleJetCorrectorNS_9allocatorIS1_EEE22__base_destruct_at_endB8ne180100EPS1_, symObjAddr: 0xE1A4, symBinAddr: 0x100012304, symSize: 0x8C }
  - { offset: 0x865C8, size: 0x8, addend: 0x0, symName: __ZNSt3__116allocator_traitsINS_9allocatorI18SingleJetCorrectorEEE7destroyB8ne180100IS2_vEEvRS3_PT_, symObjAddr: 0xE230, symBinAddr: 0x100012390, symSize: 0x2C }
  - { offset: 0x86605, size: 0x8, addend: 0x0, symName: __ZNSt3__19allocatorI18SingleJetCorrectorE7destroyB8ne180100EPS1_, symObjAddr: 0xE270, symBinAddr: 0x1000123D0, symSize: 0x28 }
  - { offset: 0x86639, size: 0x8, addend: 0x0, symName: __ZNSt3__19allocatorI18SingleJetCorrectorE10deallocateB8ne180100EPS1_m, symObjAddr: 0xE298, symBinAddr: 0x1000123F8, symSize: 0x44 }
  - { offset: 0x8667B, size: 0x8, addend: 0x0, symName: __ZNSt3__117__compressed_pairIP18SingleJetCorrectorNS_9allocatorIS1_EEE6secondB8ne180100Ev, symObjAddr: 0xE2DC, symBinAddr: 0x10001243C, symSize: 0x24 }
  - { offset: 0x866A1, size: 0x8, addend: 0x0, symName: __ZNSt3__122__compressed_pair_elemINS_9allocatorI18SingleJetCorrectorEELi1ELb1EE5__getB8ne180100Ev, symObjAddr: 0xE300, symBinAddr: 0x100012460, symSize: 0x14 }
  - { offset: 0x866C7, size: 0x8, addend: 0x0, symName: __ZNKSt3__16vectorI18SingleJetCorrectorNS_9allocatorIS1_EEE9__end_capB8ne180100Ev, symObjAddr: 0xE314, symBinAddr: 0x100012474, symSize: 0x28 }
  - { offset: 0x866ED, size: 0x8, addend: 0x0, symName: __ZNKSt3__117__compressed_pairIP18SingleJetCorrectorNS_9allocatorIS1_EEE5firstB8ne180100Ev, symObjAddr: 0xE33C, symBinAddr: 0x10001249C, symSize: 0x24 }
  - { offset: 0x86713, size: 0x8, addend: 0x0, symName: __ZNKSt3__122__compressed_pair_elemIP18SingleJetCorrectorLi0ELb0EE5__getB8ne180100Ev, symObjAddr: 0xE360, symBinAddr: 0x1000124C0, symSize: 0x14 }
  - { offset: 0x86739, size: 0x8, addend: 0x0, symName: __ZNK7TString10GetPointerEv, symObjAddr: 0xE374, symBinAddr: 0x1000124D4, symSize: 0x54 }
  - { offset: 0x8675F, size: 0x8, addend: 0x0, symName: __ZNK7TString6IsLongEv, symObjAddr: 0xE3C8, symBinAddr: 0x100012528, symSize: 0x24 }
  - { offset: 0x86785, size: 0x8, addend: 0x0, symName: __ZNK7TString14GetLongPointerEv, symObjAddr: 0xE3EC, symBinAddr: 0x10001254C, symSize: 0x18 }
  - { offset: 0x867AB, size: 0x8, addend: 0x0, symName: __ZNK7TString15GetShortPointerEv, symObjAddr: 0xE404, symBinAddr: 0x100012564, symSize: 0x18 }
  - { offset: 0x867DC, size: 0x8, addend: 0x0, symName: __ZNKSt3__16__lessIvvEclB8ne180100IxxEEbRKT_RKT0_, symObjAddr: 0xE470, symBinAddr: 0x1000125D0, symSize: 0x34 }
  - { offset: 0x86830, size: 0x8, addend: 0x0, symName: __ZNKSt3__16__lessIvvEclB8ne180100IddEEbRKT_RKT0_, symObjAddr: 0xE4F8, symBinAddr: 0x100012658, symSize: 0x34 }
  - { offset: 0x86884, size: 0x8, addend: 0x0, symName: __ZN3JetC2Eddddd, symObjAddr: 0xE52C, symBinAddr: 0x10001268C, symSize: 0x50 }
  - { offset: 0x868F4, size: 0x8, addend: 0x0, symName: __ZN12JetCorrectorD2Ev, symObjAddr: 0xE57C, symBinAddr: 0x1000126DC, symSize: 0x2C }
  - { offset: 0x86920, size: 0x8, addend: 0x0, symName: __ZNSt3__112basic_stringIcNS_11char_traitsIcEENS_9allocatorIcEEEC2B8ne180100ILi0EEEPKc, symObjAddr: 0xE5A8, symBinAddr: 0x100012708, symSize: 0x58 }
  - { offset: 0x8695F, size: 0x8, addend: 0x0, symName: __ZNSt3__117__compressed_pairINS_12basic_stringIcNS_11char_traitsIcEENS_9allocatorIcEEE5__repES5_EC1B8ne180100INS_18__default_init_tagESA_EEOT_OT0_, symObjAddr: 0xE600, symBinAddr: 0x100012760, symSize: 0x3C }
  - { offset: 0x869B7, size: 0x8, addend: 0x0, symName: __ZNSt3__111char_traitsIcE6lengthB8ne180100EPKc, symObjAddr: 0xE63C, symBinAddr: 0x10001279C, symSize: 0x34 }
  - { offset: 0x869DA, size: 0x8, addend: 0x0, symName: __ZNSt3__117__compressed_pairINS_12basic_stringIcNS_11char_traitsIcEENS_9allocatorIcEEE5__repES5_EC2B8ne180100INS_18__default_init_tagESA_EEOT_OT0_, symObjAddr: 0xE670, symBinAddr: 0x1000127D0, symSize: 0x3C }
  - { offset: 0x86A32, size: 0x8, addend: 0x0, symName: __ZNSt3__122__compressed_pair_elemINS_12basic_stringIcNS_11char_traitsIcEENS_9allocatorIcEEE5__repELi0ELb0EEC2B8ne180100ENS_18__default_init_tagE, symObjAddr: 0xE6AC, symBinAddr: 0x10001280C, symSize: 0x14 }
  - { offset: 0x86A67, size: 0x8, addend: 0x0, symName: __ZNSt3__122__compressed_pair_elemINS_9allocatorIcEELi1ELb1EEC2B8ne180100ENS_18__default_init_tagE, symObjAddr: 0xE6C0, symBinAddr: 0x100012820, symSize: 0x2C }
  - { offset: 0x86A9C, size: 0x8, addend: 0x0, symName: __ZNSt3__19allocatorIcEC2B8ne180100Ev, symObjAddr: 0xE6EC, symBinAddr: 0x10001284C, symSize: 0x2C }
  - { offset: 0x86AC6, size: 0x8, addend: 0x0, symName: __ZNSt3__116__non_trivial_ifILb1ENS_9allocatorIcEEEC2B8ne180100Ev, symObjAddr: 0xE718, symBinAddr: 0x100012878, symSize: 0x14 }
  - { offset: 0x86AF0, size: 0x8, addend: 0x0, symName: __ZNKSt3__112basic_stringIcNS_11char_traitsIcEENS_9allocatorIcEEE4dataB8ne180100Ev, symObjAddr: 0xE750, symBinAddr: 0x1000128B0, symSize: 0x28 }
  - { offset: 0x86B16, size: 0x8, addend: 0x0, symName: __ZNKSt3__112basic_stringIcNS_11char_traitsIcEENS_9allocatorIcEEE13__get_pointerB8ne180100Ev, symObjAddr: 0xE78C, symBinAddr: 0x1000128EC, symSize: 0x54 }
  - { offset: 0x86B3C, size: 0x8, addend: 0x0, symName: __ZNKSt3__112basic_stringIcNS_11char_traitsIcEENS_9allocatorIcEEE9__is_longB8ne180100Ev, symObjAddr: 0xE7E0, symBinAddr: 0x100012940, symSize: 0x38 }
  - { offset: 0x86B62, size: 0x8, addend: 0x0, symName: __ZNKSt3__112basic_stringIcNS_11char_traitsIcEENS_9allocatorIcEEE18__get_long_pointerB8ne180100Ev, symObjAddr: 0xE818, symBinAddr: 0x100012978, symSize: 0x28 }
  - { offset: 0x86B88, size: 0x8, addend: 0x0, symName: __ZNKSt3__112basic_stringIcNS_11char_traitsIcEENS_9allocatorIcEEE19__get_short_pointerB8ne180100Ev, symObjAddr: 0xE840, symBinAddr: 0x1000129A0, symSize: 0x28 }
  - { offset: 0x86BAE, size: 0x8, addend: 0x0, symName: __ZNKSt3__117__compressed_pairINS_12basic_stringIcNS_11char_traitsIcEENS_9allocatorIcEEE5__repES5_E5firstB8ne180100Ev, symObjAddr: 0xE868, symBinAddr: 0x1000129C8, symSize: 0x24 }
  - { offset: 0x86BD4, size: 0x8, addend: 0x0, symName: __ZNKSt3__122__compressed_pair_elemINS_12basic_stringIcNS_11char_traitsIcEENS_9allocatorIcEEE5__repELi0ELb0EE5__getB8ne180100Ev, symObjAddr: 0xE88C, symBinAddr: 0x1000129EC, symSize: 0x14 }
  - { offset: 0x86BFA, size: 0x8, addend: 0x0, symName: __ZNSt3__114pointer_traitsIPKcE10pointer_toB8ne180100ERS1_, symObjAddr: 0xE8A0, symBinAddr: 0x100012A00, symSize: 0x14 }
  - { offset: 0x86C38, size: 0x8, addend: 0x0, symName: __ZNKSt3__113basic_ostreamIcNS_11char_traitsIcEEE6sentrycvbB8ne180100Ev, symObjAddr: 0xEAA0, symBinAddr: 0x100012C00, symSize: 0x1C }
  - { offset: 0x86C5E, size: 0x8, addend: 0x0, symName: __ZNSt3__119ostreambuf_iteratorIcNS_11char_traitsIcEEEC1B8ne180100ERNS_13basic_ostreamIcS2_EE, symObjAddr: 0xECFC, symBinAddr: 0x100012E5C, symSize: 0x34 }
  - { offset: 0x86C96, size: 0x8, addend: 0x0, symName: __ZNKSt3__18ios_base5flagsB8ne180100Ev, symObjAddr: 0xED30, symBinAddr: 0x100012E90, symSize: 0x18 }
  - { offset: 0x86CBE, size: 0x8, addend: 0x0, symName: __ZNKSt3__19basic_iosIcNS_11char_traitsIcEEE4fillB8ne180100Ev, symObjAddr: 0xED48, symBinAddr: 0x100012EA8, symSize: 0x64 }
  - { offset: 0x86CE6, size: 0x8, addend: 0x0, symName: __ZNKSt3__119ostreambuf_iteratorIcNS_11char_traitsIcEEE6failedB8ne180100Ev, symObjAddr: 0xEDAC, symBinAddr: 0x100012F0C, symSize: 0x24 }
  - { offset: 0x86D0C, size: 0x8, addend: 0x0, symName: __ZNSt3__19basic_iosIcNS_11char_traitsIcEEE8setstateB8ne180100Ej, symObjAddr: 0xEDD0, symBinAddr: 0x100012F30, symSize: 0x2C }
  - { offset: 0x86D41, size: 0x8, addend: 0x0, symName: __ZNKSt3__18ios_base5widthB8ne180100Ev, symObjAddr: 0xEDFC, symBinAddr: 0x100012F5C, symSize: 0x18 }
  - { offset: 0x86D69, size: 0x8, addend: 0x0, symName: __ZNSt3__115basic_streambufIcNS_11char_traitsIcEEE5sputnB8ne180100EPKcl, symObjAddr: 0xEE14, symBinAddr: 0x100012F74, symSize: 0x3C }
  - { offset: 0x86DAB, size: 0x8, addend: 0x0, symName: __ZNSt3__112basic_stringIcNS_11char_traitsIcEENS_9allocatorIcEEEC1B8ne180100Emc, symObjAddr: 0xEE50, symBinAddr: 0x100012FB0, symSize: 0x3C }
  - { offset: 0x86DF3, size: 0x8, addend: 0x0, symName: __ZNSt3__112basic_stringIcNS_11char_traitsIcEENS_9allocatorIcEEE4dataB8ne180100Ev, symObjAddr: 0xEE8C, symBinAddr: 0x100012FEC, symSize: 0x28 }
  - { offset: 0x86E19, size: 0x8, addend: 0x0, symName: __ZNSt3__18ios_base5widthB8ne180100El, symObjAddr: 0xEEB4, symBinAddr: 0x100013014, symSize: 0x2C }
  - { offset: 0x86E5F, size: 0x8, addend: 0x0, symName: __ZNSt3__112basic_stringIcNS_11char_traitsIcEENS_9allocatorIcEEEC2B8ne180100Emc, symObjAddr: 0xEEE0, symBinAddr: 0x100013040, symSize: 0x4C }
  - { offset: 0x86EA7, size: 0x8, addend: 0x0, symName: __ZNSt3__112basic_stringIcNS_11char_traitsIcEENS_9allocatorIcEEE13__get_pointerB8ne180100Ev, symObjAddr: 0xEF40, symBinAddr: 0x1000130A0, symSize: 0x54 }
  - { offset: 0x86ECD, size: 0x8, addend: 0x0, symName: __ZNSt3__112basic_stringIcNS_11char_traitsIcEENS_9allocatorIcEEE18__get_long_pointerB8ne180100Ev, symObjAddr: 0xEF94, symBinAddr: 0x1000130F4, symSize: 0x28 }
  - { offset: 0x86EF3, size: 0x8, addend: 0x0, symName: __ZNSt3__112basic_stringIcNS_11char_traitsIcEENS_9allocatorIcEEE19__get_short_pointerB8ne180100Ev, symObjAddr: 0xEFBC, symBinAddr: 0x10001311C, symSize: 0x28 }
  - { offset: 0x86F19, size: 0x8, addend: 0x0, symName: __ZNSt3__117__compressed_pairINS_12basic_stringIcNS_11char_traitsIcEENS_9allocatorIcEEE5__repES5_E5firstB8ne180100Ev, symObjAddr: 0xEFE4, symBinAddr: 0x100013144, symSize: 0x24 }
  - { offset: 0x86F3F, size: 0x8, addend: 0x0, symName: __ZNSt3__122__compressed_pair_elemINS_12basic_stringIcNS_11char_traitsIcEENS_9allocatorIcEEE5__repELi0ELb0EE5__getB8ne180100Ev, symObjAddr: 0xF008, symBinAddr: 0x100013168, symSize: 0x14 }
  - { offset: 0x86F65, size: 0x8, addend: 0x0, symName: __ZNSt3__114pointer_traitsIPcE10pointer_toB8ne180100ERc, symObjAddr: 0xF01C, symBinAddr: 0x10001317C, symSize: 0x14 }
  - { offset: 0x86F88, size: 0x8, addend: 0x0, symName: __ZNSt3__119ostreambuf_iteratorIcNS_11char_traitsIcEEEC2B8ne180100ERNS_13basic_ostreamIcS2_EE, symObjAddr: 0xF030, symBinAddr: 0x100013190, symSize: 0x54 }
  - { offset: 0x86FC0, size: 0x8, addend: 0x0, symName: __ZNKSt3__19basic_iosIcNS_11char_traitsIcEEE5rdbufB8ne180100Ev, symObjAddr: 0xF084, symBinAddr: 0x1000131E4, symSize: 0x24 }
  - { offset: 0x86FE8, size: 0x8, addend: 0x0, symName: __ZNKSt3__18ios_base5rdbufB8ne180100Ev, symObjAddr: 0xF0A8, symBinAddr: 0x100013208, symSize: 0x18 }
  - { offset: 0x8700E, size: 0x8, addend: 0x0, symName: __ZNSt3__111char_traitsIcE11eq_int_typeB8ne180100Eii, symObjAddr: 0xF0C0, symBinAddr: 0x100013220, symSize: 0x28 }
  - { offset: 0x87041, size: 0x8, addend: 0x0, symName: __ZNSt3__111char_traitsIcE3eofB8ne180100Ev, symObjAddr: 0xF0E8, symBinAddr: 0x100013248, symSize: 0x8 }
  - { offset: 0x87055, size: 0x8, addend: 0x0, symName: __ZNKSt3__19basic_iosIcNS_11char_traitsIcEEE5widenB8ne180100Ec, symObjAddr: 0xF0F0, symBinAddr: 0x100013250, symSize: 0x84 }
  - { offset: 0x870B4, size: 0x8, addend: 0x0, symName: __ZNKSt3__15ctypeIcE5widenB8ne180100Ec, symObjAddr: 0xF1A0, symBinAddr: 0x100013300, symSize: 0x38 }
  - { offset: 0x870E9, size: 0x8, addend: 0x0, symName: __ZNSt3__18ios_base8setstateB8ne180100Ej, symObjAddr: 0xF1D8, symBinAddr: 0x100013338, symSize: 0x34 }
  - { offset: 0x87120, size: 0x8, addend: 0x0, symName: __ZNSt3__112basic_stringIcNS_11char_traitsIcEENS_9allocatorIcEEEC2B8ne180100EOS5_, symObjAddr: 0xF20C, symBinAddr: 0x10001336C, symSize: 0xB8 }
  - { offset: 0x8718A, size: 0x8, addend: 0x0, symName: __ZZNSt3__112basic_stringIcNS_11char_traitsIcEENS_9allocatorIcEEEC1B8ne180100EOS5_ENKUlRS5_E_clES7_, symObjAddr: 0xF2C4, symBinAddr: 0x100013424, symSize: 0x40 }
  - { offset: 0x871C3, size: 0x8, addend: 0x0, symName: __ZNKSt3__112basic_stringIcNS_11char_traitsIcEENS_9allocatorIcEEE14__annotate_newB8ne180100Em, symObjAddr: 0xF304, symBinAddr: 0x100013464, symSize: 0x14 }
  - { offset: 0x871F8, size: 0x8, addend: 0x0, symName: __ZNKSt3__112basic_stringIcNS_11char_traitsIcEENS_9allocatorIcEEE17__annotate_deleteB8ne180100Ev, symObjAddr: 0xF318, symBinAddr: 0x100013478, symSize: 0x10 }
  - { offset: 0x8721E, size: 0x8, addend: 0x0, symName: __ZNSt3__16vectorIdNS_9allocatorIdEEEC2B8ne180100Ev, symObjAddr: 0xF328, symBinAddr: 0x100013488, symSize: 0x4C }
  - { offset: 0x87248, size: 0x8, addend: 0x0, symName: __ZNSt3__117__compressed_pairIPdNS_9allocatorIdEEEC1B8ne180100IDnNS_18__default_init_tagEEEOT_OT0_, symObjAddr: 0xF374, symBinAddr: 0x1000134D4, symSize: 0x3C }
  - { offset: 0x872A0, size: 0x8, addend: 0x0, symName: __ZNSt3__117__compressed_pairIPdNS_9allocatorIdEEEC2B8ne180100IDnNS_18__default_init_tagEEEOT_OT0_, symObjAddr: 0xF3B0, symBinAddr: 0x100013510, symSize: 0x40 }
  - { offset: 0x872F8, size: 0x8, addend: 0x0, symName: __ZNSt3__122__compressed_pair_elemIPdLi0ELb0EEC2B8ne180100IDnvEEOT_, symObjAddr: 0xF3F0, symBinAddr: 0x100013550, symSize: 0x1C }
  - { offset: 0x8733A, size: 0x8, addend: 0x0, symName: __ZNSt3__122__compressed_pair_elemINS_9allocatorIdEELi1ELb1EEC2B8ne180100ENS_18__default_init_tagE, symObjAddr: 0xF40C, symBinAddr: 0x10001356C, symSize: 0x2C }
  - { offset: 0x8736F, size: 0x8, addend: 0x0, symName: __ZNSt3__19allocatorIdEC2B8ne180100Ev, symObjAddr: 0xF438, symBinAddr: 0x100013598, symSize: 0x2C }
  - { offset: 0x87399, size: 0x8, addend: 0x0, symName: __ZNSt3__116__non_trivial_ifILb1ENS_9allocatorIdEEEC2B8ne180100Ev, symObjAddr: 0xF464, symBinAddr: 0x1000135C4, symSize: 0x14 }
  - { offset: 0x873C3, size: 0x8, addend: 0x0, symName: __ZNSt3__16vectorINS_12basic_stringIcNS_11char_traitsIcEENS_9allocatorIcEEEENS4_IS6_EEEC2B8ne180100Ev, symObjAddr: 0xF478, symBinAddr: 0x1000135D8, symSize: 0x4C }
  - { offset: 0x873ED, size: 0x8, addend: 0x0, symName: __ZNSt3__117__compressed_pairIPNS_12basic_stringIcNS_11char_traitsIcEENS_9allocatorIcEEEENS4_IS6_EEEC1B8ne180100IDnNS_18__default_init_tagEEEOT_OT0_, symObjAddr: 0xF4C4, symBinAddr: 0x100013624, symSize: 0x3C }
  - { offset: 0x87445, size: 0x8, addend: 0x0, symName: __ZNSt3__117__compressed_pairIPNS_12basic_stringIcNS_11char_traitsIcEENS_9allocatorIcEEEENS4_IS6_EEEC2B8ne180100IDnNS_18__default_init_tagEEEOT_OT0_, symObjAddr: 0xF500, symBinAddr: 0x100013660, symSize: 0x40 }
  - { offset: 0x8749D, size: 0x8, addend: 0x0, symName: __ZNSt3__122__compressed_pair_elemINS_9allocatorINS_12basic_stringIcNS_11char_traitsIcEENS1_IcEEEEEELi1ELb1EEC2B8ne180100ENS_18__default_init_tagE, symObjAddr: 0xF540, symBinAddr: 0x1000136A0, symSize: 0x2C }
  - { offset: 0x874D2, size: 0x8, addend: 0x0, symName: __ZNSt3__19allocatorINS_12basic_stringIcNS_11char_traitsIcEENS0_IcEEEEEC2B8ne180100Ev, symObjAddr: 0xF56C, symBinAddr: 0x1000136CC, symSize: 0x2C }
  - { offset: 0x874FC, size: 0x8, addend: 0x0, symName: __ZNSt3__116__non_trivial_ifILb1ENS_9allocatorINS_12basic_stringIcNS_11char_traitsIcEENS1_IcEEEEEEEC2B8ne180100Ev, symObjAddr: 0xF598, symBinAddr: 0x1000136F8, symSize: 0x14 }
  - { offset: 0x87526, size: 0x8, addend: 0x0, symName: __ZNSt3__16vectorIdNS_9allocatorIdEEED2B8ne180100Ev, symObjAddr: 0xF5AC, symBinAddr: 0x10001370C, symSize: 0x44 }
  - { offset: 0x87550, size: 0x8, addend: 0x0, symName: __ZNSt3__16vectorIdNS_9allocatorIdEEE16__destroy_vectorC1B8ne180100ERS3_, symObjAddr: 0xF5F0, symBinAddr: 0x100013750, symSize: 0x34 }
  - { offset: 0x87589, size: 0x8, addend: 0x0, symName: __ZNSt3__16vectorIdNS_9allocatorIdEEE16__destroy_vectorclB8ne180100Ev, symObjAddr: 0xF624, symBinAddr: 0x100013784, symSize: 0x90 }
  - { offset: 0x875AF, size: 0x8, addend: 0x0, symName: __ZNSt3__16vectorIdNS_9allocatorIdEEE16__destroy_vectorC2B8ne180100ERS3_, symObjAddr: 0xF6B4, symBinAddr: 0x100013814, symSize: 0x20 }
  - { offset: 0x875E8, size: 0x8, addend: 0x0, symName: __ZNSt3__16vectorIdNS_9allocatorIdEEE7__clearB8ne180100Ev, symObjAddr: 0xF6D4, symBinAddr: 0x100013834, symSize: 0x28 }
  - { offset: 0x8760E, size: 0x8, addend: 0x0, symName: __ZNKSt3__16vectorIdNS_9allocatorIdEEE17__annotate_deleteB8ne180100Ev, symObjAddr: 0xF6FC, symBinAddr: 0x10001385C, symSize: 0x10 }
  - { offset: 0x87634, size: 0x8, addend: 0x0, symName: __ZNSt3__116allocator_traitsINS_9allocatorIdEEE10deallocateB8ne180100ERS2_Pdm, symObjAddr: 0xF70C, symBinAddr: 0x10001386C, symSize: 0x34 }
  - { offset: 0x87676, size: 0x8, addend: 0x0, symName: __ZNSt3__16vectorIdNS_9allocatorIdEEE7__allocB8ne180100Ev, symObjAddr: 0xF740, symBinAddr: 0x1000138A0, symSize: 0x28 }
  - { offset: 0x8769C, size: 0x8, addend: 0x0, symName: __ZNKSt3__16vectorIdNS_9allocatorIdEEE8capacityB8ne180100Ev, symObjAddr: 0xF768, symBinAddr: 0x1000138C8, symSize: 0x40 }
  - { offset: 0x876C2, size: 0x8, addend: 0x0, symName: __ZNSt3__16vectorIdNS_9allocatorIdEEE22__base_destruct_at_endB8ne180100EPd, symObjAddr: 0xF7A8, symBinAddr: 0x100013908, symSize: 0x8C }
  - { offset: 0x87706, size: 0x8, addend: 0x0, symName: __ZNSt3__116allocator_traitsINS_9allocatorIdEEE7destroyB8ne180100IdvEEvRS2_PT_, symObjAddr: 0xF834, symBinAddr: 0x100013994, symSize: 0x2C }
  - { offset: 0x87743, size: 0x8, addend: 0x0, symName: __ZNSt3__19allocatorIdE7destroyB8ne180100EPd, symObjAddr: 0xF874, symBinAddr: 0x1000139D4, symSize: 0x14 }
  - { offset: 0x87777, size: 0x8, addend: 0x0, symName: __ZNSt3__19allocatorIdE10deallocateB8ne180100EPdm, symObjAddr: 0xF888, symBinAddr: 0x1000139E8, symSize: 0x40 }
  - { offset: 0x877B9, size: 0x8, addend: 0x0, symName: __ZNSt3__117__compressed_pairIPdNS_9allocatorIdEEE6secondB8ne180100Ev, symObjAddr: 0xF8C8, symBinAddr: 0x100013A28, symSize: 0x24 }
  - { offset: 0x877DF, size: 0x8, addend: 0x0, symName: __ZNSt3__122__compressed_pair_elemINS_9allocatorIdEELi1ELb1EE5__getB8ne180100Ev, symObjAddr: 0xF8EC, symBinAddr: 0x100013A4C, symSize: 0x14 }
  - { offset: 0x87805, size: 0x8, addend: 0x0, symName: __ZNKSt3__16vectorIdNS_9allocatorIdEEE9__end_capB8ne180100Ev, symObjAddr: 0xF900, symBinAddr: 0x100013A60, symSize: 0x28 }
  - { offset: 0x8782B, size: 0x8, addend: 0x0, symName: __ZNKSt3__117__compressed_pairIPdNS_9allocatorIdEEE5firstB8ne180100Ev, symObjAddr: 0xF928, symBinAddr: 0x100013A88, symSize: 0x24 }
  - { offset: 0x87851, size: 0x8, addend: 0x0, symName: __ZNKSt3__122__compressed_pair_elemIPdLi0ELb0EE5__getB8ne180100Ev, symObjAddr: 0xF94C, symBinAddr: 0x100013AAC, symSize: 0x14 }
  - { offset: 0x87877, size: 0x8, addend: 0x0, symName: __ZNSt3__16vectorINS_12basic_stringIcNS_11char_traitsIcEENS_9allocatorIcEEEENS4_IS6_EEED2B8ne180100Ev, symObjAddr: 0xF960, symBinAddr: 0x100013AC0, symSize: 0x40 }
  - { offset: 0x878A1, size: 0x8, addend: 0x0, symName: __ZNSt3__16vectorINS_12basic_stringIcNS_11char_traitsIcEENS_9allocatorIcEEEENS4_IS6_EEE22__construct_one_at_endB8ne180100IJRKS6_EEEvDpOT_, symObjAddr: 0xF9A0, symBinAddr: 0x100013B00, symSize: 0x90 }
  - { offset: 0x878F0, size: 0x8, addend: 0x0, symName: __ZNSt3__16vectorINS_12basic_stringIcNS_11char_traitsIcEENS_9allocatorIcEEEENS4_IS6_EEE21__push_back_slow_pathIRKS6_EEPS6_OT_, symObjAddr: 0xFA30, symBinAddr: 0x100013B90, symSize: 0xE8 }
  - { offset: 0x8794E, size: 0x8, addend: 0x0, symName: __ZNSt3__116allocator_traitsINS_9allocatorINS_12basic_stringIcNS_11char_traitsIcEENS1_IcEEEEEEE9constructB8ne180100IS6_JRKS6_EvEEvRS7_PT_DpOT0_, symObjAddr: 0xFB18, symBinAddr: 0x100013C78, symSize: 0x34 }
  - { offset: 0x879A5, size: 0x8, addend: 0x0, symName: __ZNSt3__19allocatorINS_12basic_stringIcNS_11char_traitsIcEENS0_IcEEEEE9constructB8ne180100IS5_JRKS5_EEEvPT_DpOT0_, symObjAddr: 0xFB4C, symBinAddr: 0x100013CAC, symSize: 0x30 }
  - { offset: 0x879FB, size: 0x8, addend: 0x0, symName: __ZNKSt3__16vectorINS_12basic_stringIcNS_11char_traitsIcEENS_9allocatorIcEEEENS4_IS6_EEE11__recommendB8ne180100Em, symObjAddr: 0xFB7C, symBinAddr: 0x100013CDC, symSize: 0xB4 }
  - { offset: 0x87A50, size: 0x8, addend: 0x0, symName: __ZNSt3__114__split_bufferINS_12basic_stringIcNS_11char_traitsIcEENS_9allocatorIcEEEERNS4_IS6_EEEC1EmmS8_, symObjAddr: 0xFC30, symBinAddr: 0x100013D90, symSize: 0x44 }
  - { offset: 0x87AA6, size: 0x8, addend: 0x0, symName: __ZNSt3__114__split_bufferINS_12basic_stringIcNS_11char_traitsIcEENS_9allocatorIcEEEERNS4_IS6_EEED1Ev, symObjAddr: 0xFD84, symBinAddr: 0x100013EE4, symSize: 0x2C }
  - { offset: 0x87AD2, size: 0x8, addend: 0x0, symName: __ZNSt3__114__split_bufferINS_12basic_stringIcNS_11char_traitsIcEENS_9allocatorIcEEEERNS4_IS6_EEEC2EmmS8_, symObjAddr: 0xFE30, symBinAddr: 0x100013F90, symSize: 0xE0 }
  - { offset: 0x87B46, size: 0x8, addend: 0x0, symName: __ZNSt3__117__compressed_pairIPNS_12basic_stringIcNS_11char_traitsIcEENS_9allocatorIcEEEERNS4_IS6_EEEC1B8ne180100IDnS9_EEOT_OT0_, symObjAddr: 0xFF10, symBinAddr: 0x100014070, symSize: 0x3C }
  - { offset: 0x87B9E, size: 0x8, addend: 0x0, symName: __ZNSt3__114__split_bufferINS_12basic_stringIcNS_11char_traitsIcEENS_9allocatorIcEEEERNS4_IS6_EEE7__allocB8ne180100Ev, symObjAddr: 0xFF4C, symBinAddr: 0x1000140AC, symSize: 0x28 }
  - { offset: 0x87BC4, size: 0x8, addend: 0x0, symName: __ZNSt3__114__split_bufferINS_12basic_stringIcNS_11char_traitsIcEENS_9allocatorIcEEEERNS4_IS6_EEE9__end_capB8ne180100Ev, symObjAddr: 0xFF74, symBinAddr: 0x1000140D4, symSize: 0x28 }
  - { offset: 0x87BEA, size: 0x8, addend: 0x0, symName: __ZNSt3__117__compressed_pairIPNS_12basic_stringIcNS_11char_traitsIcEENS_9allocatorIcEEEERNS4_IS6_EEEC2B8ne180100IDnS9_EEOT_OT0_, symObjAddr: 0xFF9C, symBinAddr: 0x1000140FC, symSize: 0x48 }
  - { offset: 0x87C42, size: 0x8, addend: 0x0, symName: __ZNSt3__122__compressed_pair_elemIRNS_9allocatorINS_12basic_stringIcNS_11char_traitsIcEENS1_IcEEEEEELi1ELb0EEC2B8ne180100IS8_vEEOT_, symObjAddr: 0xFFE4, symBinAddr: 0x100014144, symSize: 0x20 }
  - { offset: 0x87C84, size: 0x8, addend: 0x0, symName: __ZNSt3__117__compressed_pairIPNS_12basic_stringIcNS_11char_traitsIcEENS_9allocatorIcEEEERNS4_IS6_EEE6secondB8ne180100Ev, symObjAddr: 0x10004, symBinAddr: 0x100014164, symSize: 0x28 }
  - { offset: 0x87CAA, size: 0x8, addend: 0x0, symName: __ZNSt3__122__compressed_pair_elemIRNS_9allocatorINS_12basic_stringIcNS_11char_traitsIcEENS1_IcEEEEEELi1ELb0EE5__getB8ne180100Ev, symObjAddr: 0x1002C, symBinAddr: 0x10001418C, symSize: 0x18 }
  - { offset: 0x87CD0, size: 0x8, addend: 0x0, symName: __ZNSt3__117__compressed_pairIPNS_12basic_stringIcNS_11char_traitsIcEENS_9allocatorIcEEEERNS4_IS6_EEE5firstB8ne180100Ev, symObjAddr: 0x10044, symBinAddr: 0x1000141A4, symSize: 0x24 }
  - { offset: 0x87CF6, size: 0x8, addend: 0x0, symName: __ZNSt3__129_AllocatorDestroyRangeReverseINS_9allocatorINS_12basic_stringIcNS_11char_traitsIcEENS1_IcEEEEEENS_16reverse_iteratorIPS6_EEEC1B8ne180100ERS7_RSA_SD_, symObjAddr: 0x1020C, symBinAddr: 0x10001436C, symSize: 0x44 }
  - { offset: 0x87D53, size: 0x8, addend: 0x0, symName: __ZNSt3__116allocator_traitsINS_9allocatorINS_12basic_stringIcNS_11char_traitsIcEENS1_IcEEEEEEE9constructB8ne180100IS6_JS6_EvEEvRS7_PT_DpOT0_, symObjAddr: 0x10250, symBinAddr: 0x1000143B0, symSize: 0x34 }
  - { offset: 0x87DAA, size: 0x8, addend: 0x0, symName: __ZNSt3__128__exception_guard_exceptionsINS_29_AllocatorDestroyRangeReverseINS_9allocatorINS_12basic_stringIcNS_11char_traitsIcEENS2_IcEEEEEENS_16reverse_iteratorIPS7_EEEEE10__completeB8ne180100Ev, symObjAddr: 0x10284, symBinAddr: 0x1000143E4, symSize: 0x1C }
  - { offset: 0x87DD0, size: 0x8, addend: 0x0, symName: __ZNSt3__128__exception_guard_exceptionsINS_29_AllocatorDestroyRangeReverseINS_9allocatorINS_12basic_stringIcNS_11char_traitsIcEENS2_IcEEEEEENS_16reverse_iteratorIPS7_EEEEED1B8ne180100Ev, symObjAddr: 0x102A0, symBinAddr: 0x100014400, symSize: 0x2C }
  - { offset: 0x87DFA, size: 0x8, addend: 0x0, symName: __ZNSt3__128__exception_guard_exceptionsINS_29_AllocatorDestroyRangeReverseINS_9allocatorINS_12basic_stringIcNS_11char_traitsIcEENS2_IcEEEEEENS_16reverse_iteratorIPS7_EEEEEC1B8ne180100ESC_, symObjAddr: 0x102CC, symBinAddr: 0x10001442C, symSize: 0x34 }
  - { offset: 0x87E33, size: 0x8, addend: 0x0, symName: __ZNSt3__128__exception_guard_exceptionsINS_29_AllocatorDestroyRangeReverseINS_9allocatorINS_12basic_stringIcNS_11char_traitsIcEENS2_IcEEEEEENS_16reverse_iteratorIPS7_EEEEEC2B8ne180100ESC_, symObjAddr: 0x10300, symBinAddr: 0x100014460, symSize: 0x30 }
  - { offset: 0x87E6C, size: 0x8, addend: 0x0, symName: __ZNSt3__129_AllocatorDestroyRangeReverseINS_9allocatorINS_12basic_stringIcNS_11char_traitsIcEENS1_IcEEEEEENS_16reverse_iteratorIPS6_EEEC2B8ne180100ERS7_RSA_SD_, symObjAddr: 0x10330, symBinAddr: 0x100014490, symSize: 0x38 }
  - { offset: 0x87EC3, size: 0x8, addend: 0x0, symName: __ZNSt3__19allocatorINS_12basic_stringIcNS_11char_traitsIcEENS0_IcEEEEE9constructB8ne180100IS5_JS5_EEEvPT_DpOT0_, symObjAddr: 0x10368, symBinAddr: 0x1000144C8, symSize: 0x30 }
  - { offset: 0x87F19, size: 0x8, addend: 0x0, symName: __ZNSt3__128__exception_guard_exceptionsINS_29_AllocatorDestroyRangeReverseINS_9allocatorINS_12basic_stringIcNS_11char_traitsIcEENS2_IcEEEEEENS_16reverse_iteratorIPS7_EEEEED2B8ne180100Ev, symObjAddr: 0x10398, symBinAddr: 0x1000144F8, symSize: 0x50 }
  - { offset: 0x87F43, size: 0x8, addend: 0x0, symName: __ZNKSt3__129_AllocatorDestroyRangeReverseINS_9allocatorINS_12basic_stringIcNS_11char_traitsIcEENS1_IcEEEEEENS_16reverse_iteratorIPS6_EEEclB8ne180100Ev, symObjAddr: 0x103E8, symBinAddr: 0x100014548, symSize: 0xB4 }
  - { offset: 0x87F6A, size: 0x8, addend: 0x0, symName: __ZNSt3__116reverse_iteratorINS0_IPNS_12basic_stringIcNS_11char_traitsIcEENS_9allocatorIcEEEEEEEC1B8ne180100ES8_, symObjAddr: 0x1050C, symBinAddr: 0x10001466C, symSize: 0x3C }
  - { offset: 0x87FA2, size: 0x8, addend: 0x0, symName: __ZNSt3__116reverse_iteratorINS0_IPNS_12basic_stringIcNS_11char_traitsIcEENS_9allocatorIcEEEEEEEppB8ne180100Ev, symObjAddr: 0x105CC, symBinAddr: 0x10001472C, symSize: 0x30 }
  - { offset: 0x87FC8, size: 0x8, addend: 0x0, symName: __ZNKSt3__116reverse_iteratorINS0_IPNS_12basic_stringIcNS_11char_traitsIcEENS_9allocatorIcEEEEEEE4baseB8ne180100Ev, symObjAddr: 0x105FC, symBinAddr: 0x10001475C, symSize: 0x24 }
  - { offset: 0x87FF4, size: 0x8, addend: 0x0, symName: __ZNSt3__119__to_address_helperINS_16reverse_iteratorINS1_IPNS_12basic_stringIcNS_11char_traitsIcEENS_9allocatorIcEEEEEEEEvE6__callB8ne180100ERKSA_, symObjAddr: 0x10620, symBinAddr: 0x100014780, symSize: 0x38 }
  - { offset: 0x88017, size: 0x8, addend: 0x0, symName: __ZNKSt3__116reverse_iteratorINS0_IPNS_12basic_stringIcNS_11char_traitsIcEENS_9allocatorIcEEEEEEEptB8ne180100Ev, symObjAddr: 0x10658, symBinAddr: 0x1000147B8, symSize: 0x24 }
  - { offset: 0x8803D, size: 0x8, addend: 0x0, symName: __ZNKSt3__116reverse_iteratorINS0_IPNS_12basic_stringIcNS_11char_traitsIcEENS_9allocatorIcEEEEEEEdeB8ne180100Ev, symObjAddr: 0x1067C, symBinAddr: 0x1000147DC, symSize: 0x34 }
  - { offset: 0x88071, size: 0x8, addend: 0x0, symName: __ZNSt3__116reverse_iteratorIPNS_12basic_stringIcNS_11char_traitsIcEENS_9allocatorIcEEEEEmmB8ne180100Ev, symObjAddr: 0x106B0, symBinAddr: 0x100014810, symSize: 0x20 }
  - { offset: 0x88097, size: 0x8, addend: 0x0, symName: __ZNSt3__116reverse_iteratorINS0_IPNS_12basic_stringIcNS_11char_traitsIcEENS_9allocatorIcEEEEEEEC2B8ne180100ES8_, symObjAddr: 0x106D0, symBinAddr: 0x100014830, symSize: 0x2C }
  - { offset: 0x880CF, size: 0x8, addend: 0x0, symName: __ZNSt3__114__split_bufferINS_12basic_stringIcNS_11char_traitsIcEENS_9allocatorIcEEEERNS4_IS6_EEED2Ev, symObjAddr: 0x106FC, symBinAddr: 0x10001485C, symSize: 0x8C }
  - { offset: 0x880FB, size: 0x8, addend: 0x0, symName: __ZNSt3__114__split_bufferINS_12basic_stringIcNS_11char_traitsIcEENS_9allocatorIcEEEERNS4_IS6_EEE5clearB8ne180100Ev, symObjAddr: 0x10788, symBinAddr: 0x1000148E8, symSize: 0x28 }
  - { offset: 0x88121, size: 0x8, addend: 0x0, symName: __ZNKSt3__114__split_bufferINS_12basic_stringIcNS_11char_traitsIcEENS_9allocatorIcEEEERNS4_IS6_EEE8capacityB8ne180100Ev, symObjAddr: 0x107B0, symBinAddr: 0x100014910, symSize: 0x40 }
  - { offset: 0x88147, size: 0x8, addend: 0x0, symName: __ZNSt3__114__split_bufferINS_12basic_stringIcNS_11char_traitsIcEENS_9allocatorIcEEEERNS4_IS6_EEE17__destruct_at_endB8ne180100EPS6_, symObjAddr: 0x107F0, symBinAddr: 0x100014950, symSize: 0x2C }
  - { offset: 0x8817B, size: 0x8, addend: 0x0, symName: __ZNSt3__114__split_bufferINS_12basic_stringIcNS_11char_traitsIcEENS_9allocatorIcEEEERNS4_IS6_EEE17__destruct_at_endB8ne180100EPS6_NS_17integral_constantIbLb0EEE, symObjAddr: 0x1081C, symBinAddr: 0x10001497C, symSize: 0x80 }
  - { offset: 0x881BC, size: 0x8, addend: 0x0, symName: __ZNKSt3__114__split_bufferINS_12basic_stringIcNS_11char_traitsIcEENS_9allocatorIcEEEERNS4_IS6_EEE9__end_capB8ne180100Ev, symObjAddr: 0x1089C, symBinAddr: 0x1000149FC, symSize: 0x28 }
  - { offset: 0x881E2, size: 0x8, addend: 0x0, symName: __ZNKSt3__117__compressed_pairIPNS_12basic_stringIcNS_11char_traitsIcEENS_9allocatorIcEEEERNS4_IS6_EEE5firstB8ne180100Ev, symObjAddr: 0x108C4, symBinAddr: 0x100014A24, symSize: 0x24 }
  - { offset: 0x88208, size: 0x8, addend: 0x0, symName: __ZNKSt3__16vectorI18SingleJetCorrectorNS_9allocatorIS1_EEE17__annotate_shrinkB8ne180100Em, symObjAddr: 0x108E8, symBinAddr: 0x100014A48, symSize: 0x14 }
  - { offset: 0x8823D, size: 0x8, addend: 0x0, symName: __ZNSt3__16vectorINS_12basic_stringIcNS_11char_traitsIcEENS_9allocatorIcEEEENS4_IS6_EEE11__make_iterB8ne180100EPS6_, symObjAddr: 0x108FC, symBinAddr: 0x100014A5C, symSize: 0x30 }
  - { offset: 0x88272, size: 0x8, addend: 0x0, symName: __ZNSt3__111__wrap_iterIPNS_12basic_stringIcNS_11char_traitsIcEENS_9allocatorIcEEEEEC1B8ne180100ES7_, symObjAddr: 0x1092C, symBinAddr: 0x100014A8C, symSize: 0x34 }
  - { offset: 0x882AA, size: 0x8, addend: 0x0, symName: __ZNSt3__111__wrap_iterIPNS_12basic_stringIcNS_11char_traitsIcEENS_9allocatorIcEEEEEC2B8ne180100ES7_, symObjAddr: 0x10960, symBinAddr: 0x100014AC0, symSize: 0x20 }
  - { offset: 0x882E2, size: 0x8, addend: 0x0, symName: __ZNSt3__16vectorI18SingleJetCorrectorNS_9allocatorIS1_EEE9__end_capB8ne180100Ev, symObjAddr: 0x10980, symBinAddr: 0x100014AE0, symSize: 0x28 }
  - { offset: 0x8830E, size: 0x8, addend: 0x0, symName: __ZNSt3__16vectorI18SingleJetCorrectorNS_9allocatorIS1_EEE22__construct_one_at_endB8ne180100IJS1_EEEvDpOT_, symObjAddr: 0x109A8, symBinAddr: 0x100014B08, symSize: 0x90 }
  - { offset: 0x8835D, size: 0x8, addend: 0x0, symName: __ZNSt3__16vectorI18SingleJetCorrectorNS_9allocatorIS1_EEE21__push_back_slow_pathIS1_EEPS1_OT_, symObjAddr: 0x10A38, symBinAddr: 0x100014B98, symSize: 0xE8 }
  - { offset: 0x883BB, size: 0x8, addend: 0x0, symName: __ZNSt3__117__compressed_pairIP18SingleJetCorrectorNS_9allocatorIS1_EEE5firstB8ne180100Ev, symObjAddr: 0x10B20, symBinAddr: 0x100014C80, symSize: 0x24 }
  - { offset: 0x883E1, size: 0x8, addend: 0x0, symName: __ZNSt3__122__compressed_pair_elemIP18SingleJetCorrectorLi0ELb0EE5__getB8ne180100Ev, symObjAddr: 0x10B44, symBinAddr: 0x100014CA4, symSize: 0x14 }
  - { offset: 0x88422, size: 0x8, addend: 0x0, symName: __ZNSt3__16vectorI18SingleJetCorrectorNS_9allocatorIS1_EEE21_ConstructTransactionC1B8ne180100ERS4_m, symObjAddr: 0x10B58, symBinAddr: 0x100014CB8, symSize: 0x3C }
  - { offset: 0x8846A, size: 0x8, addend: 0x0, symName: __ZNSt3__116allocator_traitsINS_9allocatorI18SingleJetCorrectorEEE9constructB8ne180100IS2_JS2_EvEEvRS3_PT_DpOT0_, symObjAddr: 0x10B94, symBinAddr: 0x100014CF4, symSize: 0x34 }
  - { offset: 0x884C1, size: 0x8, addend: 0x0, symName: __ZNSt3__16vectorI18SingleJetCorrectorNS_9allocatorIS1_EEE21_ConstructTransactionD1B8ne180100Ev, symObjAddr: 0x10BC8, symBinAddr: 0x100014D28, symSize: 0x2C }
  - { offset: 0x884EB, size: 0x8, addend: 0x0, symName: __ZNSt3__16vectorI18SingleJetCorrectorNS_9allocatorIS1_EEE21_ConstructTransactionC2B8ne180100ERS4_m, symObjAddr: 0x10BF4, symBinAddr: 0x100014D54, symSize: 0x4C }
  - { offset: 0x88533, size: 0x8, addend: 0x0, symName: __ZNSt3__19allocatorI18SingleJetCorrectorE9constructB8ne180100IS1_JS1_EEEvPT_DpOT0_, symObjAddr: 0x10C40, symBinAddr: 0x100014DA0, symSize: 0x30 }
  - { offset: 0x88589, size: 0x8, addend: 0x0, symName: __ZN18SingleJetCorrectorC1ERKS_, symObjAddr: 0x10C70, symBinAddr: 0x100014DD0, symSize: 0x34 }
  - { offset: 0x885BE, size: 0x8, addend: 0x0, symName: __ZN18SingleJetCorrectorC2ERKS_, symObjAddr: 0x10CA4, symBinAddr: 0x100014E04, symSize: 0x1A4 }
  - { offset: 0x885F3, size: 0x8, addend: 0x0, symName: __ZNSt3__16vectorINS0_IdNS_9allocatorIdEEEENS1_IS3_EEEC1ERKS5_, symObjAddr: 0x10E48, symBinAddr: 0x100014FA8, symSize: 0x34 }
  - { offset: 0x8862E, size: 0x8, addend: 0x0, symName: __ZNSt3__16vectorINS0_IN18SingleJetCorrector4TypeENS_9allocatorIS2_EEEENS3_IS5_EEEC1ERKS7_, symObjAddr: 0x10E7C, symBinAddr: 0x100014FDC, symSize: 0x34 }
  - { offset: 0x88669, size: 0x8, addend: 0x0, symName: __ZNSt3__16vectorIP3TF1NS_9allocatorIS2_EEEC1ERKS5_, symObjAddr: 0x10EB0, symBinAddr: 0x100015010, symSize: 0x34 }
  - { offset: 0x886A4, size: 0x8, addend: 0x0, symName: __ZNSt3__16vectorINS0_IdNS_9allocatorIdEEEENS1_IS3_EEEC2ERKS5_, symObjAddr: 0x10EE4, symBinAddr: 0x100015044, symSize: 0x94 }
  - { offset: 0x886EA, size: 0x8, addend: 0x0, symName: __ZNSt3__116allocator_traitsINS_9allocatorINS_6vectorIdNS1_IdEEEEEEE37select_on_container_copy_constructionB8ne180100IS5_vvEES5_RKS5_, symObjAddr: 0x10F78, symBinAddr: 0x1000150D8, symSize: 0x10 }
  - { offset: 0x88719, size: 0x8, addend: 0x0, symName: __ZNKSt3__16vectorINS0_IdNS_9allocatorIdEEEENS1_IS3_EEE7__allocB8ne180100Ev, symObjAddr: 0x10F88, symBinAddr: 0x1000150E8, symSize: 0x28 }
  - { offset: 0x88745, size: 0x8, addend: 0x0, symName: __ZNSt3__117__compressed_pairIPNS_6vectorIdNS_9allocatorIdEEEENS2_IS4_EEEC1B8ne180100IDnS6_EEOT_OT0_, symObjAddr: 0x10FB0, symBinAddr: 0x100015110, symSize: 0x3C }
  - { offset: 0x8879D, size: 0x8, addend: 0x0, symName: __ZNSt3__16vectorINS0_IdNS_9allocatorIdEEEENS1_IS3_EEE16__init_with_sizeB8ne180100IPS3_S7_EEvT_T0_m, symObjAddr: 0x10FEC, symBinAddr: 0x10001514C, symSize: 0xB8 }
  - { offset: 0x88811, size: 0x8, addend: 0x0, symName: __ZNKSt3__16vectorINS0_IdNS_9allocatorIdEEEENS1_IS3_EEE4sizeB8ne180100Ev, symObjAddr: 0x110A4, symBinAddr: 0x100015204, symSize: 0x28 }
  - { offset: 0x88837, size: 0x8, addend: 0x0, symName: __ZNKSt3__117__compressed_pairIPNS_6vectorIdNS_9allocatorIdEEEENS2_IS4_EEE6secondB8ne180100Ev, symObjAddr: 0x110CC, symBinAddr: 0x10001522C, symSize: 0x24 }
  - { offset: 0x8885D, size: 0x8, addend: 0x0, symName: __ZNKSt3__122__compressed_pair_elemINS_9allocatorINS_6vectorIdNS1_IdEEEEEELi1ELb1EE5__getB8ne180100Ev, symObjAddr: 0x110F0, symBinAddr: 0x100015250, symSize: 0x14 }
  - { offset: 0x88883, size: 0x8, addend: 0x0, symName: __ZNSt3__117__compressed_pairIPNS_6vectorIdNS_9allocatorIdEEEENS2_IS4_EEEC2B8ne180100IDnS6_EEOT_OT0_, symObjAddr: 0x11104, symBinAddr: 0x100015264, symSize: 0x44 }
  - { offset: 0x888DB, size: 0x8, addend: 0x0, symName: __ZNSt3__122__compressed_pair_elemINS_9allocatorINS_6vectorIdNS1_IdEEEEEELi1ELb1EEC2B8ne180100IS5_vEEOT_, symObjAddr: 0x11148, symBinAddr: 0x1000152A8, symSize: 0x18 }
  - { offset: 0x8891D, size: 0x8, addend: 0x0, symName: __ZNSt3__16vectorINS0_IdNS_9allocatorIdEEEENS1_IS3_EEE11__vallocateB8ne180100Em, symObjAddr: 0x111A0, symBinAddr: 0x100015300, symSize: 0xB4 }
  - { offset: 0x88961, size: 0x8, addend: 0x0, symName: __ZNSt3__16vectorINS0_IdNS_9allocatorIdEEEENS1_IS3_EEE18__construct_at_endIPS3_S7_EEvT_T0_m, symObjAddr: 0x11254, symBinAddr: 0x1000153B4, symSize: 0x8C }
  - { offset: 0x889D7, size: 0x8, addend: 0x0, symName: __ZNSt3__128__exception_guard_exceptionsINS_6vectorINS1_IdNS_9allocatorIdEEEENS2_IS4_EEE16__destroy_vectorEE10__completeB8ne180100Ev, symObjAddr: 0x112E0, symBinAddr: 0x100015440, symSize: 0x1C }
  - { offset: 0x889FD, size: 0x8, addend: 0x0, symName: __ZNSt3__128__exception_guard_exceptionsINS_6vectorINS1_IdNS_9allocatorIdEEEENS2_IS4_EEE16__destroy_vectorEED1B8ne180100Ev, symObjAddr: 0x112FC, symBinAddr: 0x10001545C, symSize: 0x2C }
  - { offset: 0x88A27, size: 0x8, addend: 0x0, symName: __ZNSt3__128__exception_guard_exceptionsINS_6vectorINS1_IdNS_9allocatorIdEEEENS2_IS4_EEE16__destroy_vectorEEC1B8ne180100ES7_, symObjAddr: 0x11328, symBinAddr: 0x100015488, symSize: 0x34 }
  - { offset: 0x88A5F, size: 0x8, addend: 0x0, symName: __ZNSt3__128__exception_guard_exceptionsINS_6vectorINS1_IdNS_9allocatorIdEEEENS2_IS4_EEE16__destroy_vectorEEC2B8ne180100ES7_, symObjAddr: 0x1135C, symBinAddr: 0x1000154BC, symSize: 0x24 }
  - { offset: 0x88A97, size: 0x8, addend: 0x0, symName: __ZNKSt3__16vectorINS0_IdNS_9allocatorIdEEEENS1_IS3_EEE8max_sizeEv, symObjAddr: 0x11380, symBinAddr: 0x1000154E0, symSize: 0x60 }
  - { offset: 0x88ABF, size: 0x8, addend: 0x0, symName: __ZNKSt3__16vectorINS0_IdNS_9allocatorIdEEEENS1_IS3_EEE20__throw_length_errorB8ne180100Ev, symObjAddr: 0x113E0, symBinAddr: 0x100015540, symSize: 0x1C }
  - { offset: 0x88AE5, size: 0x8, addend: 0x0, symName: __ZNSt3__16vectorINS0_IdNS_9allocatorIdEEEENS1_IS3_EEE9__end_capB8ne180100Ev, symObjAddr: 0x1143C, symBinAddr: 0x10001559C, symSize: 0x28 }
  - { offset: 0x88B0B, size: 0x8, addend: 0x0, symName: __ZNKSt3__16vectorINS0_IdNS_9allocatorIdEEEENS1_IS3_EEE14__annotate_newB8ne180100Em, symObjAddr: 0x11464, symBinAddr: 0x1000155C4, symSize: 0x14 }
  - { offset: 0x88B40, size: 0x8, addend: 0x0, symName: __ZNSt3__116allocator_traitsINS_9allocatorINS_6vectorIdNS1_IdEEEEEEE8max_sizeB8ne180100IS5_vEEmRKS5_, symObjAddr: 0x11478, symBinAddr: 0x1000155D8, symSize: 0x24 }
  - { offset: 0x88B6E, size: 0x8, addend: 0x0, symName: __ZNKSt3__19allocatorINS_6vectorIdNS0_IdEEEEE8max_sizeB8ne180100Ev, symObjAddr: 0x1149C, symBinAddr: 0x1000155FC, symSize: 0x18 }
  - { offset: 0x88B94, size: 0x8, addend: 0x0, symName: __ZNSt3__19allocatorINS_6vectorIdNS0_IdEEEEE8allocateB8ne180100Em, symObjAddr: 0x114B4, symBinAddr: 0x100015614, symSize: 0x5C }
  - { offset: 0x88BC8, size: 0x8, addend: 0x0, symName: __ZNSt3__117__compressed_pairIPNS_6vectorIdNS_9allocatorIdEEEENS2_IS4_EEE5firstB8ne180100Ev, symObjAddr: 0x11510, symBinAddr: 0x100015670, symSize: 0x24 }
  - { offset: 0x88BEE, size: 0x8, addend: 0x0, symName: __ZNSt3__122__compressed_pair_elemIPNS_6vectorIdNS_9allocatorIdEEEELi0ELb0EE5__getB8ne180100Ev, symObjAddr: 0x11534, symBinAddr: 0x100015694, symSize: 0x14 }
  - { offset: 0x88C2F, size: 0x8, addend: 0x0, symName: __ZNSt3__16vectorINS0_IdNS_9allocatorIdEEEENS1_IS3_EEE21_ConstructTransactionC1B8ne180100ERS5_m, symObjAddr: 0x11548, symBinAddr: 0x1000156A8, symSize: 0x3C }
  - { offset: 0x88C77, size: 0x8, addend: 0x0, symName: __ZNSt3__16vectorINS0_IdNS_9allocatorIdEEEENS1_IS3_EEE21_ConstructTransactionD1B8ne180100Ev, symObjAddr: 0x11604, symBinAddr: 0x100015764, symSize: 0x2C }
  - { offset: 0x88CA1, size: 0x8, addend: 0x0, symName: __ZNSt3__16vectorINS0_IdNS_9allocatorIdEEEENS1_IS3_EEE21_ConstructTransactionC2B8ne180100ERS5_m, symObjAddr: 0x11630, symBinAddr: 0x100015790, symSize: 0x4C }
  - { offset: 0x88D0B, size: 0x8, addend: 0x0, symName: __ZNSt3__14pairIPNS_6vectorIdNS_9allocatorIdEEEES5_EC1B8ne180100IS5_S5_Li0EEEOT_OT0_, symObjAddr: 0x11868, symBinAddr: 0x1000159C8, symSize: 0x3C }
  - { offset: 0x88D69, size: 0x8, addend: 0x0, symName: __ZNSt3__14pairIPNS_6vectorIdNS_9allocatorIdEEEES5_EC2B8ne180100IS5_S5_Li0EEEOT_OT0_, symObjAddr: 0x118A4, symBinAddr: 0x100015A04, symSize: 0x34 }
  - { offset: 0x88DC7, size: 0x8, addend: 0x0, symName: __ZNSt3__129_AllocatorDestroyRangeReverseINS_9allocatorINS_6vectorIdNS1_IdEEEEEEPS4_EC1B8ne180100ERS5_RS6_S9_, symObjAddr: 0x11924, symBinAddr: 0x100015A84, symSize: 0x44 }
  - { offset: 0x88E1E, size: 0x8, addend: 0x0, symName: __ZNSt3__116allocator_traitsINS_9allocatorINS_6vectorIdNS1_IdEEEEEEE9constructB8ne180100IS4_JRS4_EvEEvRS5_PT_DpOT0_, symObjAddr: 0x11968, symBinAddr: 0x100015AC8, symSize: 0x34 }
  - { offset: 0x88E75, size: 0x8, addend: 0x0, symName: __ZNSt3__128__exception_guard_exceptionsINS_29_AllocatorDestroyRangeReverseINS_9allocatorINS_6vectorIdNS2_IdEEEEEEPS5_EEE10__completeB8ne180100Ev, symObjAddr: 0x1199C, symBinAddr: 0x100015AFC, symSize: 0x1C }
  - { offset: 0x88E9B, size: 0x8, addend: 0x0, symName: __ZNSt3__128__exception_guard_exceptionsINS_29_AllocatorDestroyRangeReverseINS_9allocatorINS_6vectorIdNS2_IdEEEEEEPS5_EEED1B8ne180100Ev, symObjAddr: 0x119B8, symBinAddr: 0x100015B18, symSize: 0x2C }
  - { offset: 0x88EC5, size: 0x8, addend: 0x0, symName: __ZNSt3__128__exception_guard_exceptionsINS_29_AllocatorDestroyRangeReverseINS_9allocatorINS_6vectorIdNS2_IdEEEEEEPS5_EEEC1B8ne180100ES8_, symObjAddr: 0x119E4, symBinAddr: 0x100015B44, symSize: 0x34 }
  - { offset: 0x88EFE, size: 0x8, addend: 0x0, symName: __ZNSt3__128__exception_guard_exceptionsINS_29_AllocatorDestroyRangeReverseINS_9allocatorINS_6vectorIdNS2_IdEEEEEEPS5_EEEC2B8ne180100ES8_, symObjAddr: 0x11A18, symBinAddr: 0x100015B78, symSize: 0x30 }
  - { offset: 0x88F37, size: 0x8, addend: 0x0, symName: __ZNSt3__129_AllocatorDestroyRangeReverseINS_9allocatorINS_6vectorIdNS1_IdEEEEEEPS4_EC2B8ne180100ERS5_RS6_S9_, symObjAddr: 0x11A48, symBinAddr: 0x100015BA8, symSize: 0x38 }
  - { offset: 0x88F8E, size: 0x8, addend: 0x0, symName: __ZNSt3__19allocatorINS_6vectorIdNS0_IdEEEEE9constructB8ne180100IS3_JRS3_EEEvPT_DpOT0_, symObjAddr: 0x11A80, symBinAddr: 0x100015BE0, symSize: 0x30 }
  - { offset: 0x88FE4, size: 0x8, addend: 0x0, symName: __ZNSt3__16vectorIdNS_9allocatorIdEEEC1ERKS3_, symObjAddr: 0x11AB0, symBinAddr: 0x100015C10, symSize: 0x34 }
  - { offset: 0x8901F, size: 0x8, addend: 0x0, symName: __ZNSt3__16vectorIdNS_9allocatorIdEEEC2ERKS3_, symObjAddr: 0x11AE4, symBinAddr: 0x100015C44, symSize: 0x94 }
  - { offset: 0x89065, size: 0x8, addend: 0x0, symName: __ZNSt3__116allocator_traitsINS_9allocatorIdEEE37select_on_container_copy_constructionB8ne180100IS2_vvEES2_RKS2_, symObjAddr: 0x11B78, symBinAddr: 0x100015CD8, symSize: 0x10 }
  - { offset: 0x89094, size: 0x8, addend: 0x0, symName: __ZNKSt3__16vectorIdNS_9allocatorIdEEE7__allocB8ne180100Ev, symObjAddr: 0x11B88, symBinAddr: 0x100015CE8, symSize: 0x28 }
  - { offset: 0x890C0, size: 0x8, addend: 0x0, symName: __ZNSt3__117__compressed_pairIPdNS_9allocatorIdEEEC1B8ne180100IDnS3_EEOT_OT0_, symObjAddr: 0x11BB0, symBinAddr: 0x100015D10, symSize: 0x3C }
  - { offset: 0x89118, size: 0x8, addend: 0x0, symName: __ZNSt3__16vectorIdNS_9allocatorIdEEE16__init_with_sizeB8ne180100IPdS5_EEvT_T0_m, symObjAddr: 0x11BEC, symBinAddr: 0x100015D4C, symSize: 0xB8 }
  - { offset: 0x8918C, size: 0x8, addend: 0x0, symName: __ZNKSt3__117__compressed_pairIPdNS_9allocatorIdEEE6secondB8ne180100Ev, symObjAddr: 0x11CA4, symBinAddr: 0x100015E04, symSize: 0x24 }
  - { offset: 0x891B2, size: 0x8, addend: 0x0, symName: __ZNKSt3__122__compressed_pair_elemINS_9allocatorIdEELi1ELb1EE5__getB8ne180100Ev, symObjAddr: 0x11CC8, symBinAddr: 0x100015E28, symSize: 0x14 }
  - { offset: 0x891D8, size: 0x8, addend: 0x0, symName: __ZNSt3__117__compressed_pairIPdNS_9allocatorIdEEEC2B8ne180100IDnS3_EEOT_OT0_, symObjAddr: 0x11CDC, symBinAddr: 0x100015E3C, symSize: 0x44 }
  - { offset: 0x89230, size: 0x8, addend: 0x0, symName: __ZNSt3__122__compressed_pair_elemINS_9allocatorIdEELi1ELb1EEC2B8ne180100IS2_vEEOT_, symObjAddr: 0x11D20, symBinAddr: 0x100015E80, symSize: 0x18 }
  - { offset: 0x89272, size: 0x8, addend: 0x0, symName: __ZNSt3__16vectorIdNS_9allocatorIdEEE11__vallocateB8ne180100Em, symObjAddr: 0x11D78, symBinAddr: 0x100015ED8, symSize: 0xAC }
  - { offset: 0x892B6, size: 0x8, addend: 0x0, symName: __ZNSt3__16vectorIdNS_9allocatorIdEEE18__construct_at_endIPdS5_EEvT_T0_m, symObjAddr: 0x11E24, symBinAddr: 0x100015F84, symSize: 0x8C }
  - { offset: 0x8932C, size: 0x8, addend: 0x0, symName: __ZNSt3__128__exception_guard_exceptionsINS_6vectorIdNS_9allocatorIdEEE16__destroy_vectorEE10__completeB8ne180100Ev, symObjAddr: 0x11EB0, symBinAddr: 0x100016010, symSize: 0x1C }
  - { offset: 0x89352, size: 0x8, addend: 0x0, symName: __ZNSt3__128__exception_guard_exceptionsINS_6vectorIdNS_9allocatorIdEEE16__destroy_vectorEED1B8ne180100Ev, symObjAddr: 0x11ECC, symBinAddr: 0x10001602C, symSize: 0x2C }
  - { offset: 0x8937C, size: 0x8, addend: 0x0, symName: __ZNSt3__128__exception_guard_exceptionsINS_6vectorIdNS_9allocatorIdEEE16__destroy_vectorEEC1B8ne180100ES5_, symObjAddr: 0x11EF8, symBinAddr: 0x100016058, symSize: 0x34 }
  - { offset: 0x893B4, size: 0x8, addend: 0x0, symName: __ZNSt3__128__exception_guard_exceptionsINS_6vectorIdNS_9allocatorIdEEE16__destroy_vectorEEC2B8ne180100ES5_, symObjAddr: 0x11F2C, symBinAddr: 0x10001608C, symSize: 0x24 }
  - { offset: 0x893EC, size: 0x8, addend: 0x0, symName: __ZNKSt3__16vectorIdNS_9allocatorIdEEE8max_sizeEv, symObjAddr: 0x11F50, symBinAddr: 0x1000160B0, symSize: 0x60 }
  - { offset: 0x89414, size: 0x8, addend: 0x0, symName: __ZNKSt3__16vectorIdNS_9allocatorIdEEE20__throw_length_errorB8ne180100Ev, symObjAddr: 0x11FB0, symBinAddr: 0x100016110, symSize: 0x1C }
  - { offset: 0x8943A, size: 0x8, addend: 0x0, symName: __ZNSt3__16vectorIdNS_9allocatorIdEEE9__end_capB8ne180100Ev, symObjAddr: 0x1200C, symBinAddr: 0x10001616C, symSize: 0x28 }
  - { offset: 0x89460, size: 0x8, addend: 0x0, symName: __ZNKSt3__16vectorIdNS_9allocatorIdEEE14__annotate_newB8ne180100Em, symObjAddr: 0x12034, symBinAddr: 0x100016194, symSize: 0x14 }
  - { offset: 0x89495, size: 0x8, addend: 0x0, symName: __ZNSt3__116allocator_traitsINS_9allocatorIdEEE8max_sizeB8ne180100IS2_vEEmRKS2_, symObjAddr: 0x12048, symBinAddr: 0x1000161A8, symSize: 0x24 }
  - { offset: 0x894C3, size: 0x8, addend: 0x0, symName: __ZNKSt3__19allocatorIdE8max_sizeB8ne180100Ev, symObjAddr: 0x1206C, symBinAddr: 0x1000161CC, symSize: 0x14 }
  - { offset: 0x894E9, size: 0x8, addend: 0x0, symName: __ZNSt3__19allocatorIdE8allocateB8ne180100Em, symObjAddr: 0x12080, symBinAddr: 0x1000161E0, symSize: 0x58 }
  - { offset: 0x8951D, size: 0x8, addend: 0x0, symName: __ZNSt3__117__compressed_pairIPdNS_9allocatorIdEEE5firstB8ne180100Ev, symObjAddr: 0x120D8, symBinAddr: 0x100016238, symSize: 0x24 }
  - { offset: 0x89543, size: 0x8, addend: 0x0, symName: __ZNSt3__122__compressed_pair_elemIPdLi0ELb0EE5__getB8ne180100Ev, symObjAddr: 0x120FC, symBinAddr: 0x10001625C, symSize: 0x14 }
  - { offset: 0x89584, size: 0x8, addend: 0x0, symName: __ZNSt3__16vectorIdNS_9allocatorIdEEE21_ConstructTransactionC1B8ne180100ERS3_m, symObjAddr: 0x12110, symBinAddr: 0x100016270, symSize: 0x3C }
  - { offset: 0x895CC, size: 0x8, addend: 0x0, symName: __ZNSt3__16vectorIdNS_9allocatorIdEEE21_ConstructTransactionD1B8ne180100Ev, symObjAddr: 0x121CC, symBinAddr: 0x10001632C, symSize: 0x2C }
  - { offset: 0x895F6, size: 0x8, addend: 0x0, symName: __ZNSt3__16vectorIdNS_9allocatorIdEEE21_ConstructTransactionC2B8ne180100ERS3_m, symObjAddr: 0x121F8, symBinAddr: 0x100016358, symSize: 0x44 }
  - { offset: 0x89660, size: 0x8, addend: 0x0, symName: __ZNSt3__14pairIPdS1_EC1B8ne180100IS1_S1_Li0EEEOT_OT0_, symObjAddr: 0x1236C, symBinAddr: 0x1000164CC, symSize: 0x3C }
  - { offset: 0x896BE, size: 0x8, addend: 0x0, symName: __ZNSt3__14pairIPdS1_EC2B8ne180100IS1_S1_Li0EEEOT_OT0_, symObjAddr: 0x123A8, symBinAddr: 0x100016508, symSize: 0x34 }
  - { offset: 0x89726, size: 0x8, addend: 0x0, symName: __ZNKSt3__114__copy_trivialclB8ne180100IddLi0EEENS_4pairIPT_PT0_EES4_S4_S6_, symObjAddr: 0x12558, symBinAddr: 0x1000166B8, symSize: 0x48 }
  - { offset: 0x8978E, size: 0x8, addend: 0x0, symName: __ZNSt3__14pairIPdS1_EC1B8ne180100IRS1_S1_Li0EEEOT_OT0_, symObjAddr: 0x126E8, symBinAddr: 0x100016848, symSize: 0x3C }
  - { offset: 0x897EC, size: 0x8, addend: 0x0, symName: __ZNSt3__14pairIPdS1_EC2B8ne180100IRS1_S1_Li0EEEOT_OT0_, symObjAddr: 0x12724, symBinAddr: 0x100016884, symSize: 0x34 }
  - { offset: 0x8984A, size: 0x8, addend: 0x0, symName: __ZNSt3__118__unwrap_iter_implIPdLb1EE8__unwrapB8ne180100ES1_, symObjAddr: 0x12758, symBinAddr: 0x1000168B8, symSize: 0x24 }
  - { offset: 0x8986D, size: 0x8, addend: 0x0, symName: __ZNSt3__118__unwrap_iter_implIPdLb1EE8__rewrapB8ne180100ES1_S1_, symObjAddr: 0x1277C, symBinAddr: 0x1000168DC, symSize: 0x50 }
  - { offset: 0x8989E, size: 0x8, addend: 0x0, symName: __ZNSt3__16vectorIdNS_9allocatorIdEEE21_ConstructTransactionD2B8ne180100Ev, symObjAddr: 0x127CC, symBinAddr: 0x10001692C, symSize: 0x20 }
  - { offset: 0x898C8, size: 0x8, addend: 0x0, symName: __ZNSt3__128__exception_guard_exceptionsINS_6vectorIdNS_9allocatorIdEEE16__destroy_vectorEED2B8ne180100Ev, symObjAddr: 0x127EC, symBinAddr: 0x10001694C, symSize: 0x48 }
  - { offset: 0x898F2, size: 0x8, addend: 0x0, symName: __ZNSt3__128__exception_guard_exceptionsINS_29_AllocatorDestroyRangeReverseINS_9allocatorINS_6vectorIdNS2_IdEEEEEEPS5_EEED2B8ne180100Ev, symObjAddr: 0x12834, symBinAddr: 0x100016994, symSize: 0x50 }
  - { offset: 0x8991C, size: 0x8, addend: 0x0, symName: __ZNKSt3__129_AllocatorDestroyRangeReverseINS_9allocatorINS_6vectorIdNS1_IdEEEEEEPS4_EclB8ne180100Ev, symObjAddr: 0x12884, symBinAddr: 0x1000169E4, symSize: 0x68 }
  - { offset: 0x89942, size: 0x8, addend: 0x0, symName: __ZNSt3__116reverse_iteratorIPNS_6vectorIdNS_9allocatorIdEEEEEC1B8ne180100ES5_, symObjAddr: 0x1295C, symBinAddr: 0x100016ABC, symSize: 0x34 }
  - { offset: 0x8997A, size: 0x8, addend: 0x0, symName: __ZNSt3__116reverse_iteratorIPNS_6vectorIdNS_9allocatorIdEEEEEppB8ne180100Ev, symObjAddr: 0x129FC, symBinAddr: 0x100016B5C, symSize: 0x20 }
  - { offset: 0x899A0, size: 0x8, addend: 0x0, symName: __ZNKSt3__116reverse_iteratorIPNS_6vectorIdNS_9allocatorIdEEEEE4baseB8ne180100Ev, symObjAddr: 0x12A1C, symBinAddr: 0x100016B7C, symSize: 0x18 }
  - { offset: 0x899CC, size: 0x8, addend: 0x0, symName: __ZNSt3__119__to_address_helperINS_16reverse_iteratorIPNS_6vectorIdNS_9allocatorIdEEEEEEvE6__callB8ne180100ERKS7_, symObjAddr: 0x12A34, symBinAddr: 0x100016B94, symSize: 0x38 }
  - { offset: 0x899EF, size: 0x8, addend: 0x0, symName: __ZNKSt3__116reverse_iteratorIPNS_6vectorIdNS_9allocatorIdEEEEEptB8ne180100Ev, symObjAddr: 0x12A6C, symBinAddr: 0x100016BCC, symSize: 0x24 }
  - { offset: 0x89A15, size: 0x8, addend: 0x0, symName: __ZNKSt3__116reverse_iteratorIPNS_6vectorIdNS_9allocatorIdEEEEEdeB8ne180100Ev, symObjAddr: 0x12A90, symBinAddr: 0x100016BF0, symSize: 0x28 }
  - { offset: 0x89A49, size: 0x8, addend: 0x0, symName: __ZNSt3__116reverse_iteratorIPNS_6vectorIdNS_9allocatorIdEEEEEC2B8ne180100ES5_, symObjAddr: 0x12AB8, symBinAddr: 0x100016C18, symSize: 0x28 }
  - { offset: 0x89A81, size: 0x8, addend: 0x0, symName: __ZNSt3__118__unwrap_iter_implIPNS_6vectorIdNS_9allocatorIdEEEELb1EE8__unwrapB8ne180100ES5_, symObjAddr: 0x12AE0, symBinAddr: 0x100016C40, symSize: 0x24 }
  - { offset: 0x89AA4, size: 0x8, addend: 0x0, symName: __ZNSt3__118__unwrap_iter_implIPNS_6vectorIdNS_9allocatorIdEEEELb1EE8__rewrapB8ne180100ES5_S5_, symObjAddr: 0x12B04, symBinAddr: 0x100016C64, symSize: 0x58 }
  - { offset: 0x89AD5, size: 0x8, addend: 0x0, symName: __ZNSt3__16vectorINS0_IdNS_9allocatorIdEEEENS1_IS3_EEE21_ConstructTransactionD2B8ne180100Ev, symObjAddr: 0x12B5C, symBinAddr: 0x100016CBC, symSize: 0x20 }
  - { offset: 0x89AFF, size: 0x8, addend: 0x0, symName: __ZNSt3__128__exception_guard_exceptionsINS_6vectorINS1_IdNS_9allocatorIdEEEENS2_IS4_EEE16__destroy_vectorEED2B8ne180100Ev, symObjAddr: 0x12B7C, symBinAddr: 0x100016CDC, symSize: 0x48 }
  - { offset: 0x89B29, size: 0x8, addend: 0x0, symName: __ZNSt3__16vectorINS0_IN18SingleJetCorrector4TypeENS_9allocatorIS2_EEEENS3_IS5_EEEC2ERKS7_, symObjAddr: 0x12BC4, symBinAddr: 0x100016D24, symSize: 0x94 }
  - { offset: 0x89B6F, size: 0x8, addend: 0x0, symName: __ZNSt3__116allocator_traitsINS_9allocatorINS_6vectorIN18SingleJetCorrector4TypeENS1_IS4_EEEEEEE37select_on_container_copy_constructionB8ne180100IS7_vvEES7_RKS7_, symObjAddr: 0x12C58, symBinAddr: 0x100016DB8, symSize: 0x10 }
  - { offset: 0x89B9E, size: 0x8, addend: 0x0, symName: __ZNKSt3__16vectorINS0_IN18SingleJetCorrector4TypeENS_9allocatorIS2_EEEENS3_IS5_EEE7__allocB8ne180100Ev, symObjAddr: 0x12C68, symBinAddr: 0x100016DC8, symSize: 0x28 }
  - { offset: 0x89BCA, size: 0x8, addend: 0x0, symName: __ZNSt3__117__compressed_pairIPNS_6vectorIN18SingleJetCorrector4TypeENS_9allocatorIS3_EEEENS4_IS6_EEEC1B8ne180100IDnS8_EEOT_OT0_, symObjAddr: 0x12C90, symBinAddr: 0x100016DF0, symSize: 0x3C }
  - { offset: 0x89C22, size: 0x8, addend: 0x0, symName: __ZNSt3__16vectorINS0_IN18SingleJetCorrector4TypeENS_9allocatorIS2_EEEENS3_IS5_EEE16__init_with_sizeB8ne180100IPS5_S9_EEvT_T0_m, symObjAddr: 0x12CCC, symBinAddr: 0x100016E2C, symSize: 0xB8 }
  - { offset: 0x89C96, size: 0x8, addend: 0x0, symName: __ZNKSt3__16vectorINS0_IN18SingleJetCorrector4TypeENS_9allocatorIS2_EEEENS3_IS5_EEE4sizeB8ne180100Ev, symObjAddr: 0x12D84, symBinAddr: 0x100016EE4, symSize: 0x28 }
  - { offset: 0x89CBC, size: 0x8, addend: 0x0, symName: __ZNKSt3__117__compressed_pairIPNS_6vectorIN18SingleJetCorrector4TypeENS_9allocatorIS3_EEEENS4_IS6_EEE6secondB8ne180100Ev, symObjAddr: 0x12DAC, symBinAddr: 0x100016F0C, symSize: 0x24 }
  - { offset: 0x89CE2, size: 0x8, addend: 0x0, symName: __ZNKSt3__122__compressed_pair_elemINS_9allocatorINS_6vectorIN18SingleJetCorrector4TypeENS1_IS4_EEEEEELi1ELb1EE5__getB8ne180100Ev, symObjAddr: 0x12DD0, symBinAddr: 0x100016F30, symSize: 0x14 }
  - { offset: 0x89D08, size: 0x8, addend: 0x0, symName: __ZNSt3__117__compressed_pairIPNS_6vectorIN18SingleJetCorrector4TypeENS_9allocatorIS3_EEEENS4_IS6_EEEC2B8ne180100IDnS8_EEOT_OT0_, symObjAddr: 0x12DE4, symBinAddr: 0x100016F44, symSize: 0x44 }
  - { offset: 0x89D60, size: 0x8, addend: 0x0, symName: __ZNSt3__122__compressed_pair_elemINS_9allocatorINS_6vectorIN18SingleJetCorrector4TypeENS1_IS4_EEEEEELi1ELb1EEC2B8ne180100IS7_vEEOT_, symObjAddr: 0x12E28, symBinAddr: 0x100016F88, symSize: 0x18 }
  - { offset: 0x89DA2, size: 0x8, addend: 0x0, symName: __ZNSt3__16vectorINS0_IN18SingleJetCorrector4TypeENS_9allocatorIS2_EEEENS3_IS5_EEE11__vallocateB8ne180100Em, symObjAddr: 0x12E80, symBinAddr: 0x100016FE0, symSize: 0xB4 }
  - { offset: 0x89DE6, size: 0x8, addend: 0x0, symName: __ZNSt3__16vectorINS0_IN18SingleJetCorrector4TypeENS_9allocatorIS2_EEEENS3_IS5_EEE18__construct_at_endIPS5_S9_EEvT_T0_m, symObjAddr: 0x12F34, symBinAddr: 0x100017094, symSize: 0x8C }
  - { offset: 0x89E5C, size: 0x8, addend: 0x0, symName: __ZNSt3__128__exception_guard_exceptionsINS_6vectorINS1_IN18SingleJetCorrector4TypeENS_9allocatorIS3_EEEENS4_IS6_EEE16__destroy_vectorEE10__completeB8ne180100Ev, symObjAddr: 0x12FC0, symBinAddr: 0x100017120, symSize: 0x1C }
  - { offset: 0x89E82, size: 0x8, addend: 0x0, symName: __ZNSt3__128__exception_guard_exceptionsINS_6vectorINS1_IN18SingleJetCorrector4TypeENS_9allocatorIS3_EEEENS4_IS6_EEE16__destroy_vectorEED1B8ne180100Ev, symObjAddr: 0x12FDC, symBinAddr: 0x10001713C, symSize: 0x2C }
  - { offset: 0x89EAC, size: 0x8, addend: 0x0, symName: __ZNSt3__128__exception_guard_exceptionsINS_6vectorINS1_IN18SingleJetCorrector4TypeENS_9allocatorIS3_EEEENS4_IS6_EEE16__destroy_vectorEEC1B8ne180100ES9_, symObjAddr: 0x13008, symBinAddr: 0x100017168, symSize: 0x34 }
  - { offset: 0x89EE4, size: 0x8, addend: 0x0, symName: __ZNSt3__128__exception_guard_exceptionsINS_6vectorINS1_IN18SingleJetCorrector4TypeENS_9allocatorIS3_EEEENS4_IS6_EEE16__destroy_vectorEEC2B8ne180100ES9_, symObjAddr: 0x1303C, symBinAddr: 0x10001719C, symSize: 0x24 }
  - { offset: 0x89F1C, size: 0x8, addend: 0x0, symName: __ZNKSt3__16vectorINS0_IN18SingleJetCorrector4TypeENS_9allocatorIS2_EEEENS3_IS5_EEE8max_sizeEv, symObjAddr: 0x13060, symBinAddr: 0x1000171C0, symSize: 0x60 }
  - { offset: 0x89F44, size: 0x8, addend: 0x0, symName: __ZNKSt3__16vectorINS0_IN18SingleJetCorrector4TypeENS_9allocatorIS2_EEEENS3_IS5_EEE20__throw_length_errorB8ne180100Ev, symObjAddr: 0x130C0, symBinAddr: 0x100017220, symSize: 0x1C }
  - { offset: 0x89F6A, size: 0x8, addend: 0x0, symName: __ZNSt3__16vectorINS0_IN18SingleJetCorrector4TypeENS_9allocatorIS2_EEEENS3_IS5_EEE9__end_capB8ne180100Ev, symObjAddr: 0x1311C, symBinAddr: 0x10001727C, symSize: 0x28 }
  - { offset: 0x89F90, size: 0x8, addend: 0x0, symName: __ZNKSt3__16vectorINS0_IN18SingleJetCorrector4TypeENS_9allocatorIS2_EEEENS3_IS5_EEE14__annotate_newB8ne180100Em, symObjAddr: 0x13144, symBinAddr: 0x1000172A4, symSize: 0x14 }
  - { offset: 0x89FC5, size: 0x8, addend: 0x0, symName: __ZNSt3__116allocator_traitsINS_9allocatorINS_6vectorIN18SingleJetCorrector4TypeENS1_IS4_EEEEEEE8max_sizeB8ne180100IS7_vEEmRKS7_, symObjAddr: 0x13158, symBinAddr: 0x1000172B8, symSize: 0x24 }
  - { offset: 0x89FF3, size: 0x8, addend: 0x0, symName: __ZNKSt3__19allocatorINS_6vectorIN18SingleJetCorrector4TypeENS0_IS3_EEEEE8max_sizeB8ne180100Ev, symObjAddr: 0x1317C, symBinAddr: 0x1000172DC, symSize: 0x18 }
  - { offset: 0x8A019, size: 0x8, addend: 0x0, symName: __ZNSt3__19allocatorINS_6vectorIN18SingleJetCorrector4TypeENS0_IS3_EEEEE8allocateB8ne180100Em, symObjAddr: 0x13194, symBinAddr: 0x1000172F4, symSize: 0x5C }
  - { offset: 0x8A04D, size: 0x8, addend: 0x0, symName: __ZNSt3__117__compressed_pairIPNS_6vectorIN18SingleJetCorrector4TypeENS_9allocatorIS3_EEEENS4_IS6_EEE5firstB8ne180100Ev, symObjAddr: 0x131F0, symBinAddr: 0x100017350, symSize: 0x24 }
  - { offset: 0x8A073, size: 0x8, addend: 0x0, symName: __ZNSt3__122__compressed_pair_elemIPNS_6vectorIN18SingleJetCorrector4TypeENS_9allocatorIS3_EEEELi0ELb0EE5__getB8ne180100Ev, symObjAddr: 0x13214, symBinAddr: 0x100017374, symSize: 0x14 }
  - { offset: 0x8A0B4, size: 0x8, addend: 0x0, symName: __ZNSt3__16vectorINS0_IN18SingleJetCorrector4TypeENS_9allocatorIS2_EEEENS3_IS5_EEE21_ConstructTransactionC1B8ne180100ERS7_m, symObjAddr: 0x13228, symBinAddr: 0x100017388, symSize: 0x3C }
  - { offset: 0x8A0FC, size: 0x8, addend: 0x0, symName: __ZNSt3__16vectorINS0_IN18SingleJetCorrector4TypeENS_9allocatorIS2_EEEENS3_IS5_EEE21_ConstructTransactionD1B8ne180100Ev, symObjAddr: 0x132E4, symBinAddr: 0x100017444, symSize: 0x2C }
  - { offset: 0x8A126, size: 0x8, addend: 0x0, symName: __ZNSt3__16vectorINS0_IN18SingleJetCorrector4TypeENS_9allocatorIS2_EEEENS3_IS5_EEE21_ConstructTransactionC2B8ne180100ERS7_m, symObjAddr: 0x13310, symBinAddr: 0x100017470, symSize: 0x4C }
  - { offset: 0x8A190, size: 0x8, addend: 0x0, symName: __ZNSt3__14pairIPNS_6vectorIN18SingleJetCorrector4TypeENS_9allocatorIS3_EEEES7_EC1B8ne180100IS7_S7_Li0EEEOT_OT0_, symObjAddr: 0x13548, symBinAddr: 0x1000176A8, symSize: 0x3C }
  - { offset: 0x8A1EE, size: 0x8, addend: 0x0, symName: __ZNSt3__14pairIPNS_6vectorIN18SingleJetCorrector4TypeENS_9allocatorIS3_EEEES7_EC2B8ne180100IS7_S7_Li0EEEOT_OT0_, symObjAddr: 0x13584, symBinAddr: 0x1000176E4, symSize: 0x34 }
  - { offset: 0x8A24C, size: 0x8, addend: 0x0, symName: __ZNSt3__129_AllocatorDestroyRangeReverseINS_9allocatorINS_6vectorIN18SingleJetCorrector4TypeENS1_IS4_EEEEEEPS6_EC1B8ne180100ERS7_RS8_SB_, symObjAddr: 0x13604, symBinAddr: 0x100017764, symSize: 0x44 }
  - { offset: 0x8A2A3, size: 0x8, addend: 0x0, symName: __ZNSt3__116allocator_traitsINS_9allocatorINS_6vectorIN18SingleJetCorrector4TypeENS1_IS4_EEEEEEE9constructB8ne180100IS6_JRS6_EvEEvRS7_PT_DpOT0_, symObjAddr: 0x13648, symBinAddr: 0x1000177A8, symSize: 0x34 }
  - { offset: 0x8A2FA, size: 0x8, addend: 0x0, symName: __ZNSt3__128__exception_guard_exceptionsINS_29_AllocatorDestroyRangeReverseINS_9allocatorINS_6vectorIN18SingleJetCorrector4TypeENS2_IS5_EEEEEEPS7_EEE10__completeB8ne180100Ev, symObjAddr: 0x1367C, symBinAddr: 0x1000177DC, symSize: 0x1C }
  - { offset: 0x8A320, size: 0x8, addend: 0x0, symName: __ZNSt3__128__exception_guard_exceptionsINS_29_AllocatorDestroyRangeReverseINS_9allocatorINS_6vectorIN18SingleJetCorrector4TypeENS2_IS5_EEEEEEPS7_EEED1B8ne180100Ev, symObjAddr: 0x13698, symBinAddr: 0x1000177F8, symSize: 0x2C }
  - { offset: 0x8A34A, size: 0x8, addend: 0x0, symName: __ZNSt3__128__exception_guard_exceptionsINS_29_AllocatorDestroyRangeReverseINS_9allocatorINS_6vectorIN18SingleJetCorrector4TypeENS2_IS5_EEEEEEPS7_EEEC1B8ne180100ESA_, symObjAddr: 0x136C4, symBinAddr: 0x100017824, symSize: 0x34 }
  - { offset: 0x8A383, size: 0x8, addend: 0x0, symName: __ZNSt3__128__exception_guard_exceptionsINS_29_AllocatorDestroyRangeReverseINS_9allocatorINS_6vectorIN18SingleJetCorrector4TypeENS2_IS5_EEEEEEPS7_EEEC2B8ne180100ESA_, symObjAddr: 0x136F8, symBinAddr: 0x100017858, symSize: 0x30 }
  - { offset: 0x8A3BC, size: 0x8, addend: 0x0, symName: __ZNSt3__129_AllocatorDestroyRangeReverseINS_9allocatorINS_6vectorIN18SingleJetCorrector4TypeENS1_IS4_EEEEEEPS6_EC2B8ne180100ERS7_RS8_SB_, symObjAddr: 0x13728, symBinAddr: 0x100017888, symSize: 0x38 }
  - { offset: 0x8A413, size: 0x8, addend: 0x0, symName: __ZNSt3__19allocatorINS_6vectorIN18SingleJetCorrector4TypeENS0_IS3_EEEEE9constructB8ne180100IS5_JRS5_EEEvPT_DpOT0_, symObjAddr: 0x13760, symBinAddr: 0x1000178C0, symSize: 0x30 }
  - { offset: 0x8A469, size: 0x8, addend: 0x0, symName: __ZNSt3__16vectorIN18SingleJetCorrector4TypeENS_9allocatorIS2_EEEC1ERKS5_, symObjAddr: 0x13790, symBinAddr: 0x1000178F0, symSize: 0x34 }
  - { offset: 0x8A4A4, size: 0x8, addend: 0x0, symName: __ZNSt3__16vectorIN18SingleJetCorrector4TypeENS_9allocatorIS2_EEEC2ERKS5_, symObjAddr: 0x137C4, symBinAddr: 0x100017924, symSize: 0x94 }
  - { offset: 0x8A4EA, size: 0x8, addend: 0x0, symName: __ZNSt3__116allocator_traitsINS_9allocatorIN18SingleJetCorrector4TypeEEEE37select_on_container_copy_constructionB8ne180100IS4_vvEES4_RKS4_, symObjAddr: 0x13858, symBinAddr: 0x1000179B8, symSize: 0x10 }
  - { offset: 0x8A519, size: 0x8, addend: 0x0, symName: __ZNKSt3__16vectorIN18SingleJetCorrector4TypeENS_9allocatorIS2_EEE7__allocB8ne180100Ev, symObjAddr: 0x13868, symBinAddr: 0x1000179C8, symSize: 0x28 }
  - { offset: 0x8A545, size: 0x8, addend: 0x0, symName: __ZNSt3__117__compressed_pairIPN18SingleJetCorrector4TypeENS_9allocatorIS2_EEEC1B8ne180100IDnS5_EEOT_OT0_, symObjAddr: 0x13890, symBinAddr: 0x1000179F0, symSize: 0x3C }
  - { offset: 0x8A59D, size: 0x8, addend: 0x0, symName: __ZNSt3__16vectorIN18SingleJetCorrector4TypeENS_9allocatorIS2_EEE16__init_with_sizeB8ne180100IPS2_S7_EEvT_T0_m, symObjAddr: 0x138CC, symBinAddr: 0x100017A2C, symSize: 0xB8 }
  - { offset: 0x8A611, size: 0x8, addend: 0x0, symName: __ZNKSt3__117__compressed_pairIPN18SingleJetCorrector4TypeENS_9allocatorIS2_EEE6secondB8ne180100Ev, symObjAddr: 0x13984, symBinAddr: 0x100017AE4, symSize: 0x24 }
  - { offset: 0x8A637, size: 0x8, addend: 0x0, symName: __ZNKSt3__122__compressed_pair_elemINS_9allocatorIN18SingleJetCorrector4TypeEEELi1ELb1EE5__getB8ne180100Ev, symObjAddr: 0x139A8, symBinAddr: 0x100017B08, symSize: 0x14 }
  - { offset: 0x8A65D, size: 0x8, addend: 0x0, symName: __ZNSt3__117__compressed_pairIPN18SingleJetCorrector4TypeENS_9allocatorIS2_EEEC2B8ne180100IDnS5_EEOT_OT0_, symObjAddr: 0x139BC, symBinAddr: 0x100017B1C, symSize: 0x44 }
  - { offset: 0x8A6B5, size: 0x8, addend: 0x0, symName: __ZNSt3__122__compressed_pair_elemIPN18SingleJetCorrector4TypeELi0ELb0EEC2B8ne180100IDnvEEOT_, symObjAddr: 0x13A00, symBinAddr: 0x100017B60, symSize: 0x1C }
  - { offset: 0x8A6F7, size: 0x8, addend: 0x0, symName: __ZNSt3__122__compressed_pair_elemINS_9allocatorIN18SingleJetCorrector4TypeEEELi1ELb1EEC2B8ne180100IS4_vEEOT_, symObjAddr: 0x13A1C, symBinAddr: 0x100017B7C, symSize: 0x18 }
  - { offset: 0x8A739, size: 0x8, addend: 0x0, symName: __ZNSt3__16vectorIN18SingleJetCorrector4TypeENS_9allocatorIS2_EEE16__destroy_vectorC1B8ne180100ERS5_, symObjAddr: 0x13A74, symBinAddr: 0x100017BD4, symSize: 0x34 }
  - { offset: 0x8A772, size: 0x8, addend: 0x0, symName: __ZNSt3__16vectorIN18SingleJetCorrector4TypeENS_9allocatorIS2_EEE11__vallocateB8ne180100Em, symObjAddr: 0x13AA8, symBinAddr: 0x100017C08, symSize: 0xAC }
  - { offset: 0x8A7B6, size: 0x8, addend: 0x0, symName: __ZNSt3__16vectorIN18SingleJetCorrector4TypeENS_9allocatorIS2_EEE18__construct_at_endIPS2_S7_EEvT_T0_m, symObjAddr: 0x13B54, symBinAddr: 0x100017CB4, symSize: 0x8C }
  - { offset: 0x8A82C, size: 0x8, addend: 0x0, symName: __ZNSt3__128__exception_guard_exceptionsINS_6vectorIN18SingleJetCorrector4TypeENS_9allocatorIS3_EEE16__destroy_vectorEE10__completeB8ne180100Ev, symObjAddr: 0x13BE0, symBinAddr: 0x100017D40, symSize: 0x1C }
  - { offset: 0x8A852, size: 0x8, addend: 0x0, symName: __ZNSt3__128__exception_guard_exceptionsINS_6vectorIN18SingleJetCorrector4TypeENS_9allocatorIS3_EEE16__destroy_vectorEED1B8ne180100Ev, symObjAddr: 0x13BFC, symBinAddr: 0x100017D5C, symSize: 0x2C }
  - { offset: 0x8A87C, size: 0x8, addend: 0x0, symName: __ZNSt3__128__exception_guard_exceptionsINS_6vectorIN18SingleJetCorrector4TypeENS_9allocatorIS3_EEE16__destroy_vectorEEC1B8ne180100ES7_, symObjAddr: 0x13C28, symBinAddr: 0x100017D88, symSize: 0x34 }
  - { offset: 0x8A8B4, size: 0x8, addend: 0x0, symName: __ZNSt3__128__exception_guard_exceptionsINS_6vectorIN18SingleJetCorrector4TypeENS_9allocatorIS3_EEE16__destroy_vectorEEC2B8ne180100ES7_, symObjAddr: 0x13C5C, symBinAddr: 0x100017DBC, symSize: 0x24 }
  - { offset: 0x8A8EC, size: 0x8, addend: 0x0, symName: __ZNSt3__16vectorIN18SingleJetCorrector4TypeENS_9allocatorIS2_EEE16__destroy_vectorC2B8ne180100ERS5_, symObjAddr: 0x13C80, symBinAddr: 0x100017DE0, symSize: 0x20 }
  - { offset: 0x8A925, size: 0x8, addend: 0x0, symName: __ZNKSt3__16vectorIN18SingleJetCorrector4TypeENS_9allocatorIS2_EEE8max_sizeEv, symObjAddr: 0x13CA0, symBinAddr: 0x100017E00, symSize: 0x60 }
  - { offset: 0x8A94D, size: 0x8, addend: 0x0, symName: __ZNKSt3__16vectorIN18SingleJetCorrector4TypeENS_9allocatorIS2_EEE20__throw_length_errorB8ne180100Ev, symObjAddr: 0x13D00, symBinAddr: 0x100017E60, symSize: 0x1C }
  - { offset: 0x8A973, size: 0x8, addend: 0x0, symName: __ZNSt3__16vectorIN18SingleJetCorrector4TypeENS_9allocatorIS2_EEE7__allocB8ne180100Ev, symObjAddr: 0x13D5C, symBinAddr: 0x100017EBC, symSize: 0x28 }
  - { offset: 0x8A999, size: 0x8, addend: 0x0, symName: __ZNSt3__16vectorIN18SingleJetCorrector4TypeENS_9allocatorIS2_EEE9__end_capB8ne180100Ev, symObjAddr: 0x13D84, symBinAddr: 0x100017EE4, symSize: 0x28 }
  - { offset: 0x8A9BF, size: 0x8, addend: 0x0, symName: __ZNKSt3__16vectorIN18SingleJetCorrector4TypeENS_9allocatorIS2_EEE14__annotate_newB8ne180100Em, symObjAddr: 0x13DAC, symBinAddr: 0x100017F0C, symSize: 0x14 }
  - { offset: 0x8A9F4, size: 0x8, addend: 0x0, symName: __ZNSt3__116allocator_traitsINS_9allocatorIN18SingleJetCorrector4TypeEEEE8max_sizeB8ne180100IS4_vEEmRKS4_, symObjAddr: 0x13DC0, symBinAddr: 0x100017F20, symSize: 0x24 }
  - { offset: 0x8AA22, size: 0x8, addend: 0x0, symName: __ZNKSt3__19allocatorIN18SingleJetCorrector4TypeEE8max_sizeB8ne180100Ev, symObjAddr: 0x13DE4, symBinAddr: 0x100017F44, symSize: 0x14 }
  - { offset: 0x8AA48, size: 0x8, addend: 0x0, symName: __ZNSt3__19allocatorIN18SingleJetCorrector4TypeEE8allocateB8ne180100Em, symObjAddr: 0x13DF8, symBinAddr: 0x100017F58, symSize: 0x58 }
  - { offset: 0x8AA7C, size: 0x8, addend: 0x0, symName: __ZNSt3__117__compressed_pairIPN18SingleJetCorrector4TypeENS_9allocatorIS2_EEE6secondB8ne180100Ev, symObjAddr: 0x13E50, symBinAddr: 0x100017FB0, symSize: 0x24 }
  - { offset: 0x8AAA2, size: 0x8, addend: 0x0, symName: __ZNSt3__122__compressed_pair_elemINS_9allocatorIN18SingleJetCorrector4TypeEEELi1ELb1EE5__getB8ne180100Ev, symObjAddr: 0x13E74, symBinAddr: 0x100017FD4, symSize: 0x14 }
  - { offset: 0x8AAC8, size: 0x8, addend: 0x0, symName: __ZNSt3__117__compressed_pairIPN18SingleJetCorrector4TypeENS_9allocatorIS2_EEE5firstB8ne180100Ev, symObjAddr: 0x13E88, symBinAddr: 0x100017FE8, symSize: 0x24 }
  - { offset: 0x8AAEE, size: 0x8, addend: 0x0, symName: __ZNSt3__122__compressed_pair_elemIPN18SingleJetCorrector4TypeELi0ELb0EE5__getB8ne180100Ev, symObjAddr: 0x13EAC, symBinAddr: 0x10001800C, symSize: 0x14 }
  - { offset: 0x8AB2F, size: 0x8, addend: 0x0, symName: __ZNSt3__16vectorIN18SingleJetCorrector4TypeENS_9allocatorIS2_EEE21_ConstructTransactionC1B8ne180100ERS5_m, symObjAddr: 0x13EC0, symBinAddr: 0x100018020, symSize: 0x3C }
  - { offset: 0x8AB77, size: 0x8, addend: 0x0, symName: __ZNSt3__16vectorIN18SingleJetCorrector4TypeENS_9allocatorIS2_EEE21_ConstructTransactionD1B8ne180100Ev, symObjAddr: 0x13F7C, symBinAddr: 0x1000180DC, symSize: 0x2C }
  - { offset: 0x8ABA1, size: 0x8, addend: 0x0, symName: __ZNSt3__16vectorIN18SingleJetCorrector4TypeENS_9allocatorIS2_EEE21_ConstructTransactionC2B8ne180100ERS5_m, symObjAddr: 0x13FA8, symBinAddr: 0x100018108, symSize: 0x44 }
  - { offset: 0x8AC0B, size: 0x8, addend: 0x0, symName: __ZNSt3__14pairIPN18SingleJetCorrector4TypeES3_EC1B8ne180100IS3_S3_Li0EEEOT_OT0_, symObjAddr: 0x1411C, symBinAddr: 0x10001827C, symSize: 0x3C }
  - { offset: 0x8AC69, size: 0x8, addend: 0x0, symName: __ZNSt3__14pairIPN18SingleJetCorrector4TypeES3_EC2B8ne180100IS3_S3_Li0EEEOT_OT0_, symObjAddr: 0x14158, symBinAddr: 0x1000182B8, symSize: 0x34 }
  - { offset: 0x8ACC7, size: 0x8, addend: 0x0, symName: __ZNKSt3__114__copy_trivialclB8ne180100IN18SingleJetCorrector4TypeES3_Li0EEENS_4pairIPT_PT0_EES6_S6_S8_, symObjAddr: 0x14308, symBinAddr: 0x100018468, symSize: 0x48 }
  - { offset: 0x8AD2F, size: 0x8, addend: 0x0, symName: __ZNSt3__14pairIPN18SingleJetCorrector4TypeES3_EC1B8ne180100IRS3_S3_Li0EEEOT_OT0_, symObjAddr: 0x14498, symBinAddr: 0x1000185F8, symSize: 0x3C }
  - { offset: 0x8AD8D, size: 0x8, addend: 0x0, symName: __ZNSt3__14pairIPN18SingleJetCorrector4TypeES3_EC2B8ne180100IRS3_S3_Li0EEEOT_OT0_, symObjAddr: 0x144D4, symBinAddr: 0x100018634, symSize: 0x34 }
  - { offset: 0x8ADEB, size: 0x8, addend: 0x0, symName: __ZNSt3__118__unwrap_iter_implIPN18SingleJetCorrector4TypeELb1EE8__unwrapB8ne180100ES3_, symObjAddr: 0x14508, symBinAddr: 0x100018668, symSize: 0x24 }
  - { offset: 0x8AE0E, size: 0x8, addend: 0x0, symName: __ZNSt3__118__unwrap_iter_implIPN18SingleJetCorrector4TypeELb1EE8__rewrapB8ne180100ES3_S3_, symObjAddr: 0x14540, symBinAddr: 0x1000186A0, symSize: 0x50 }
  - { offset: 0x8AE3F, size: 0x8, addend: 0x0, symName: __ZNSt3__16vectorIN18SingleJetCorrector4TypeENS_9allocatorIS2_EEE21_ConstructTransactionD2B8ne180100Ev, symObjAddr: 0x14590, symBinAddr: 0x1000186F0, symSize: 0x20 }
  - { offset: 0x8AE69, size: 0x8, addend: 0x0, symName: __ZNSt3__128__exception_guard_exceptionsINS_6vectorIN18SingleJetCorrector4TypeENS_9allocatorIS3_EEE16__destroy_vectorEED2B8ne180100Ev, symObjAddr: 0x145B0, symBinAddr: 0x100018710, symSize: 0x50 }
  - { offset: 0x8AE93, size: 0x8, addend: 0x0, symName: __ZNSt3__16vectorIN18SingleJetCorrector4TypeENS_9allocatorIS2_EEE16__destroy_vectorclB8ne180100Ev, symObjAddr: 0x14600, symBinAddr: 0x100018760, symSize: 0x90 }
  - { offset: 0x8AEB9, size: 0x8, addend: 0x0, symName: __ZNSt3__16vectorIN18SingleJetCorrector4TypeENS_9allocatorIS2_EEE7__clearB8ne180100Ev, symObjAddr: 0x14690, symBinAddr: 0x1000187F0, symSize: 0x28 }
  - { offset: 0x8AEDF, size: 0x8, addend: 0x0, symName: __ZNKSt3__16vectorIN18SingleJetCorrector4TypeENS_9allocatorIS2_EEE17__annotate_deleteB8ne180100Ev, symObjAddr: 0x146B8, symBinAddr: 0x100018818, symSize: 0x10 }
  - { offset: 0x8AF05, size: 0x8, addend: 0x0, symName: __ZNSt3__116allocator_traitsINS_9allocatorIN18SingleJetCorrector4TypeEEEE10deallocateB8ne180100ERS4_PS3_m, symObjAddr: 0x146C8, symBinAddr: 0x100018828, symSize: 0x34 }
  - { offset: 0x8AF47, size: 0x8, addend: 0x0, symName: __ZNKSt3__16vectorIN18SingleJetCorrector4TypeENS_9allocatorIS2_EEE8capacityB8ne180100Ev, symObjAddr: 0x146FC, symBinAddr: 0x10001885C, symSize: 0x40 }
  - { offset: 0x8AF6D, size: 0x8, addend: 0x0, symName: __ZNSt3__16vectorIN18SingleJetCorrector4TypeENS_9allocatorIS2_EEE22__base_destruct_at_endB8ne180100EPS2_, symObjAddr: 0x1473C, symBinAddr: 0x10001889C, symSize: 0x8C }
  - { offset: 0x8AFB1, size: 0x8, addend: 0x0, symName: __ZNSt3__116allocator_traitsINS_9allocatorIN18SingleJetCorrector4TypeEEEE7destroyB8ne180100IS3_vEEvRS4_PT_, symObjAddr: 0x147C8, symBinAddr: 0x100018928, symSize: 0x2C }
  - { offset: 0x8AFEE, size: 0x8, addend: 0x0, symName: __ZNSt3__19allocatorIN18SingleJetCorrector4TypeEE7destroyB8ne180100EPS2_, symObjAddr: 0x147F4, symBinAddr: 0x100018954, symSize: 0x14 }
  - { offset: 0x8B022, size: 0x8, addend: 0x0, symName: __ZNSt3__19allocatorIN18SingleJetCorrector4TypeEE10deallocateB8ne180100EPS2_m, symObjAddr: 0x14808, symBinAddr: 0x100018968, symSize: 0x40 }
  - { offset: 0x8B064, size: 0x8, addend: 0x0, symName: __ZNKSt3__16vectorIN18SingleJetCorrector4TypeENS_9allocatorIS2_EEE9__end_capB8ne180100Ev, symObjAddr: 0x14848, symBinAddr: 0x1000189A8, symSize: 0x28 }
  - { offset: 0x8B08A, size: 0x8, addend: 0x0, symName: __ZNKSt3__117__compressed_pairIPN18SingleJetCorrector4TypeENS_9allocatorIS2_EEE5firstB8ne180100Ev, symObjAddr: 0x14870, symBinAddr: 0x1000189D0, symSize: 0x24 }
  - { offset: 0x8B0B0, size: 0x8, addend: 0x0, symName: __ZNKSt3__122__compressed_pair_elemIPN18SingleJetCorrector4TypeELi0ELb0EE5__getB8ne180100Ev, symObjAddr: 0x14894, symBinAddr: 0x1000189F4, symSize: 0x14 }
  - { offset: 0x8B0D6, size: 0x8, addend: 0x0, symName: __ZNSt3__128__exception_guard_exceptionsINS_29_AllocatorDestroyRangeReverseINS_9allocatorINS_6vectorIN18SingleJetCorrector4TypeENS2_IS5_EEEEEEPS7_EEED2B8ne180100Ev, symObjAddr: 0x148A8, symBinAddr: 0x100018A08, symSize: 0x50 }
  - { offset: 0x8B100, size: 0x8, addend: 0x0, symName: __ZNKSt3__129_AllocatorDestroyRangeReverseINS_9allocatorINS_6vectorIN18SingleJetCorrector4TypeENS1_IS4_EEEEEEPS6_EclB8ne180100Ev, symObjAddr: 0x148F8, symBinAddr: 0x100018A58, symSize: 0x68 }
  - { offset: 0x8B126, size: 0x8, addend: 0x0, symName: __ZNSt3__116reverse_iteratorIPNS_6vectorIN18SingleJetCorrector4TypeENS_9allocatorIS3_EEEEEC1B8ne180100ES7_, symObjAddr: 0x149D0, symBinAddr: 0x100018B30, symSize: 0x34 }
  - { offset: 0x8B15E, size: 0x8, addend: 0x0, symName: __ZNSt3__116reverse_iteratorIPNS_6vectorIN18SingleJetCorrector4TypeENS_9allocatorIS3_EEEEEppB8ne180100Ev, symObjAddr: 0x14A70, symBinAddr: 0x100018BD0, symSize: 0x20 }
  - { offset: 0x8B184, size: 0x8, addend: 0x0, symName: __ZNKSt3__116reverse_iteratorIPNS_6vectorIN18SingleJetCorrector4TypeENS_9allocatorIS3_EEEEE4baseB8ne180100Ev, symObjAddr: 0x14A90, symBinAddr: 0x100018BF0, symSize: 0x18 }
  - { offset: 0x8B1B0, size: 0x8, addend: 0x0, symName: __ZNSt3__119__to_address_helperINS_16reverse_iteratorIPNS_6vectorIN18SingleJetCorrector4TypeENS_9allocatorIS4_EEEEEEvE6__callB8ne180100ERKS9_, symObjAddr: 0x14AA8, symBinAddr: 0x100018C08, symSize: 0x38 }
  - { offset: 0x8B1D3, size: 0x8, addend: 0x0, symName: __ZNKSt3__116reverse_iteratorIPNS_6vectorIN18SingleJetCorrector4TypeENS_9allocatorIS3_EEEEEptB8ne180100Ev, symObjAddr: 0x14AE0, symBinAddr: 0x100018C40, symSize: 0x24 }
  - { offset: 0x8B1F9, size: 0x8, addend: 0x0, symName: __ZNKSt3__116reverse_iteratorIPNS_6vectorIN18SingleJetCorrector4TypeENS_9allocatorIS3_EEEEEdeB8ne180100Ev, symObjAddr: 0x14B04, symBinAddr: 0x100018C64, symSize: 0x28 }
  - { offset: 0x8B22D, size: 0x8, addend: 0x0, symName: __ZNSt3__116reverse_iteratorIPNS_6vectorIN18SingleJetCorrector4TypeENS_9allocatorIS3_EEEEEC2B8ne180100ES7_, symObjAddr: 0x14B2C, symBinAddr: 0x100018C8C, symSize: 0x28 }
  - { offset: 0x8B265, size: 0x8, addend: 0x0, symName: __ZNSt3__118__unwrap_iter_implIPNS_6vectorIN18SingleJetCorrector4TypeENS_9allocatorIS3_EEEELb1EE8__unwrapB8ne180100ES7_, symObjAddr: 0x14B54, symBinAddr: 0x100018CB4, symSize: 0x24 }
  - { offset: 0x8B288, size: 0x8, addend: 0x0, symName: __ZNSt3__118__unwrap_iter_implIPNS_6vectorIN18SingleJetCorrector4TypeENS_9allocatorIS3_EEEELb1EE8__rewrapB8ne180100ES7_S7_, symObjAddr: 0x14B78, symBinAddr: 0x100018CD8, symSize: 0x58 }
  - { offset: 0x8B2B9, size: 0x8, addend: 0x0, symName: __ZNSt3__16vectorINS0_IN18SingleJetCorrector4TypeENS_9allocatorIS2_EEEENS3_IS5_EEE21_ConstructTransactionD2B8ne180100Ev, symObjAddr: 0x14BD0, symBinAddr: 0x100018D30, symSize: 0x20 }
  - { offset: 0x8B2E3, size: 0x8, addend: 0x0, symName: __ZNSt3__128__exception_guard_exceptionsINS_6vectorINS1_IN18SingleJetCorrector4TypeENS_9allocatorIS3_EEEENS4_IS6_EEE16__destroy_vectorEED2B8ne180100Ev, symObjAddr: 0x14BF0, symBinAddr: 0x100018D50, symSize: 0x48 }
  - { offset: 0x8B30D, size: 0x8, addend: 0x0, symName: __ZNSt3__16vectorIP3TF1NS_9allocatorIS2_EEEC2ERKS5_, symObjAddr: 0x14C38, symBinAddr: 0x100018D98, symSize: 0x94 }
  - { offset: 0x8B353, size: 0x8, addend: 0x0, symName: __ZNSt3__116allocator_traitsINS_9allocatorIP3TF1EEE37select_on_container_copy_constructionB8ne180100IS4_vvEES4_RKS4_, symObjAddr: 0x14CCC, symBinAddr: 0x100018E2C, symSize: 0x10 }
  - { offset: 0x8B382, size: 0x8, addend: 0x0, symName: __ZNKSt3__16vectorIP3TF1NS_9allocatorIS2_EEE7__allocB8ne180100Ev, symObjAddr: 0x14CDC, symBinAddr: 0x100018E3C, symSize: 0x28 }
  - { offset: 0x8B3AE, size: 0x8, addend: 0x0, symName: __ZNSt3__117__compressed_pairIPP3TF1NS_9allocatorIS2_EEEC1B8ne180100IDnS5_EEOT_OT0_, symObjAddr: 0x14D04, symBinAddr: 0x100018E64, symSize: 0x3C }
  - { offset: 0x8B406, size: 0x8, addend: 0x0, symName: __ZNSt3__16vectorIP3TF1NS_9allocatorIS2_EEE16__init_with_sizeB8ne180100IPS2_S7_EEvT_T0_m, symObjAddr: 0x14D40, symBinAddr: 0x100018EA0, symSize: 0xB8 }
  - { offset: 0x8B47A, size: 0x8, addend: 0x0, symName: __ZNKSt3__16vectorIP3TF1NS_9allocatorIS2_EEE4sizeB8ne180100Ev, symObjAddr: 0x14DF8, symBinAddr: 0x100018F58, symSize: 0x28 }
  - { offset: 0x8B4A0, size: 0x8, addend: 0x0, symName: __ZNKSt3__117__compressed_pairIPP3TF1NS_9allocatorIS2_EEE6secondB8ne180100Ev, symObjAddr: 0x14E20, symBinAddr: 0x100018F80, symSize: 0x24 }
  - { offset: 0x8B4C6, size: 0x8, addend: 0x0, symName: __ZNKSt3__122__compressed_pair_elemINS_9allocatorIP3TF1EELi1ELb1EE5__getB8ne180100Ev, symObjAddr: 0x14E44, symBinAddr: 0x100018FA4, symSize: 0x14 }
  - { offset: 0x8B4EC, size: 0x8, addend: 0x0, symName: __ZNSt3__117__compressed_pairIPP3TF1NS_9allocatorIS2_EEEC2B8ne180100IDnS5_EEOT_OT0_, symObjAddr: 0x14E58, symBinAddr: 0x100018FB8, symSize: 0x44 }
  - { offset: 0x8B544, size: 0x8, addend: 0x0, symName: __ZNSt3__122__compressed_pair_elemINS_9allocatorIP3TF1EELi1ELb1EEC2B8ne180100IS4_vEEOT_, symObjAddr: 0x14E9C, symBinAddr: 0x100018FFC, symSize: 0x18 }
  - { offset: 0x8B586, size: 0x8, addend: 0x0, symName: __ZNSt3__16vectorIP3TF1NS_9allocatorIS2_EEE11__vallocateB8ne180100Em, symObjAddr: 0x14EF4, symBinAddr: 0x100019054, symSize: 0xAC }
  - { offset: 0x8B5CA, size: 0x8, addend: 0x0, symName: __ZNSt3__16vectorIP3TF1NS_9allocatorIS2_EEE18__construct_at_endIPS2_S7_EEvT_T0_m, symObjAddr: 0x14FA0, symBinAddr: 0x100019100, symSize: 0x8C }
  - { offset: 0x8B640, size: 0x8, addend: 0x0, symName: __ZNSt3__128__exception_guard_exceptionsINS_6vectorIP3TF1NS_9allocatorIS3_EEE16__destroy_vectorEE10__completeB8ne180100Ev, symObjAddr: 0x1502C, symBinAddr: 0x10001918C, symSize: 0x1C }
  - { offset: 0x8B666, size: 0x8, addend: 0x0, symName: __ZNSt3__128__exception_guard_exceptionsINS_6vectorIP3TF1NS_9allocatorIS3_EEE16__destroy_vectorEED1B8ne180100Ev, symObjAddr: 0x15048, symBinAddr: 0x1000191A8, symSize: 0x2C }
  - { offset: 0x8B690, size: 0x8, addend: 0x0, symName: __ZNSt3__128__exception_guard_exceptionsINS_6vectorIP3TF1NS_9allocatorIS3_EEE16__destroy_vectorEEC1B8ne180100ES7_, symObjAddr: 0x15074, symBinAddr: 0x1000191D4, symSize: 0x34 }
  - { offset: 0x8B6C8, size: 0x8, addend: 0x0, symName: __ZNSt3__128__exception_guard_exceptionsINS_6vectorIP3TF1NS_9allocatorIS3_EEE16__destroy_vectorEEC2B8ne180100ES7_, symObjAddr: 0x150A8, symBinAddr: 0x100019208, symSize: 0x24 }
  - { offset: 0x8B700, size: 0x8, addend: 0x0, symName: __ZNKSt3__16vectorIP3TF1NS_9allocatorIS2_EEE8max_sizeEv, symObjAddr: 0x150CC, symBinAddr: 0x10001922C, symSize: 0x60 }
  - { offset: 0x8B728, size: 0x8, addend: 0x0, symName: __ZNKSt3__16vectorIP3TF1NS_9allocatorIS2_EEE20__throw_length_errorB8ne180100Ev, symObjAddr: 0x1512C, symBinAddr: 0x10001928C, symSize: 0x1C }
  - { offset: 0x8B74E, size: 0x8, addend: 0x0, symName: __ZNSt3__16vectorIP3TF1NS_9allocatorIS2_EEE9__end_capB8ne180100Ev, symObjAddr: 0x15188, symBinAddr: 0x1000192E8, symSize: 0x28 }
  - { offset: 0x8B774, size: 0x8, addend: 0x0, symName: __ZNKSt3__16vectorIP3TF1NS_9allocatorIS2_EEE14__annotate_newB8ne180100Em, symObjAddr: 0x151B0, symBinAddr: 0x100019310, symSize: 0x14 }
  - { offset: 0x8B7A9, size: 0x8, addend: 0x0, symName: __ZNSt3__116allocator_traitsINS_9allocatorIP3TF1EEE8max_sizeB8ne180100IS4_vEEmRKS4_, symObjAddr: 0x151C4, symBinAddr: 0x100019324, symSize: 0x24 }
  - { offset: 0x8B7D7, size: 0x8, addend: 0x0, symName: __ZNKSt3__19allocatorIP3TF1E8max_sizeB8ne180100Ev, symObjAddr: 0x151E8, symBinAddr: 0x100019348, symSize: 0x14 }
  - { offset: 0x8B7FD, size: 0x8, addend: 0x0, symName: __ZNSt3__19allocatorIP3TF1E8allocateB8ne180100Em, symObjAddr: 0x151FC, symBinAddr: 0x10001935C, symSize: 0x58 }
  - { offset: 0x8B831, size: 0x8, addend: 0x0, symName: __ZNSt3__117__compressed_pairIPP3TF1NS_9allocatorIS2_EEE5firstB8ne180100Ev, symObjAddr: 0x15254, symBinAddr: 0x1000193B4, symSize: 0x24 }
  - { offset: 0x8B857, size: 0x8, addend: 0x0, symName: __ZNSt3__122__compressed_pair_elemIPP3TF1Li0ELb0EE5__getB8ne180100Ev, symObjAddr: 0x15278, symBinAddr: 0x1000193D8, symSize: 0x14 }
  - { offset: 0x8B898, size: 0x8, addend: 0x0, symName: __ZNSt3__16vectorIP3TF1NS_9allocatorIS2_EEE21_ConstructTransactionC1B8ne180100ERS5_m, symObjAddr: 0x1528C, symBinAddr: 0x1000193EC, symSize: 0x3C }
  - { offset: 0x8B8E0, size: 0x8, addend: 0x0, symName: __ZNSt3__16vectorIP3TF1NS_9allocatorIS2_EEE21_ConstructTransactionD1B8ne180100Ev, symObjAddr: 0x15348, symBinAddr: 0x1000194A8, symSize: 0x2C }
  - { offset: 0x8B90A, size: 0x8, addend: 0x0, symName: __ZNSt3__16vectorIP3TF1NS_9allocatorIS2_EEE21_ConstructTransactionC2B8ne180100ERS5_m, symObjAddr: 0x15374, symBinAddr: 0x1000194D4, symSize: 0x44 }
  - { offset: 0x8B974, size: 0x8, addend: 0x0, symName: __ZNSt3__14pairIPP3TF1S3_EC1B8ne180100IS3_S3_Li0EEEOT_OT0_, symObjAddr: 0x154E8, symBinAddr: 0x100019648, symSize: 0x3C }
  - { offset: 0x8B9D2, size: 0x8, addend: 0x0, symName: __ZNSt3__14pairIPP3TF1S3_EC2B8ne180100IS3_S3_Li0EEEOT_OT0_, symObjAddr: 0x15524, symBinAddr: 0x100019684, symSize: 0x34 }
  - { offset: 0x8BA30, size: 0x8, addend: 0x0, symName: __ZNKSt3__114__copy_trivialclB8ne180100IP3TF1S3_Li0EEENS_4pairIPT_PT0_EES6_S6_S8_, symObjAddr: 0x156D4, symBinAddr: 0x100019834, symSize: 0x48 }
  - { offset: 0x8BA98, size: 0x8, addend: 0x0, symName: __ZNSt3__14pairIPP3TF1S3_EC1B8ne180100IRS3_S3_Li0EEEOT_OT0_, symObjAddr: 0x15864, symBinAddr: 0x1000199C4, symSize: 0x3C }
  - { offset: 0x8BAF6, size: 0x8, addend: 0x0, symName: __ZNSt3__14pairIPP3TF1S3_EC2B8ne180100IRS3_S3_Li0EEEOT_OT0_, symObjAddr: 0x158A0, symBinAddr: 0x100019A00, symSize: 0x34 }
  - { offset: 0x8BB54, size: 0x8, addend: 0x0, symName: __ZNSt3__118__unwrap_iter_implIPP3TF1Lb1EE8__unwrapB8ne180100ES3_, symObjAddr: 0x158D4, symBinAddr: 0x100019A34, symSize: 0x24 }
  - { offset: 0x8BB77, size: 0x8, addend: 0x0, symName: __ZNSt3__118__unwrap_iter_implIPP3TF1Lb1EE8__rewrapB8ne180100ES3_S3_, symObjAddr: 0x158F8, symBinAddr: 0x100019A58, symSize: 0x50 }
  - { offset: 0x8BBA8, size: 0x8, addend: 0x0, symName: __ZNSt3__16vectorIP3TF1NS_9allocatorIS2_EEE21_ConstructTransactionD2B8ne180100Ev, symObjAddr: 0x15948, symBinAddr: 0x100019AA8, symSize: 0x20 }
  - { offset: 0x8BBD2, size: 0x8, addend: 0x0, symName: __ZNSt3__128__exception_guard_exceptionsINS_6vectorIP3TF1NS_9allocatorIS3_EEE16__destroy_vectorEED2B8ne180100Ev, symObjAddr: 0x15968, symBinAddr: 0x100019AC8, symSize: 0x48 }
  - { offset: 0x8BBFC, size: 0x8, addend: 0x0, symName: __ZNSt3__16vectorI18SingleJetCorrectorNS_9allocatorIS1_EEE21_ConstructTransactionD2B8ne180100Ev, symObjAddr: 0x159B0, symBinAddr: 0x100019B10, symSize: 0x20 }
  - { offset: 0x8BC26, size: 0x8, addend: 0x0, symName: __ZNKSt3__16vectorI18SingleJetCorrectorNS_9allocatorIS1_EEE11__recommendB8ne180100Em, symObjAddr: 0x159D0, symBinAddr: 0x100019B30, symSize: 0xB4 }
  - { offset: 0x8BC7B, size: 0x8, addend: 0x0, symName: __ZNSt3__114__split_bufferI18SingleJetCorrectorRNS_9allocatorIS1_EEEC1EmmS4_, symObjAddr: 0x15A84, symBinAddr: 0x100019BE4, symSize: 0x44 }
  - { offset: 0x8BCD1, size: 0x8, addend: 0x0, symName: __ZNSt3__114__split_bufferI18SingleJetCorrectorRNS_9allocatorIS1_EEED1Ev, symObjAddr: 0x15BD8, symBinAddr: 0x100019D38, symSize: 0x2C }
  - { offset: 0x8BCFD, size: 0x8, addend: 0x0, symName: __ZNKSt3__16vectorI18SingleJetCorrectorNS_9allocatorIS1_EEE8max_sizeEv, symObjAddr: 0x15C04, symBinAddr: 0x100019D64, symSize: 0x60 }
  - { offset: 0x8BD25, size: 0x8, addend: 0x0, symName: __ZNKSt3__16vectorI18SingleJetCorrectorNS_9allocatorIS1_EEE20__throw_length_errorB8ne180100Ev, symObjAddr: 0x15C64, symBinAddr: 0x100019DC4, symSize: 0x1C }
  - { offset: 0x8BD56, size: 0x8, addend: 0x0, symName: __ZNSt3__116allocator_traitsINS_9allocatorI18SingleJetCorrectorEEE8max_sizeB8ne180100IS3_vEEmRKS3_, symObjAddr: 0x15C80, symBinAddr: 0x100019DE0, symSize: 0x24 }
  - { offset: 0x8BD84, size: 0x8, addend: 0x0, symName: __ZNKSt3__16vectorI18SingleJetCorrectorNS_9allocatorIS1_EEE7__allocB8ne180100Ev, symObjAddr: 0x15CA4, symBinAddr: 0x100019E04, symSize: 0x28 }
  - { offset: 0x8BDAA, size: 0x8, addend: 0x0, symName: __ZNKSt3__19allocatorI18SingleJetCorrectorE8max_sizeB8ne180100Ev, symObjAddr: 0x15CCC, symBinAddr: 0x100019E2C, symSize: 0x18 }
  - { offset: 0x8BDD0, size: 0x8, addend: 0x0, symName: __ZNKSt3__117__compressed_pairIP18SingleJetCorrectorNS_9allocatorIS1_EEE6secondB8ne180100Ev, symObjAddr: 0x15CE4, symBinAddr: 0x100019E44, symSize: 0x24 }
  - { offset: 0x8BDF6, size: 0x8, addend: 0x0, symName: __ZNKSt3__122__compressed_pair_elemINS_9allocatorI18SingleJetCorrectorEELi1ELb1EE5__getB8ne180100Ev, symObjAddr: 0x15D08, symBinAddr: 0x100019E68, symSize: 0x14 }
  - { offset: 0x8BE1C, size: 0x8, addend: 0x0, symName: __ZNSt3__114__split_bufferI18SingleJetCorrectorRNS_9allocatorIS1_EEEC2EmmS4_, symObjAddr: 0x15D1C, symBinAddr: 0x100019E7C, symSize: 0xE0 }
  - { offset: 0x8BE90, size: 0x8, addend: 0x0, symName: __ZNSt3__117__compressed_pairIP18SingleJetCorrectorRNS_9allocatorIS1_EEEC1B8ne180100IDnS5_EEOT_OT0_, symObjAddr: 0x15DFC, symBinAddr: 0x100019F5C, symSize: 0x3C }
  - { offset: 0x8BEE8, size: 0x8, addend: 0x0, symName: __ZNSt3__114__split_bufferI18SingleJetCorrectorRNS_9allocatorIS1_EEE7__allocB8ne180100Ev, symObjAddr: 0x15E78, symBinAddr: 0x100019FD8, symSize: 0x28 }
  - { offset: 0x8BF0E, size: 0x8, addend: 0x0, symName: __ZNSt3__114__split_bufferI18SingleJetCorrectorRNS_9allocatorIS1_EEE9__end_capB8ne180100Ev, symObjAddr: 0x15EA0, symBinAddr: 0x10001A000, symSize: 0x28 }
  - { offset: 0x8BF34, size: 0x8, addend: 0x0, symName: __ZNSt3__117__compressed_pairIP18SingleJetCorrectorRNS_9allocatorIS1_EEEC2B8ne180100IDnS5_EEOT_OT0_, symObjAddr: 0x15EC8, symBinAddr: 0x10001A028, symSize: 0x48 }
  - { offset: 0x8BF8C, size: 0x8, addend: 0x0, symName: __ZNSt3__122__compressed_pair_elemIRNS_9allocatorI18SingleJetCorrectorEELi1ELb0EEC2B8ne180100IS4_vEEOT_, symObjAddr: 0x15F10, symBinAddr: 0x10001A070, symSize: 0x20 }
  - { offset: 0x8BFCE, size: 0x8, addend: 0x0, symName: __ZNSt3__19allocatorI18SingleJetCorrectorE8allocateB8ne180100Em, symObjAddr: 0x15F30, symBinAddr: 0x10001A090, symSize: 0x5C }
  - { offset: 0x8C002, size: 0x8, addend: 0x0, symName: __ZNSt3__117__compressed_pairIP18SingleJetCorrectorRNS_9allocatorIS1_EEE6secondB8ne180100Ev, symObjAddr: 0x15F8C, symBinAddr: 0x10001A0EC, symSize: 0x28 }
  - { offset: 0x8C028, size: 0x8, addend: 0x0, symName: __ZNSt3__122__compressed_pair_elemIRNS_9allocatorI18SingleJetCorrectorEELi1ELb0EE5__getB8ne180100Ev, symObjAddr: 0x15FB4, symBinAddr: 0x10001A114, symSize: 0x18 }
  - { offset: 0x8C04E, size: 0x8, addend: 0x0, symName: __ZNSt3__117__compressed_pairIP18SingleJetCorrectorRNS_9allocatorIS1_EEE5firstB8ne180100Ev, symObjAddr: 0x15FCC, symBinAddr: 0x10001A12C, symSize: 0x24 }
  - { offset: 0x8C074, size: 0x8, addend: 0x0, symName: __ZNSt3__116reverse_iteratorIP18SingleJetCorrectorEC1B8ne180100ES2_, symObjAddr: 0x1611C, symBinAddr: 0x10001A27C, symSize: 0x34 }
  - { offset: 0x8C0AC, size: 0x8, addend: 0x0, symName: __ZNKSt3__116reverse_iteratorIP18SingleJetCorrectorE4baseB8ne180100Ev, symObjAddr: 0x16150, symBinAddr: 0x10001A2B0, symSize: 0x18 }
  - { offset: 0x8C0D2, size: 0x8, addend: 0x0, symName: __ZNKSt3__16vectorI18SingleJetCorrectorNS_9allocatorIS1_EEE14__annotate_newB8ne180100Em, symObjAddr: 0x161A4, symBinAddr: 0x10001A304, symSize: 0x14 }
  - { offset: 0x8C107, size: 0x8, addend: 0x0, symName: __ZNSt3__129_AllocatorDestroyRangeReverseINS_9allocatorI18SingleJetCorrectorEENS_16reverse_iteratorIPS2_EEEC1B8ne180100ERS3_RS6_S9_, symObjAddr: 0x16204, symBinAddr: 0x10001A364, symSize: 0x44 }
  - { offset: 0x8C15E, size: 0x8, addend: 0x0, symName: __ZNSt3__116allocator_traitsINS_9allocatorI18SingleJetCorrectorEEE9constructB8ne180100IS2_JRKS2_EvEEvRS3_PT_DpOT0_, symObjAddr: 0x16290, symBinAddr: 0x10001A3F0, symSize: 0x34 }
  - { offset: 0x8C1B5, size: 0x8, addend: 0x0, symName: __ZNKSt3__116reverse_iteratorIP18SingleJetCorrectorEdeB8ne180100Ev, symObjAddr: 0x162E8, symBinAddr: 0x10001A448, symSize: 0x28 }
  - { offset: 0x8C1E9, size: 0x8, addend: 0x0, symName: __ZNSt3__116reverse_iteratorIP18SingleJetCorrectorEppB8ne180100Ev, symObjAddr: 0x16310, symBinAddr: 0x10001A470, symSize: 0x20 }
  - { offset: 0x8C20F, size: 0x8, addend: 0x0, symName: __ZNSt3__128__exception_guard_exceptionsINS_29_AllocatorDestroyRangeReverseINS_9allocatorI18SingleJetCorrectorEENS_16reverse_iteratorIPS3_EEEEE10__completeB8ne180100Ev, symObjAddr: 0x16330, symBinAddr: 0x10001A490, symSize: 0x1C }
  - { offset: 0x8C235, size: 0x8, addend: 0x0, symName: __ZNSt3__128__exception_guard_exceptionsINS_29_AllocatorDestroyRangeReverseINS_9allocatorI18SingleJetCorrectorEENS_16reverse_iteratorIPS3_EEEEED1B8ne180100Ev, symObjAddr: 0x1634C, symBinAddr: 0x10001A4AC, symSize: 0x2C }
  - { offset: 0x8C25F, size: 0x8, addend: 0x0, symName: __ZNSt3__128__exception_guard_exceptionsINS_29_AllocatorDestroyRangeReverseINS_9allocatorI18SingleJetCorrectorEENS_16reverse_iteratorIPS3_EEEEEC1B8ne180100ES8_, symObjAddr: 0x16378, symBinAddr: 0x10001A4D8, symSize: 0x34 }
  - { offset: 0x8C298, size: 0x8, addend: 0x0, symName: __ZNSt3__128__exception_guard_exceptionsINS_29_AllocatorDestroyRangeReverseINS_9allocatorI18SingleJetCorrectorEENS_16reverse_iteratorIPS3_EEEEEC2B8ne180100ES8_, symObjAddr: 0x163AC, symBinAddr: 0x10001A50C, symSize: 0x30 }
  - { offset: 0x8C2D1, size: 0x8, addend: 0x0, symName: __ZNSt3__129_AllocatorDestroyRangeReverseINS_9allocatorI18SingleJetCorrectorEENS_16reverse_iteratorIPS2_EEEC2B8ne180100ERS3_RS6_S9_, symObjAddr: 0x163DC, symBinAddr: 0x10001A53C, symSize: 0x38 }
  - { offset: 0x8C328, size: 0x8, addend: 0x0, symName: __ZNSt3__19allocatorI18SingleJetCorrectorE9constructB8ne180100IS1_JRKS1_EEEvPT_DpOT0_, symObjAddr: 0x16414, symBinAddr: 0x10001A574, symSize: 0x30 }
  - { offset: 0x8C384, size: 0x8, addend: 0x0, symName: __ZNSt3__119__to_address_helperINS_16reverse_iteratorIP18SingleJetCorrectorEEvE6__callB8ne180100ERKS4_, symObjAddr: 0x16444, symBinAddr: 0x10001A5A4, symSize: 0x38 }
  - { offset: 0x8C3A7, size: 0x8, addend: 0x0, symName: __ZNKSt3__116reverse_iteratorIP18SingleJetCorrectorEptB8ne180100Ev, symObjAddr: 0x1647C, symBinAddr: 0x10001A5DC, symSize: 0x24 }
  - { offset: 0x8C3CD, size: 0x8, addend: 0x0, symName: __ZNSt3__128__exception_guard_exceptionsINS_29_AllocatorDestroyRangeReverseINS_9allocatorI18SingleJetCorrectorEENS_16reverse_iteratorIPS3_EEEEED2B8ne180100Ev, symObjAddr: 0x164A0, symBinAddr: 0x10001A600, symSize: 0x50 }
  - { offset: 0x8C3F7, size: 0x8, addend: 0x0, symName: __ZNKSt3__129_AllocatorDestroyRangeReverseINS_9allocatorI18SingleJetCorrectorEENS_16reverse_iteratorIPS2_EEEclB8ne180100Ev, symObjAddr: 0x164F0, symBinAddr: 0x10001A650, symSize: 0xB4 }
  - { offset: 0x8C41E, size: 0x8, addend: 0x0, symName: __ZNSt3__116reverse_iteratorINS0_IP18SingleJetCorrectorEEEC1B8ne180100ES3_, symObjAddr: 0x16614, symBinAddr: 0x10001A774, symSize: 0x3C }
  - { offset: 0x8C456, size: 0x8, addend: 0x0, symName: __ZNSt3__116reverse_iteratorINS0_IP18SingleJetCorrectorEEEppB8ne180100Ev, symObjAddr: 0x166D4, symBinAddr: 0x10001A834, symSize: 0x30 }
  - { offset: 0x8C47C, size: 0x8, addend: 0x0, symName: __ZNKSt3__116reverse_iteratorINS0_IP18SingleJetCorrectorEEE4baseB8ne180100Ev, symObjAddr: 0x16704, symBinAddr: 0x10001A864, symSize: 0x24 }
  - { offset: 0x8C4A8, size: 0x8, addend: 0x0, symName: __ZNSt3__119__to_address_helperINS_16reverse_iteratorINS1_IP18SingleJetCorrectorEEEEvE6__callB8ne180100ERKS5_, symObjAddr: 0x16728, symBinAddr: 0x10001A888, symSize: 0x38 }
  - { offset: 0x8C4CB, size: 0x8, addend: 0x0, symName: __ZNKSt3__116reverse_iteratorINS0_IP18SingleJetCorrectorEEEptB8ne180100Ev, symObjAddr: 0x16760, symBinAddr: 0x10001A8C0, symSize: 0x24 }
  - { offset: 0x8C4F1, size: 0x8, addend: 0x0, symName: __ZNKSt3__116reverse_iteratorINS0_IP18SingleJetCorrectorEEEdeB8ne180100Ev, symObjAddr: 0x16784, symBinAddr: 0x10001A8E4, symSize: 0x34 }
  - { offset: 0x8C525, size: 0x8, addend: 0x0, symName: __ZNSt3__116reverse_iteratorIP18SingleJetCorrectorEmmB8ne180100Ev, symObjAddr: 0x167B8, symBinAddr: 0x10001A918, symSize: 0x20 }
  - { offset: 0x8C54B, size: 0x8, addend: 0x0, symName: __ZNSt3__116reverse_iteratorINS0_IP18SingleJetCorrectorEEEC2B8ne180100ES3_, symObjAddr: 0x167D8, symBinAddr: 0x10001A938, symSize: 0x2C }
  - { offset: 0x8C583, size: 0x8, addend: 0x0, symName: __ZNSt3__116reverse_iteratorIP18SingleJetCorrectorEC2B8ne180100ES2_, symObjAddr: 0x16804, symBinAddr: 0x10001A964, symSize: 0x28 }
  - { offset: 0x8C5BB, size: 0x8, addend: 0x0, symName: __ZNSt3__114__split_bufferI18SingleJetCorrectorRNS_9allocatorIS1_EEED2Ev, symObjAddr: 0x1682C, symBinAddr: 0x10001A98C, symSize: 0x8C }
  - { offset: 0x8C5E7, size: 0x8, addend: 0x0, symName: __ZNSt3__114__split_bufferI18SingleJetCorrectorRNS_9allocatorIS1_EEE5clearB8ne180100Ev, symObjAddr: 0x168B8, symBinAddr: 0x10001AA18, symSize: 0x28 }
  - { offset: 0x8C60D, size: 0x8, addend: 0x0, symName: __ZNKSt3__114__split_bufferI18SingleJetCorrectorRNS_9allocatorIS1_EEE8capacityB8ne180100Ev, symObjAddr: 0x168E0, symBinAddr: 0x10001AA40, symSize: 0x40 }
  - { offset: 0x8C633, size: 0x8, addend: 0x0, symName: __ZNSt3__114__split_bufferI18SingleJetCorrectorRNS_9allocatorIS1_EEE17__destruct_at_endB8ne180100EPS1_, symObjAddr: 0x16920, symBinAddr: 0x10001AA80, symSize: 0x2C }
  - { offset: 0x8C667, size: 0x8, addend: 0x0, symName: __ZNSt3__114__split_bufferI18SingleJetCorrectorRNS_9allocatorIS1_EEE17__destruct_at_endB8ne180100EPS1_NS_17integral_constantIbLb0EEE, symObjAddr: 0x1694C, symBinAddr: 0x10001AAAC, symSize: 0x80 }
  - { offset: 0x8C6A8, size: 0x8, addend: 0x0, symName: __ZNKSt3__114__split_bufferI18SingleJetCorrectorRNS_9allocatorIS1_EEE9__end_capB8ne180100Ev, symObjAddr: 0x169CC, symBinAddr: 0x10001AB2C, symSize: 0x28 }
  - { offset: 0x8C6CE, size: 0x8, addend: 0x0, symName: __ZNKSt3__117__compressed_pairIP18SingleJetCorrectorRNS_9allocatorIS1_EEE5firstB8ne180100Ev, symObjAddr: 0x169F4, symBinAddr: 0x10001AB54, symSize: 0x24 }
  - { offset: 0x8C6F4, size: 0x8, addend: 0x0, symName: __ZNSt3__16vectorIN18SingleJetCorrector4TypeENS_9allocatorIS2_EEEC2B8ne180100Ev, symObjAddr: 0x16A18, symBinAddr: 0x10001AB78, symSize: 0x4C }
  - { offset: 0x8C71E, size: 0x8, addend: 0x0, symName: __ZNSt3__117__compressed_pairIPN18SingleJetCorrector4TypeENS_9allocatorIS2_EEEC1B8ne180100IDnNS_18__default_init_tagEEEOT_OT0_, symObjAddr: 0x16A64, symBinAddr: 0x10001ABC4, symSize: 0x3C }
  - { offset: 0x8C776, size: 0x8, addend: 0x0, symName: __ZNSt3__117__compressed_pairIPN18SingleJetCorrector4TypeENS_9allocatorIS2_EEEC2B8ne180100IDnNS_18__default_init_tagEEEOT_OT0_, symObjAddr: 0x16AA0, symBinAddr: 0x10001AC00, symSize: 0x40 }
  - { offset: 0x8C7CE, size: 0x8, addend: 0x0, symName: __ZNSt3__122__compressed_pair_elemINS_9allocatorIN18SingleJetCorrector4TypeEEELi1ELb1EEC2B8ne180100ENS_18__default_init_tagE, symObjAddr: 0x16AE0, symBinAddr: 0x10001AC40, symSize: 0x2C }
  - { offset: 0x8C803, size: 0x8, addend: 0x0, symName: __ZNSt3__19allocatorIN18SingleJetCorrector4TypeEEC2B8ne180100Ev, symObjAddr: 0x16B0C, symBinAddr: 0x10001AC6C, symSize: 0x2C }
  - { offset: 0x8C82D, size: 0x8, addend: 0x0, symName: __ZNSt3__116__non_trivial_ifILb1ENS_9allocatorIN18SingleJetCorrector4TypeEEEEC2B8ne180100Ev, symObjAddr: 0x16B38, symBinAddr: 0x10001AC98, symSize: 0x14 }
  - { offset: 0x8C857, size: 0x8, addend: 0x0, symName: __ZNSt3__16vectorIN18SingleJetCorrector4TypeENS_9allocatorIS2_EEED2B8ne180100Ev, symObjAddr: 0x16B4C, symBinAddr: 0x10001ACAC, symSize: 0x40 }
  - { offset: 0x8C881, size: 0x8, addend: 0x0, symName: __ZNSt3__19basic_iosIcNS_11char_traitsIcEEEC2B8ne180100Ev, symObjAddr: 0x16B8C, symBinAddr: 0x10001ACEC, symSize: 0x3C }
  - { offset: 0x8C8AB, size: 0x8, addend: 0x0, symName: __ZNSt3__113basic_istreamIcNS_11char_traitsIcEEEC2B8ne180100EPNS_15basic_streambufIcS2_EE, symObjAddr: 0x16BC8, symBinAddr: 0x10001AD28, symSize: 0x64 }
  - { offset: 0x8C8F0, size: 0x8, addend: 0x0, symName: __ZNSt3__18ios_baseC2B8ne180100Ev, symObjAddr: 0x16C2C, symBinAddr: 0x10001AD8C, symSize: 0x24 }
  - { offset: 0x8C91A, size: 0x8, addend: 0x0, symName: __ZNSt3__19basic_iosIcNS_11char_traitsIcEEE4initB8ne180100EPNS_15basic_streambufIcS2_EE, symObjAddr: 0x16C50, symBinAddr: 0x10001ADB0, symSize: 0x44 }
  - { offset: 0x8C951, size: 0x8, addend: 0x0, symName: __ZNKSt3__19basic_iosIcNS_11char_traitsIcEEE4failB8ne180100Ev, symObjAddr: 0x16C94, symBinAddr: 0x10001ADF4, symSize: 0x28 }
  - { offset: 0x8C977, size: 0x8, addend: 0x0, symName: __ZNKSt3__18ios_base4failB8ne180100Ev, symObjAddr: 0x16CBC, symBinAddr: 0x10001AE1C, symSize: 0x28 }
  - { offset: 0x8C99F, size: 0x8, addend: 0x0, symName: __ZNKSt3__16vectorIN18SingleJetCorrector4TypeENS_9allocatorIS2_EEE17__annotate_shrinkB8ne180100Em, symObjAddr: 0x16CE4, symBinAddr: 0x10001AE44, symSize: 0x14 }
  - { offset: 0x8C9DA, size: 0x8, addend: 0x0, symName: __ZNSt3__16vectorIN18SingleJetCorrector4TypeENS_9allocatorIS2_EEE22__construct_one_at_endB8ne180100IJS2_EEEvDpOT_, symObjAddr: 0x16CF8, symBinAddr: 0x10001AE58, symSize: 0x90 }
  - { offset: 0x8CA29, size: 0x8, addend: 0x0, symName: __ZNSt3__16vectorIN18SingleJetCorrector4TypeENS_9allocatorIS2_EEE21__push_back_slow_pathIS2_EEPS2_OT_, symObjAddr: 0x16D88, symBinAddr: 0x10001AEE8, symSize: 0xE8 }
  - { offset: 0x8CA87, size: 0x8, addend: 0x0, symName: __ZNSt3__116allocator_traitsINS_9allocatorIN18SingleJetCorrector4TypeEEEE9constructB8ne180100IS3_JS3_EvEEvRS4_PT_DpOT0_, symObjAddr: 0x16E70, symBinAddr: 0x10001AFD0, symSize: 0x34 }
  - { offset: 0x8CADE, size: 0x8, addend: 0x0, symName: __ZNSt3__19allocatorIN18SingleJetCorrector4TypeEE9constructB8ne180100IS2_JS2_EEEvPT_DpOT0_, symObjAddr: 0x16EA4, symBinAddr: 0x10001B004, symSize: 0x28 }
  - { offset: 0x8CB34, size: 0x8, addend: 0x0, symName: __ZNKSt3__16vectorIN18SingleJetCorrector4TypeENS_9allocatorIS2_EEE11__recommendB8ne180100Em, symObjAddr: 0x16ECC, symBinAddr: 0x10001B02C, symSize: 0xB4 }
  - { offset: 0x8CB89, size: 0x8, addend: 0x0, symName: __ZNSt3__114__split_bufferIN18SingleJetCorrector4TypeERNS_9allocatorIS2_EEEC1EmmS5_, symObjAddr: 0x16F80, symBinAddr: 0x10001B0E0, symSize: 0x44 }
  - { offset: 0x8CBDF, size: 0x8, addend: 0x0, symName: __ZNSt3__114__split_bufferIN18SingleJetCorrector4TypeERNS_9allocatorIS2_EEED1Ev, symObjAddr: 0x170D4, symBinAddr: 0x10001B234, symSize: 0x2C }
  - { offset: 0x8CC0B, size: 0x8, addend: 0x0, symName: __ZNSt3__114__split_bufferIN18SingleJetCorrector4TypeERNS_9allocatorIS2_EEEC2EmmS5_, symObjAddr: 0x17100, symBinAddr: 0x10001B260, symSize: 0xD4 }
  - { offset: 0x8CC7F, size: 0x8, addend: 0x0, symName: __ZNSt3__117__compressed_pairIPN18SingleJetCorrector4TypeERNS_9allocatorIS2_EEEC1B8ne180100IDnS6_EEOT_OT0_, symObjAddr: 0x171D4, symBinAddr: 0x10001B334, symSize: 0x3C }
  - { offset: 0x8CCD7, size: 0x8, addend: 0x0, symName: __ZNSt3__114__split_bufferIN18SingleJetCorrector4TypeERNS_9allocatorIS2_EEE7__allocB8ne180100Ev, symObjAddr: 0x17210, symBinAddr: 0x10001B370, symSize: 0x28 }
  - { offset: 0x8CCFD, size: 0x8, addend: 0x0, symName: __ZNSt3__114__split_bufferIN18SingleJetCorrector4TypeERNS_9allocatorIS2_EEE9__end_capB8ne180100Ev, symObjAddr: 0x17238, symBinAddr: 0x10001B398, symSize: 0x28 }
  - { offset: 0x8CD23, size: 0x8, addend: 0x0, symName: __ZNSt3__117__compressed_pairIPN18SingleJetCorrector4TypeERNS_9allocatorIS2_EEEC2B8ne180100IDnS6_EEOT_OT0_, symObjAddr: 0x17260, symBinAddr: 0x10001B3C0, symSize: 0x48 }
  - { offset: 0x8CD7B, size: 0x8, addend: 0x0, symName: __ZNSt3__122__compressed_pair_elemIRNS_9allocatorIN18SingleJetCorrector4TypeEEELi1ELb0EEC2B8ne180100IS5_vEEOT_, symObjAddr: 0x172A8, symBinAddr: 0x10001B408, symSize: 0x20 }
  - { offset: 0x8CDBD, size: 0x8, addend: 0x0, symName: __ZNSt3__117__compressed_pairIPN18SingleJetCorrector4TypeERNS_9allocatorIS2_EEE6secondB8ne180100Ev, symObjAddr: 0x172C8, symBinAddr: 0x10001B428, symSize: 0x28 }
  - { offset: 0x8CDE3, size: 0x8, addend: 0x0, symName: __ZNSt3__122__compressed_pair_elemIRNS_9allocatorIN18SingleJetCorrector4TypeEEELi1ELb0EE5__getB8ne180100Ev, symObjAddr: 0x172F0, symBinAddr: 0x10001B450, symSize: 0x18 }
  - { offset: 0x8CE09, size: 0x8, addend: 0x0, symName: __ZNSt3__117__compressed_pairIPN18SingleJetCorrector4TypeERNS_9allocatorIS2_EEE5firstB8ne180100Ev, symObjAddr: 0x17308, symBinAddr: 0x10001B468, symSize: 0x24 }
  - { offset: 0x8CE2F, size: 0x8, addend: 0x0, symName: __ZNSt3__116reverse_iteratorIPN18SingleJetCorrector4TypeEEC1B8ne180100ES3_, symObjAddr: 0x173A4, symBinAddr: 0x10001B504, symSize: 0x34 }
  - { offset: 0x8CE67, size: 0x8, addend: 0x0, symName: __ZNKSt3__116reverse_iteratorIPN18SingleJetCorrector4TypeEE4baseB8ne180100Ev, symObjAddr: 0x173D8, symBinAddr: 0x10001B538, symSize: 0x18 }
  - { offset: 0x8CEB3, size: 0x8, addend: 0x0, symName: __ZNKSt3__111__move_loopINS_17_ClassicAlgPolicyEEclB8ne180100INS_16reverse_iteratorIPN18SingleJetCorrector4TypeEEES8_S8_EENS_4pairIT_T1_EESA_T0_SB_, symObjAddr: 0x1771C, symBinAddr: 0x10001B87C, symSize: 0xA0 }
  - { offset: 0x8CF24, size: 0x8, addend: 0x0, symName: __ZNSt3__18_IterOpsINS_17_ClassicAlgPolicyEE11__iter_moveB8ne180100IRNS_16reverse_iteratorIPN18SingleJetCorrector4TypeEEELi0EEEDTclsr3stdE4movedeclsr3stdE7declvalIRT_EEEEOSA_, symObjAddr: 0x17950, symBinAddr: 0x10001BAB0, symSize: 0x28 }
  - { offset: 0x8CF56, size: 0x8, addend: 0x0, symName: __ZNKSt3__116reverse_iteratorIPN18SingleJetCorrector4TypeEEdeB8ne180100Ev, symObjAddr: 0x17978, symBinAddr: 0x10001BAD8, symSize: 0x28 }
  - { offset: 0x8CF8A, size: 0x8, addend: 0x0, symName: __ZNSt3__116reverse_iteratorIPN18SingleJetCorrector4TypeEEppB8ne180100Ev, symObjAddr: 0x179A0, symBinAddr: 0x10001BB00, symSize: 0x20 }
  - { offset: 0x8CFB0, size: 0x8, addend: 0x0, symName: __ZNSt3__18_IterOpsINS_17_ClassicAlgPolicyEE25__validate_iter_referenceB8ne180100IRNS_16reverse_iteratorIPN18SingleJetCorrector4TypeEEEEEvv, symObjAddr: 0x179C0, symBinAddr: 0x10001BB20, symSize: 0x4 }
  - { offset: 0x8CFCE, size: 0x8, addend: 0x0, symName: __ZNSt3__118__unwrap_iter_implINS_16reverse_iteratorIPN18SingleJetCorrector4TypeEEELb0EE8__unwrapB8ne180100ES5_, symObjAddr: 0x179C4, symBinAddr: 0x10001BB24, symSize: 0x24 }
  - { offset: 0x8CFF7, size: 0x8, addend: 0x0, symName: __ZNSt3__14pairINS_16reverse_iteratorIPN18SingleJetCorrector4TypeEEES5_EC1B8ne180100IS5_S5_Li0EEEOT_OT0_, symObjAddr: 0x179E8, symBinAddr: 0x10001BB48, symSize: 0x3C }
  - { offset: 0x8D055, size: 0x8, addend: 0x0, symName: __ZNSt3__14pairINS_16reverse_iteratorIPN18SingleJetCorrector4TypeEEES5_EC2B8ne180100IS5_S5_Li0EEEOT_OT0_, symObjAddr: 0x17A24, symBinAddr: 0x10001BB84, symSize: 0x34 }
  - { offset: 0x8D0B3, size: 0x8, addend: 0x0, symName: __ZNSt3__118__unwrap_iter_implINS_16reverse_iteratorIPN18SingleJetCorrector4TypeEEELb0EE8__rewrapB8ne180100ES5_S5_, symObjAddr: 0x17A58, symBinAddr: 0x10001BBB8, symSize: 0x2C }
  - { offset: 0x8D0E1, size: 0x8, addend: 0x0, symName: __ZNSt3__116reverse_iteratorIPN18SingleJetCorrector4TypeEEC2B8ne180100ES3_, symObjAddr: 0x17A84, symBinAddr: 0x10001BBE4, symSize: 0x28 }
  - { offset: 0x8D119, size: 0x8, addend: 0x0, symName: __ZNSt3__114__split_bufferIN18SingleJetCorrector4TypeERNS_9allocatorIS2_EEED2Ev, symObjAddr: 0x17AAC, symBinAddr: 0x10001BC0C, symSize: 0x8C }
  - { offset: 0x8D145, size: 0x8, addend: 0x0, symName: __ZNSt3__114__split_bufferIN18SingleJetCorrector4TypeERNS_9allocatorIS2_EEE5clearB8ne180100Ev, symObjAddr: 0x17B38, symBinAddr: 0x10001BC98, symSize: 0x28 }
  - { offset: 0x8D16B, size: 0x8, addend: 0x0, symName: __ZNKSt3__114__split_bufferIN18SingleJetCorrector4TypeERNS_9allocatorIS2_EEE8capacityB8ne180100Ev, symObjAddr: 0x17B60, symBinAddr: 0x10001BCC0, symSize: 0x40 }
  - { offset: 0x8D191, size: 0x8, addend: 0x0, symName: __ZNSt3__114__split_bufferIN18SingleJetCorrector4TypeERNS_9allocatorIS2_EEE17__destruct_at_endB8ne180100EPS2_, symObjAddr: 0x17BA0, symBinAddr: 0x10001BD00, symSize: 0x2C }
  - { offset: 0x8D1C5, size: 0x8, addend: 0x0, symName: __ZNSt3__114__split_bufferIN18SingleJetCorrector4TypeERNS_9allocatorIS2_EEE17__destruct_at_endB8ne180100EPS2_NS_17integral_constantIbLb0EEE, symObjAddr: 0x17BCC, symBinAddr: 0x10001BD2C, symSize: 0x80 }
  - { offset: 0x8D206, size: 0x8, addend: 0x0, symName: __ZNKSt3__114__split_bufferIN18SingleJetCorrector4TypeERNS_9allocatorIS2_EEE9__end_capB8ne180100Ev, symObjAddr: 0x17C4C, symBinAddr: 0x10001BDAC, symSize: 0x28 }
  - { offset: 0x8D22C, size: 0x8, addend: 0x0, symName: __ZNKSt3__117__compressed_pairIPN18SingleJetCorrector4TypeERNS_9allocatorIS2_EEE5firstB8ne180100Ev, symObjAddr: 0x17C74, symBinAddr: 0x10001BDD4, symSize: 0x24 }
  - { offset: 0x8D258, size: 0x8, addend: 0x0, symName: __ZNSt3__16vectorIdNS_9allocatorIdEEE22__construct_one_at_endB8ne180100IJdEEEvDpOT_, symObjAddr: 0x17C98, symBinAddr: 0x10001BDF8, symSize: 0x90 }
  - { offset: 0x8D2A7, size: 0x8, addend: 0x0, symName: __ZNSt3__16vectorIdNS_9allocatorIdEEE21__push_back_slow_pathIdEEPdOT_, symObjAddr: 0x17D28, symBinAddr: 0x10001BE88, symSize: 0xE8 }
  - { offset: 0x8D305, size: 0x8, addend: 0x0, symName: __ZNSt3__116allocator_traitsINS_9allocatorIdEEE9constructB8ne180100IdJdEvEEvRS2_PT_DpOT0_, symObjAddr: 0x17E10, symBinAddr: 0x10001BF70, symSize: 0x34 }
  - { offset: 0x8D35C, size: 0x8, addend: 0x0, symName: __ZNSt3__19allocatorIdE9constructB8ne180100IdJdEEEvPT_DpOT0_, symObjAddr: 0x17E44, symBinAddr: 0x10001BFA4, symSize: 0x28 }
  - { offset: 0x8D3B2, size: 0x8, addend: 0x0, symName: __ZNKSt3__16vectorIdNS_9allocatorIdEEE11__recommendB8ne180100Em, symObjAddr: 0x17E6C, symBinAddr: 0x10001BFCC, symSize: 0xB4 }
  - { offset: 0x8D407, size: 0x8, addend: 0x0, symName: __ZNSt3__114__split_bufferIdRNS_9allocatorIdEEEC1EmmS3_, symObjAddr: 0x17F20, symBinAddr: 0x10001C080, symSize: 0x44 }
  - { offset: 0x8D45D, size: 0x8, addend: 0x0, symName: __ZNSt3__114__split_bufferIdRNS_9allocatorIdEEED1Ev, symObjAddr: 0x18074, symBinAddr: 0x10001C1D4, symSize: 0x2C }
  - { offset: 0x8D489, size: 0x8, addend: 0x0, symName: __ZNSt3__114__split_bufferIdRNS_9allocatorIdEEEC2EmmS3_, symObjAddr: 0x180A0, symBinAddr: 0x10001C200, symSize: 0xD4 }
  - { offset: 0x8D4FD, size: 0x8, addend: 0x0, symName: __ZNSt3__117__compressed_pairIPdRNS_9allocatorIdEEEC1B8ne180100IDnS4_EEOT_OT0_, symObjAddr: 0x18174, symBinAddr: 0x10001C2D4, symSize: 0x3C }
  - { offset: 0x8D555, size: 0x8, addend: 0x0, symName: __ZNSt3__114__split_bufferIdRNS_9allocatorIdEEE7__allocB8ne180100Ev, symObjAddr: 0x181B0, symBinAddr: 0x10001C310, symSize: 0x28 }
  - { offset: 0x8D57B, size: 0x8, addend: 0x0, symName: __ZNSt3__114__split_bufferIdRNS_9allocatorIdEEE9__end_capB8ne180100Ev, symObjAddr: 0x181D8, symBinAddr: 0x10001C338, symSize: 0x28 }
  - { offset: 0x8D5A1, size: 0x8, addend: 0x0, symName: __ZNSt3__117__compressed_pairIPdRNS_9allocatorIdEEEC2B8ne180100IDnS4_EEOT_OT0_, symObjAddr: 0x18200, symBinAddr: 0x10001C360, symSize: 0x48 }
  - { offset: 0x8D5F9, size: 0x8, addend: 0x0, symName: __ZNSt3__122__compressed_pair_elemIRNS_9allocatorIdEELi1ELb0EEC2B8ne180100IS3_vEEOT_, symObjAddr: 0x18248, symBinAddr: 0x10001C3A8, symSize: 0x20 }
  - { offset: 0x8D63B, size: 0x8, addend: 0x0, symName: __ZNSt3__117__compressed_pairIPdRNS_9allocatorIdEEE6secondB8ne180100Ev, symObjAddr: 0x18268, symBinAddr: 0x10001C3C8, symSize: 0x28 }
  - { offset: 0x8D661, size: 0x8, addend: 0x0, symName: __ZNSt3__122__compressed_pair_elemIRNS_9allocatorIdEELi1ELb0EE5__getB8ne180100Ev, symObjAddr: 0x18290, symBinAddr: 0x10001C3F0, symSize: 0x18 }
  - { offset: 0x8D687, size: 0x8, addend: 0x0, symName: __ZNSt3__117__compressed_pairIPdRNS_9allocatorIdEEE5firstB8ne180100Ev, symObjAddr: 0x182A8, symBinAddr: 0x10001C408, symSize: 0x24 }
  - { offset: 0x8D6AD, size: 0x8, addend: 0x0, symName: __ZNSt3__116reverse_iteratorIPdEC1B8ne180100ES1_, symObjAddr: 0x18344, symBinAddr: 0x10001C4A4, symSize: 0x34 }
  - { offset: 0x8D6E5, size: 0x8, addend: 0x0, symName: __ZNKSt3__116reverse_iteratorIPdE4baseB8ne180100Ev, symObjAddr: 0x18378, symBinAddr: 0x10001C4D8, symSize: 0x18 }
  - { offset: 0x8D727, size: 0x8, addend: 0x0, symName: __ZNKSt3__111__move_loopINS_17_ClassicAlgPolicyEEclB8ne180100INS_16reverse_iteratorIPdEES6_S6_EENS_4pairIT_T1_EES8_T0_S9_, symObjAddr: 0x186BC, symBinAddr: 0x10001C81C, symSize: 0xA0 }
  - { offset: 0x8D798, size: 0x8, addend: 0x0, symName: __ZNSt3__18_IterOpsINS_17_ClassicAlgPolicyEE11__iter_moveB8ne180100IRNS_16reverse_iteratorIPdEELi0EEEDTclsr3stdE4movedeclsr3stdE7declvalIRT_EEEEOS8_, symObjAddr: 0x188F0, symBinAddr: 0x10001CA50, symSize: 0x28 }
  - { offset: 0x8D7CA, size: 0x8, addend: 0x0, symName: __ZNKSt3__116reverse_iteratorIPdEdeB8ne180100Ev, symObjAddr: 0x18918, symBinAddr: 0x10001CA78, symSize: 0x28 }
  - { offset: 0x8D7FE, size: 0x8, addend: 0x0, symName: __ZNSt3__116reverse_iteratorIPdEppB8ne180100Ev, symObjAddr: 0x18940, symBinAddr: 0x10001CAA0, symSize: 0x20 }
  - { offset: 0x8D824, size: 0x8, addend: 0x0, symName: __ZNSt3__18_IterOpsINS_17_ClassicAlgPolicyEE25__validate_iter_referenceB8ne180100IRNS_16reverse_iteratorIPdEEEEvv, symObjAddr: 0x18960, symBinAddr: 0x10001CAC0, symSize: 0x4 }
  - { offset: 0x8D842, size: 0x8, addend: 0x0, symName: __ZNSt3__118__unwrap_iter_implINS_16reverse_iteratorIPdEELb0EE8__unwrapB8ne180100ES3_, symObjAddr: 0x18964, symBinAddr: 0x10001CAC4, symSize: 0x24 }
  - { offset: 0x8D86B, size: 0x8, addend: 0x0, symName: __ZNSt3__14pairINS_16reverse_iteratorIPdEES3_EC1B8ne180100IS3_S3_Li0EEEOT_OT0_, symObjAddr: 0x18988, symBinAddr: 0x10001CAE8, symSize: 0x3C }
  - { offset: 0x8D8C9, size: 0x8, addend: 0x0, symName: __ZNSt3__14pairINS_16reverse_iteratorIPdEES3_EC2B8ne180100IS3_S3_Li0EEEOT_OT0_, symObjAddr: 0x189C4, symBinAddr: 0x10001CB24, symSize: 0x34 }
  - { offset: 0x8D927, size: 0x8, addend: 0x0, symName: __ZNSt3__118__unwrap_iter_implINS_16reverse_iteratorIPdEELb0EE8__rewrapB8ne180100ES3_S3_, symObjAddr: 0x189F8, symBinAddr: 0x10001CB58, symSize: 0x2C }
  - { offset: 0x8D955, size: 0x8, addend: 0x0, symName: __ZNSt3__116reverse_iteratorIPdEC2B8ne180100ES1_, symObjAddr: 0x18A24, symBinAddr: 0x10001CB84, symSize: 0x28 }
  - { offset: 0x8D98D, size: 0x8, addend: 0x0, symName: __ZNSt3__114__split_bufferIdRNS_9allocatorIdEEED2Ev, symObjAddr: 0x18A4C, symBinAddr: 0x10001CBAC, symSize: 0x8C }
  - { offset: 0x8D9B9, size: 0x8, addend: 0x0, symName: __ZNSt3__114__split_bufferIdRNS_9allocatorIdEEE5clearB8ne180100Ev, symObjAddr: 0x18AD8, symBinAddr: 0x10001CC38, symSize: 0x28 }
  - { offset: 0x8D9DF, size: 0x8, addend: 0x0, symName: __ZNKSt3__114__split_bufferIdRNS_9allocatorIdEEE8capacityB8ne180100Ev, symObjAddr: 0x18B00, symBinAddr: 0x10001CC60, symSize: 0x40 }
  - { offset: 0x8DA05, size: 0x8, addend: 0x0, symName: __ZNSt3__114__split_bufferIdRNS_9allocatorIdEEE17__destruct_at_endB8ne180100EPd, symObjAddr: 0x18B40, symBinAddr: 0x10001CCA0, symSize: 0x2C }
  - { offset: 0x8DA39, size: 0x8, addend: 0x0, symName: __ZNSt3__114__split_bufferIdRNS_9allocatorIdEEE17__destruct_at_endB8ne180100EPdNS_17integral_constantIbLb0EEE, symObjAddr: 0x18B6C, symBinAddr: 0x10001CCCC, symSize: 0x80 }
  - { offset: 0x8DA7A, size: 0x8, addend: 0x0, symName: __ZNKSt3__114__split_bufferIdRNS_9allocatorIdEEE9__end_capB8ne180100Ev, symObjAddr: 0x18BEC, symBinAddr: 0x10001CD4C, symSize: 0x28 }
  - { offset: 0x8DAA0, size: 0x8, addend: 0x0, symName: __ZNKSt3__117__compressed_pairIPdRNS_9allocatorIdEEE5firstB8ne180100Ev, symObjAddr: 0x18C14, symBinAddr: 0x10001CD74, symSize: 0x24 }
  - { offset: 0x8DAC6, size: 0x8, addend: 0x0, symName: __ZNSt3__16vectorINS0_IdNS_9allocatorIdEEEENS1_IS3_EEE22__construct_one_at_endB8ne180100IJRKS3_EEEvDpOT_, symObjAddr: 0x18C38, symBinAddr: 0x10001CD98, symSize: 0x90 }
  - { offset: 0x8DB15, size: 0x8, addend: 0x0, symName: __ZNSt3__16vectorINS0_IdNS_9allocatorIdEEEENS1_IS3_EEE21__push_back_slow_pathIRKS3_EEPS3_OT_, symObjAddr: 0x18CC8, symBinAddr: 0x10001CE28, symSize: 0xE8 }
  - { offset: 0x8DB73, size: 0x8, addend: 0x0, symName: __ZNSt3__116allocator_traitsINS_9allocatorINS_6vectorIdNS1_IdEEEEEEE9constructB8ne180100IS4_JRKS4_EvEEvRS5_PT_DpOT0_, symObjAddr: 0x18DB0, symBinAddr: 0x10001CF10, symSize: 0x34 }
  - { offset: 0x8DBCA, size: 0x8, addend: 0x0, symName: __ZNSt3__19allocatorINS_6vectorIdNS0_IdEEEEE9constructB8ne180100IS3_JRKS3_EEEvPT_DpOT0_, symObjAddr: 0x18DE4, symBinAddr: 0x10001CF44, symSize: 0x30 }
  - { offset: 0x8DC20, size: 0x8, addend: 0x0, symName: __ZNKSt3__16vectorINS0_IdNS_9allocatorIdEEEENS1_IS3_EEE11__recommendB8ne180100Em, symObjAddr: 0x18E14, symBinAddr: 0x10001CF74, symSize: 0xB4 }
  - { offset: 0x8DC75, size: 0x8, addend: 0x0, symName: __ZNSt3__114__split_bufferINS_6vectorIdNS_9allocatorIdEEEERNS2_IS4_EEEC1EmmS6_, symObjAddr: 0x18EC8, symBinAddr: 0x10001D028, symSize: 0x44 }
  - { offset: 0x8DCCB, size: 0x8, addend: 0x0, symName: __ZNSt3__114__split_bufferINS_6vectorIdNS_9allocatorIdEEEERNS2_IS4_EEED1Ev, symObjAddr: 0x1901C, symBinAddr: 0x10001D17C, symSize: 0x2C }
  - { offset: 0x8DCF7, size: 0x8, addend: 0x0, symName: __ZNSt3__114__split_bufferINS_6vectorIdNS_9allocatorIdEEEERNS2_IS4_EEEC2EmmS6_, symObjAddr: 0x19048, symBinAddr: 0x10001D1A8, symSize: 0xE0 }
  - { offset: 0x8DD6B, size: 0x8, addend: 0x0, symName: __ZNSt3__117__compressed_pairIPNS_6vectorIdNS_9allocatorIdEEEERNS2_IS4_EEEC1B8ne180100IDnS7_EEOT_OT0_, symObjAddr: 0x19128, symBinAddr: 0x10001D288, symSize: 0x3C }
  - { offset: 0x8DDC3, size: 0x8, addend: 0x0, symName: __ZNSt3__114__split_bufferINS_6vectorIdNS_9allocatorIdEEEERNS2_IS4_EEE7__allocB8ne180100Ev, symObjAddr: 0x19164, symBinAddr: 0x10001D2C4, symSize: 0x28 }
  - { offset: 0x8DDE9, size: 0x8, addend: 0x0, symName: __ZNSt3__114__split_bufferINS_6vectorIdNS_9allocatorIdEEEERNS2_IS4_EEE9__end_capB8ne180100Ev, symObjAddr: 0x1918C, symBinAddr: 0x10001D2EC, symSize: 0x28 }
  - { offset: 0x8DE0F, size: 0x8, addend: 0x0, symName: __ZNSt3__117__compressed_pairIPNS_6vectorIdNS_9allocatorIdEEEERNS2_IS4_EEEC2B8ne180100IDnS7_EEOT_OT0_, symObjAddr: 0x191B4, symBinAddr: 0x10001D314, symSize: 0x48 }
  - { offset: 0x8DE67, size: 0x8, addend: 0x0, symName: __ZNSt3__122__compressed_pair_elemIRNS_9allocatorINS_6vectorIdNS1_IdEEEEEELi1ELb0EEC2B8ne180100IS6_vEEOT_, symObjAddr: 0x191FC, symBinAddr: 0x10001D35C, symSize: 0x20 }
  - { offset: 0x8DEA9, size: 0x8, addend: 0x0, symName: __ZNSt3__117__compressed_pairIPNS_6vectorIdNS_9allocatorIdEEEERNS2_IS4_EEE6secondB8ne180100Ev, symObjAddr: 0x1921C, symBinAddr: 0x10001D37C, symSize: 0x28 }
  - { offset: 0x8DECF, size: 0x8, addend: 0x0, symName: __ZNSt3__122__compressed_pair_elemIRNS_9allocatorINS_6vectorIdNS1_IdEEEEEELi1ELb0EE5__getB8ne180100Ev, symObjAddr: 0x19244, symBinAddr: 0x10001D3A4, symSize: 0x18 }
  - { offset: 0x8DEF5, size: 0x8, addend: 0x0, symName: __ZNSt3__117__compressed_pairIPNS_6vectorIdNS_9allocatorIdEEEERNS2_IS4_EEE5firstB8ne180100Ev, symObjAddr: 0x1925C, symBinAddr: 0x10001D3BC, symSize: 0x24 }
  - { offset: 0x8DF1B, size: 0x8, addend: 0x0, symName: __ZNSt3__129_AllocatorDestroyRangeReverseINS_9allocatorINS_6vectorIdNS1_IdEEEEEENS_16reverse_iteratorIPS4_EEEC1B8ne180100ERS5_RS8_SB_, symObjAddr: 0x19424, symBinAddr: 0x10001D584, symSize: 0x44 }
  - { offset: 0x8DF72, size: 0x8, addend: 0x0, symName: __ZNSt3__116allocator_traitsINS_9allocatorINS_6vectorIdNS1_IdEEEEEEE9constructB8ne180100IS4_JS4_EvEEvRS5_PT_DpOT0_, symObjAddr: 0x19468, symBinAddr: 0x10001D5C8, symSize: 0x34 }
  - { offset: 0x8DFC9, size: 0x8, addend: 0x0, symName: __ZNSt3__128__exception_guard_exceptionsINS_29_AllocatorDestroyRangeReverseINS_9allocatorINS_6vectorIdNS2_IdEEEEEENS_16reverse_iteratorIPS5_EEEEE10__completeB8ne180100Ev, symObjAddr: 0x1949C, symBinAddr: 0x10001D5FC, symSize: 0x1C }
  - { offset: 0x8DFEF, size: 0x8, addend: 0x0, symName: __ZNSt3__128__exception_guard_exceptionsINS_29_AllocatorDestroyRangeReverseINS_9allocatorINS_6vectorIdNS2_IdEEEEEENS_16reverse_iteratorIPS5_EEEEED1B8ne180100Ev, symObjAddr: 0x194B8, symBinAddr: 0x10001D618, symSize: 0x2C }
  - { offset: 0x8E019, size: 0x8, addend: 0x0, symName: __ZNSt3__128__exception_guard_exceptionsINS_29_AllocatorDestroyRangeReverseINS_9allocatorINS_6vectorIdNS2_IdEEEEEENS_16reverse_iteratorIPS5_EEEEEC1B8ne180100ESA_, symObjAddr: 0x194E4, symBinAddr: 0x10001D644, symSize: 0x34 }
  - { offset: 0x8E052, size: 0x8, addend: 0x0, symName: __ZNSt3__128__exception_guard_exceptionsINS_29_AllocatorDestroyRangeReverseINS_9allocatorINS_6vectorIdNS2_IdEEEEEENS_16reverse_iteratorIPS5_EEEEEC2B8ne180100ESA_, symObjAddr: 0x19518, symBinAddr: 0x10001D678, symSize: 0x30 }
  - { offset: 0x8E08B, size: 0x8, addend: 0x0, symName: __ZNSt3__129_AllocatorDestroyRangeReverseINS_9allocatorINS_6vectorIdNS1_IdEEEEEENS_16reverse_iteratorIPS4_EEEC2B8ne180100ERS5_RS8_SB_, symObjAddr: 0x19548, symBinAddr: 0x10001D6A8, symSize: 0x38 }
  - { offset: 0x8E0E2, size: 0x8, addend: 0x0, symName: __ZNSt3__19allocatorINS_6vectorIdNS0_IdEEEEE9constructB8ne180100IS3_JS3_EEEvPT_DpOT0_, symObjAddr: 0x19580, symBinAddr: 0x10001D6E0, symSize: 0x30 }
  - { offset: 0x8E138, size: 0x8, addend: 0x0, symName: __ZNSt3__16vectorIdNS_9allocatorIdEEEC1B8ne180100EOS3_, symObjAddr: 0x195B0, symBinAddr: 0x10001D710, symSize: 0x34 }
  - { offset: 0x8E173, size: 0x8, addend: 0x0, symName: __ZNSt3__16vectorIdNS_9allocatorIdEEEC2B8ne180100EOS3_, symObjAddr: 0x195E4, symBinAddr: 0x10001D744, symSize: 0xC4 }
  - { offset: 0x8E1AE, size: 0x8, addend: 0x0, symName: __ZNSt3__128__exception_guard_exceptionsINS_29_AllocatorDestroyRangeReverseINS_9allocatorINS_6vectorIdNS2_IdEEEEEENS_16reverse_iteratorIPS5_EEEEED2B8ne180100Ev, symObjAddr: 0x196A8, symBinAddr: 0x10001D808, symSize: 0x50 }
  - { offset: 0x8E1D8, size: 0x8, addend: 0x0, symName: __ZNKSt3__129_AllocatorDestroyRangeReverseINS_9allocatorINS_6vectorIdNS1_IdEEEEEENS_16reverse_iteratorIPS4_EEEclB8ne180100Ev, symObjAddr: 0x196F8, symBinAddr: 0x10001D858, symSize: 0xB4 }
  - { offset: 0x8E1FF, size: 0x8, addend: 0x0, symName: __ZNSt3__116reverse_iteratorINS0_IPNS_6vectorIdNS_9allocatorIdEEEEEEEC1B8ne180100ES6_, symObjAddr: 0x1981C, symBinAddr: 0x10001D97C, symSize: 0x3C }
  - { offset: 0x8E237, size: 0x8, addend: 0x0, symName: __ZNSt3__116reverse_iteratorINS0_IPNS_6vectorIdNS_9allocatorIdEEEEEEEppB8ne180100Ev, symObjAddr: 0x198DC, symBinAddr: 0x10001DA3C, symSize: 0x30 }
  - { offset: 0x8E25D, size: 0x8, addend: 0x0, symName: __ZNKSt3__116reverse_iteratorINS0_IPNS_6vectorIdNS_9allocatorIdEEEEEEE4baseB8ne180100Ev, symObjAddr: 0x1990C, symBinAddr: 0x10001DA6C, symSize: 0x24 }
  - { offset: 0x8E289, size: 0x8, addend: 0x0, symName: __ZNSt3__119__to_address_helperINS_16reverse_iteratorINS1_IPNS_6vectorIdNS_9allocatorIdEEEEEEEEvE6__callB8ne180100ERKS8_, symObjAddr: 0x19930, symBinAddr: 0x10001DA90, symSize: 0x38 }
  - { offset: 0x8E2AC, size: 0x8, addend: 0x0, symName: __ZNKSt3__116reverse_iteratorINS0_IPNS_6vectorIdNS_9allocatorIdEEEEEEEptB8ne180100Ev, symObjAddr: 0x19968, symBinAddr: 0x10001DAC8, symSize: 0x24 }
  - { offset: 0x8E2D2, size: 0x8, addend: 0x0, symName: __ZNKSt3__116reverse_iteratorINS0_IPNS_6vectorIdNS_9allocatorIdEEEEEEEdeB8ne180100Ev, symObjAddr: 0x1998C, symBinAddr: 0x10001DAEC, symSize: 0x34 }
  - { offset: 0x8E306, size: 0x8, addend: 0x0, symName: __ZNSt3__116reverse_iteratorIPNS_6vectorIdNS_9allocatorIdEEEEEmmB8ne180100Ev, symObjAddr: 0x199C0, symBinAddr: 0x10001DB20, symSize: 0x20 }
  - { offset: 0x8E32C, size: 0x8, addend: 0x0, symName: __ZNSt3__116reverse_iteratorINS0_IPNS_6vectorIdNS_9allocatorIdEEEEEEEC2B8ne180100ES6_, symObjAddr: 0x199E0, symBinAddr: 0x10001DB40, symSize: 0x2C }
  - { offset: 0x8E364, size: 0x8, addend: 0x0, symName: __ZNSt3__114__split_bufferINS_6vectorIdNS_9allocatorIdEEEERNS2_IS4_EEED2Ev, symObjAddr: 0x19A0C, symBinAddr: 0x10001DB6C, symSize: 0x8C }
  - { offset: 0x8E390, size: 0x8, addend: 0x0, symName: __ZNSt3__114__split_bufferINS_6vectorIdNS_9allocatorIdEEEERNS2_IS4_EEE5clearB8ne180100Ev, symObjAddr: 0x19A98, symBinAddr: 0x10001DBF8, symSize: 0x28 }
  - { offset: 0x8E3B6, size: 0x8, addend: 0x0, symName: __ZNKSt3__114__split_bufferINS_6vectorIdNS_9allocatorIdEEEERNS2_IS4_EEE8capacityB8ne180100Ev, symObjAddr: 0x19AC0, symBinAddr: 0x10001DC20, symSize: 0x40 }
  - { offset: 0x8E3DC, size: 0x8, addend: 0x0, symName: __ZNSt3__114__split_bufferINS_6vectorIdNS_9allocatorIdEEEERNS2_IS4_EEE17__destruct_at_endB8ne180100EPS4_, symObjAddr: 0x19B00, symBinAddr: 0x10001DC60, symSize: 0x2C }
  - { offset: 0x8E410, size: 0x8, addend: 0x0, symName: __ZNSt3__114__split_bufferINS_6vectorIdNS_9allocatorIdEEEERNS2_IS4_EEE17__destruct_at_endB8ne180100EPS4_NS_17integral_constantIbLb0EEE, symObjAddr: 0x19B2C, symBinAddr: 0x10001DC8C, symSize: 0x80 }
  - { offset: 0x8E451, size: 0x8, addend: 0x0, symName: __ZNKSt3__114__split_bufferINS_6vectorIdNS_9allocatorIdEEEERNS2_IS4_EEE9__end_capB8ne180100Ev, symObjAddr: 0x19BAC, symBinAddr: 0x10001DD0C, symSize: 0x28 }
  - { offset: 0x8E477, size: 0x8, addend: 0x0, symName: __ZNKSt3__117__compressed_pairIPNS_6vectorIdNS_9allocatorIdEEEERNS2_IS4_EEE5firstB8ne180100Ev, symObjAddr: 0x19BD4, symBinAddr: 0x10001DD34, symSize: 0x24 }
  - { offset: 0x8E49D, size: 0x8, addend: 0x0, symName: __ZNSt3__16vectorINS0_IN18SingleJetCorrector4TypeENS_9allocatorIS2_EEEENS3_IS5_EEE22__construct_one_at_endB8ne180100IJRKS5_EEEvDpOT_, symObjAddr: 0x19BF8, symBinAddr: 0x10001DD58, symSize: 0x90 }
  - { offset: 0x8E4EC, size: 0x8, addend: 0x0, symName: __ZNSt3__16vectorINS0_IN18SingleJetCorrector4TypeENS_9allocatorIS2_EEEENS3_IS5_EEE21__push_back_slow_pathIRKS5_EEPS5_OT_, symObjAddr: 0x19C88, symBinAddr: 0x10001DDE8, symSize: 0xE8 }
  - { offset: 0x8E54A, size: 0x8, addend: 0x0, symName: __ZNSt3__116allocator_traitsINS_9allocatorINS_6vectorIN18SingleJetCorrector4TypeENS1_IS4_EEEEEEE9constructB8ne180100IS6_JRKS6_EvEEvRS7_PT_DpOT0_, symObjAddr: 0x19D70, symBinAddr: 0x10001DED0, symSize: 0x34 }
  - { offset: 0x8E5A1, size: 0x8, addend: 0x0, symName: __ZNSt3__19allocatorINS_6vectorIN18SingleJetCorrector4TypeENS0_IS3_EEEEE9constructB8ne180100IS5_JRKS5_EEEvPT_DpOT0_, symObjAddr: 0x19DA4, symBinAddr: 0x10001DF04, symSize: 0x30 }
  - { offset: 0x8E5F7, size: 0x8, addend: 0x0, symName: __ZNKSt3__16vectorINS0_IN18SingleJetCorrector4TypeENS_9allocatorIS2_EEEENS3_IS5_EEE11__recommendB8ne180100Em, symObjAddr: 0x19DD4, symBinAddr: 0x10001DF34, symSize: 0xB4 }
  - { offset: 0x8E64C, size: 0x8, addend: 0x0, symName: __ZNSt3__114__split_bufferINS_6vectorIN18SingleJetCorrector4TypeENS_9allocatorIS3_EEEERNS4_IS6_EEEC1EmmS8_, symObjAddr: 0x19E88, symBinAddr: 0x10001DFE8, symSize: 0x44 }
  - { offset: 0x8E6A2, size: 0x8, addend: 0x0, symName: __ZNSt3__114__split_bufferINS_6vectorIN18SingleJetCorrector4TypeENS_9allocatorIS3_EEEERNS4_IS6_EEED1Ev, symObjAddr: 0x19FDC, symBinAddr: 0x10001E13C, symSize: 0x2C }
  - { offset: 0x8E6CE, size: 0x8, addend: 0x0, symName: __ZNSt3__114__split_bufferINS_6vectorIN18SingleJetCorrector4TypeENS_9allocatorIS3_EEEERNS4_IS6_EEEC2EmmS8_, symObjAddr: 0x1A008, symBinAddr: 0x10001E168, symSize: 0xE0 }
  - { offset: 0x8E742, size: 0x8, addend: 0x0, symName: __ZNSt3__117__compressed_pairIPNS_6vectorIN18SingleJetCorrector4TypeENS_9allocatorIS3_EEEERNS4_IS6_EEEC1B8ne180100IDnS9_EEOT_OT0_, symObjAddr: 0x1A0E8, symBinAddr: 0x10001E248, symSize: 0x3C }
  - { offset: 0x8E79A, size: 0x8, addend: 0x0, symName: __ZNSt3__114__split_bufferINS_6vectorIN18SingleJetCorrector4TypeENS_9allocatorIS3_EEEERNS4_IS6_EEE7__allocB8ne180100Ev, symObjAddr: 0x1A124, symBinAddr: 0x10001E284, symSize: 0x28 }
  - { offset: 0x8E7C0, size: 0x8, addend: 0x0, symName: __ZNSt3__114__split_bufferINS_6vectorIN18SingleJetCorrector4TypeENS_9allocatorIS3_EEEERNS4_IS6_EEE9__end_capB8ne180100Ev, symObjAddr: 0x1A14C, symBinAddr: 0x10001E2AC, symSize: 0x28 }
  - { offset: 0x8E7E6, size: 0x8, addend: 0x0, symName: __ZNSt3__117__compressed_pairIPNS_6vectorIN18SingleJetCorrector4TypeENS_9allocatorIS3_EEEERNS4_IS6_EEEC2B8ne180100IDnS9_EEOT_OT0_, symObjAddr: 0x1A174, symBinAddr: 0x10001E2D4, symSize: 0x48 }
  - { offset: 0x8E83E, size: 0x8, addend: 0x0, symName: __ZNSt3__122__compressed_pair_elemIRNS_9allocatorINS_6vectorIN18SingleJetCorrector4TypeENS1_IS4_EEEEEELi1ELb0EEC2B8ne180100IS8_vEEOT_, symObjAddr: 0x1A1BC, symBinAddr: 0x10001E31C, symSize: 0x20 }
  - { offset: 0x8E880, size: 0x8, addend: 0x0, symName: __ZNSt3__117__compressed_pairIPNS_6vectorIN18SingleJetCorrector4TypeENS_9allocatorIS3_EEEERNS4_IS6_EEE6secondB8ne180100Ev, symObjAddr: 0x1A1DC, symBinAddr: 0x10001E33C, symSize: 0x28 }
  - { offset: 0x8E8A6, size: 0x8, addend: 0x0, symName: __ZNSt3__122__compressed_pair_elemIRNS_9allocatorINS_6vectorIN18SingleJetCorrector4TypeENS1_IS4_EEEEEELi1ELb0EE5__getB8ne180100Ev, symObjAddr: 0x1A204, symBinAddr: 0x10001E364, symSize: 0x18 }
  - { offset: 0x8E8CC, size: 0x8, addend: 0x0, symName: __ZNSt3__117__compressed_pairIPNS_6vectorIN18SingleJetCorrector4TypeENS_9allocatorIS3_EEEERNS4_IS6_EEE5firstB8ne180100Ev, symObjAddr: 0x1A21C, symBinAddr: 0x10001E37C, symSize: 0x24 }
  - { offset: 0x8E8F2, size: 0x8, addend: 0x0, symName: __ZNSt3__129_AllocatorDestroyRangeReverseINS_9allocatorINS_6vectorIN18SingleJetCorrector4TypeENS1_IS4_EEEEEENS_16reverse_iteratorIPS6_EEEC1B8ne180100ERS7_RSA_SD_, symObjAddr: 0x1A3E4, symBinAddr: 0x10001E544, symSize: 0x44 }
  - { offset: 0x8E949, size: 0x8, addend: 0x0, symName: __ZNSt3__116allocator_traitsINS_9allocatorINS_6vectorIN18SingleJetCorrector4TypeENS1_IS4_EEEEEEE9constructB8ne180100IS6_JS6_EvEEvRS7_PT_DpOT0_, symObjAddr: 0x1A428, symBinAddr: 0x10001E588, symSize: 0x34 }
  - { offset: 0x8E9A0, size: 0x8, addend: 0x0, symName: __ZNSt3__128__exception_guard_exceptionsINS_29_AllocatorDestroyRangeReverseINS_9allocatorINS_6vectorIN18SingleJetCorrector4TypeENS2_IS5_EEEEEENS_16reverse_iteratorIPS7_EEEEE10__completeB8ne180100Ev, symObjAddr: 0x1A45C, symBinAddr: 0x10001E5BC, symSize: 0x1C }
  - { offset: 0x8E9C6, size: 0x8, addend: 0x0, symName: __ZNSt3__128__exception_guard_exceptionsINS_29_AllocatorDestroyRangeReverseINS_9allocatorINS_6vectorIN18SingleJetCorrector4TypeENS2_IS5_EEEEEENS_16reverse_iteratorIPS7_EEEEED1B8ne180100Ev, symObjAddr: 0x1A478, symBinAddr: 0x10001E5D8, symSize: 0x2C }
  - { offset: 0x8E9F0, size: 0x8, addend: 0x0, symName: __ZNSt3__128__exception_guard_exceptionsINS_29_AllocatorDestroyRangeReverseINS_9allocatorINS_6vectorIN18SingleJetCorrector4TypeENS2_IS5_EEEEEENS_16reverse_iteratorIPS7_EEEEEC1B8ne180100ESC_, symObjAddr: 0x1A4A4, symBinAddr: 0x10001E604, symSize: 0x34 }
  - { offset: 0x8EA29, size: 0x8, addend: 0x0, symName: __ZNSt3__128__exception_guard_exceptionsINS_29_AllocatorDestroyRangeReverseINS_9allocatorINS_6vectorIN18SingleJetCorrector4TypeENS2_IS5_EEEEEENS_16reverse_iteratorIPS7_EEEEEC2B8ne180100ESC_, symObjAddr: 0x1A4D8, symBinAddr: 0x10001E638, symSize: 0x30 }
  - { offset: 0x8EA62, size: 0x8, addend: 0x0, symName: __ZNSt3__129_AllocatorDestroyRangeReverseINS_9allocatorINS_6vectorIN18SingleJetCorrector4TypeENS1_IS4_EEEEEENS_16reverse_iteratorIPS6_EEEC2B8ne180100ERS7_RSA_SD_, symObjAddr: 0x1A508, symBinAddr: 0x10001E668, symSize: 0x38 }
  - { offset: 0x8EAB9, size: 0x8, addend: 0x0, symName: __ZNSt3__19allocatorINS_6vectorIN18SingleJetCorrector4TypeENS0_IS3_EEEEE9constructB8ne180100IS5_JS5_EEEvPT_DpOT0_, symObjAddr: 0x1A540, symBinAddr: 0x10001E6A0, symSize: 0x30 }
  - { offset: 0x8EB0F, size: 0x8, addend: 0x0, symName: __ZNSt3__16vectorIN18SingleJetCorrector4TypeENS_9allocatorIS2_EEEC1B8ne180100EOS5_, symObjAddr: 0x1A570, symBinAddr: 0x10001E6D0, symSize: 0x34 }
  - { offset: 0x8EB4A, size: 0x8, addend: 0x0, symName: __ZNSt3__16vectorIN18SingleJetCorrector4TypeENS_9allocatorIS2_EEEC2B8ne180100EOS5_, symObjAddr: 0x1A5A4, symBinAddr: 0x10001E704, symSize: 0xC4 }
  - { offset: 0x8EB85, size: 0x8, addend: 0x0, symName: __ZNSt3__128__exception_guard_exceptionsINS_29_AllocatorDestroyRangeReverseINS_9allocatorINS_6vectorIN18SingleJetCorrector4TypeENS2_IS5_EEEEEENS_16reverse_iteratorIPS7_EEEEED2B8ne180100Ev, symObjAddr: 0x1A668, symBinAddr: 0x10001E7C8, symSize: 0x50 }
  - { offset: 0x8EBAF, size: 0x8, addend: 0x0, symName: __ZNKSt3__129_AllocatorDestroyRangeReverseINS_9allocatorINS_6vectorIN18SingleJetCorrector4TypeENS1_IS4_EEEEEENS_16reverse_iteratorIPS6_EEEclB8ne180100Ev, symObjAddr: 0x1A6B8, symBinAddr: 0x10001E818, symSize: 0xB4 }
  - { offset: 0x8EBD6, size: 0x8, addend: 0x0, symName: __ZNSt3__116reverse_iteratorINS0_IPNS_6vectorIN18SingleJetCorrector4TypeENS_9allocatorIS3_EEEEEEEC1B8ne180100ES8_, symObjAddr: 0x1A7DC, symBinAddr: 0x10001E93C, symSize: 0x3C }
  - { offset: 0x8EC0E, size: 0x8, addend: 0x0, symName: __ZNSt3__116reverse_iteratorINS0_IPNS_6vectorIN18SingleJetCorrector4TypeENS_9allocatorIS3_EEEEEEEppB8ne180100Ev, symObjAddr: 0x1A89C, symBinAddr: 0x10001E9FC, symSize: 0x30 }
  - { offset: 0x8EC34, size: 0x8, addend: 0x0, symName: __ZNKSt3__116reverse_iteratorINS0_IPNS_6vectorIN18SingleJetCorrector4TypeENS_9allocatorIS3_EEEEEEE4baseB8ne180100Ev, symObjAddr: 0x1A8CC, symBinAddr: 0x10001EA2C, symSize: 0x24 }
  - { offset: 0x8EC60, size: 0x8, addend: 0x0, symName: __ZNSt3__119__to_address_helperINS_16reverse_iteratorINS1_IPNS_6vectorIN18SingleJetCorrector4TypeENS_9allocatorIS4_EEEEEEEEvE6__callB8ne180100ERKSA_, symObjAddr: 0x1A8F0, symBinAddr: 0x10001EA50, symSize: 0x38 }
  - { offset: 0x8EC83, size: 0x8, addend: 0x0, symName: __ZNKSt3__116reverse_iteratorINS0_IPNS_6vectorIN18SingleJetCorrector4TypeENS_9allocatorIS3_EEEEEEEptB8ne180100Ev, symObjAddr: 0x1A928, symBinAddr: 0x10001EA88, symSize: 0x24 }
  - { offset: 0x8ECA9, size: 0x8, addend: 0x0, symName: __ZNKSt3__116reverse_iteratorINS0_IPNS_6vectorIN18SingleJetCorrector4TypeENS_9allocatorIS3_EEEEEEEdeB8ne180100Ev, symObjAddr: 0x1A94C, symBinAddr: 0x10001EAAC, symSize: 0x34 }
  - { offset: 0x8ECDD, size: 0x8, addend: 0x0, symName: __ZNSt3__116reverse_iteratorIPNS_6vectorIN18SingleJetCorrector4TypeENS_9allocatorIS3_EEEEEmmB8ne180100Ev, symObjAddr: 0x1A980, symBinAddr: 0x10001EAE0, symSize: 0x20 }
  - { offset: 0x8ED03, size: 0x8, addend: 0x0, symName: __ZNSt3__116reverse_iteratorINS0_IPNS_6vectorIN18SingleJetCorrector4TypeENS_9allocatorIS3_EEEEEEEC2B8ne180100ES8_, symObjAddr: 0x1A9A0, symBinAddr: 0x10001EB00, symSize: 0x2C }
  - { offset: 0x8ED3B, size: 0x8, addend: 0x0, symName: __ZNSt3__114__split_bufferINS_6vectorIN18SingleJetCorrector4TypeENS_9allocatorIS3_EEEERNS4_IS6_EEED2Ev, symObjAddr: 0x1A9CC, symBinAddr: 0x10001EB2C, symSize: 0x8C }
  - { offset: 0x8ED67, size: 0x8, addend: 0x0, symName: __ZNSt3__114__split_bufferINS_6vectorIN18SingleJetCorrector4TypeENS_9allocatorIS3_EEEERNS4_IS6_EEE5clearB8ne180100Ev, symObjAddr: 0x1AA58, symBinAddr: 0x10001EBB8, symSize: 0x28 }
  - { offset: 0x8ED8D, size: 0x8, addend: 0x0, symName: __ZNKSt3__114__split_bufferINS_6vectorIN18SingleJetCorrector4TypeENS_9allocatorIS3_EEEERNS4_IS6_EEE8capacityB8ne180100Ev, symObjAddr: 0x1AA80, symBinAddr: 0x10001EBE0, symSize: 0x40 }
  - { offset: 0x8EDB3, size: 0x8, addend: 0x0, symName: __ZNSt3__114__split_bufferINS_6vectorIN18SingleJetCorrector4TypeENS_9allocatorIS3_EEEERNS4_IS6_EEE17__destruct_at_endB8ne180100EPS6_, symObjAddr: 0x1AAC0, symBinAddr: 0x10001EC20, symSize: 0x2C }
  - { offset: 0x8EDE7, size: 0x8, addend: 0x0, symName: __ZNSt3__114__split_bufferINS_6vectorIN18SingleJetCorrector4TypeENS_9allocatorIS3_EEEERNS4_IS6_EEE17__destruct_at_endB8ne180100EPS6_NS_17integral_constantIbLb0EEE, symObjAddr: 0x1AAEC, symBinAddr: 0x10001EC4C, symSize: 0x80 }
  - { offset: 0x8EE28, size: 0x8, addend: 0x0, symName: __ZNKSt3__114__split_bufferINS_6vectorIN18SingleJetCorrector4TypeENS_9allocatorIS3_EEEERNS4_IS6_EEE9__end_capB8ne180100Ev, symObjAddr: 0x1AB6C, symBinAddr: 0x10001ECCC, symSize: 0x28 }
  - { offset: 0x8EE4E, size: 0x8, addend: 0x0, symName: __ZNKSt3__117__compressed_pairIPNS_6vectorIN18SingleJetCorrector4TypeENS_9allocatorIS3_EEEERNS4_IS6_EEE5firstB8ne180100Ev, symObjAddr: 0x1AB94, symBinAddr: 0x10001ECF4, symSize: 0x24 }
  - { offset: 0x8EE74, size: 0x8, addend: 0x0, symName: __ZNSt3__16vectorINS_12basic_stringIcNS_11char_traitsIcEENS_9allocatorIcEEEENS4_IS6_EEE22__construct_one_at_endB8ne180100IJS6_EEEvDpOT_, symObjAddr: 0x1ABB8, symBinAddr: 0x10001ED18, symSize: 0x90 }
  - { offset: 0x8EEC3, size: 0x8, addend: 0x0, symName: __ZNSt3__16vectorINS_12basic_stringIcNS_11char_traitsIcEENS_9allocatorIcEEEENS4_IS6_EEE21__push_back_slow_pathIS6_EEPS6_OT_, symObjAddr: 0x1AC48, symBinAddr: 0x10001EDA8, symSize: 0xE8 }
  - { offset: 0x8EF21, size: 0x8, addend: 0x0, symName: __ZNKSt3__16vectorIdNS_9allocatorIdEEE17__annotate_shrinkB8ne180100Em, symObjAddr: 0x1AD30, symBinAddr: 0x10001EE90, symSize: 0x14 }
  - { offset: 0x8EF5C, size: 0x8, addend: 0x0, symName: __ZNSt3__16vectorIP3TF1NS_9allocatorIS2_EEE22__construct_one_at_endB8ne180100IJS2_EEEvDpOT_, symObjAddr: 0x1AD44, symBinAddr: 0x10001EEA4, symSize: 0x90 }
  - { offset: 0x8EFAB, size: 0x8, addend: 0x0, symName: __ZNSt3__16vectorIP3TF1NS_9allocatorIS2_EEE21__push_back_slow_pathIS2_EEPS2_OT_, symObjAddr: 0x1ADD4, symBinAddr: 0x10001EF34, symSize: 0xE8 }
  - { offset: 0x8F009, size: 0x8, addend: 0x0, symName: __ZNSt3__116allocator_traitsINS_9allocatorIP3TF1EEE9constructB8ne180100IS3_JS3_EvEEvRS4_PT_DpOT0_, symObjAddr: 0x1AEBC, symBinAddr: 0x10001F01C, symSize: 0x34 }
  - { offset: 0x8F060, size: 0x8, addend: 0x0, symName: __ZNSt3__19allocatorIP3TF1E9constructB8ne180100IS2_JS2_EEEvPT_DpOT0_, symObjAddr: 0x1AEF0, symBinAddr: 0x10001F050, symSize: 0x28 }
  - { offset: 0x8F0B6, size: 0x8, addend: 0x0, symName: __ZNKSt3__16vectorIP3TF1NS_9allocatorIS2_EEE11__recommendB8ne180100Em, symObjAddr: 0x1AF18, symBinAddr: 0x10001F078, symSize: 0xB4 }
  - { offset: 0x8F10B, size: 0x8, addend: 0x0, symName: __ZNSt3__114__split_bufferIP3TF1RNS_9allocatorIS2_EEEC1EmmS5_, symObjAddr: 0x1AFCC, symBinAddr: 0x10001F12C, symSize: 0x44 }
  - { offset: 0x8F161, size: 0x8, addend: 0x0, symName: __ZNSt3__114__split_bufferIP3TF1RNS_9allocatorIS2_EEED1Ev, symObjAddr: 0x1B120, symBinAddr: 0x10001F280, symSize: 0x2C }
  - { offset: 0x8F18D, size: 0x8, addend: 0x0, symName: __ZNSt3__114__split_bufferIP3TF1RNS_9allocatorIS2_EEEC2EmmS5_, symObjAddr: 0x1B14C, symBinAddr: 0x10001F2AC, symSize: 0xD4 }
  - { offset: 0x8F201, size: 0x8, addend: 0x0, symName: __ZNSt3__117__compressed_pairIPP3TF1RNS_9allocatorIS2_EEEC1B8ne180100IDnS6_EEOT_OT0_, symObjAddr: 0x1B220, symBinAddr: 0x10001F380, symSize: 0x3C }
  - { offset: 0x8F259, size: 0x8, addend: 0x0, symName: __ZNSt3__114__split_bufferIP3TF1RNS_9allocatorIS2_EEE7__allocB8ne180100Ev, symObjAddr: 0x1B25C, symBinAddr: 0x10001F3BC, symSize: 0x28 }
  - { offset: 0x8F27F, size: 0x8, addend: 0x0, symName: __ZNSt3__114__split_bufferIP3TF1RNS_9allocatorIS2_EEE9__end_capB8ne180100Ev, symObjAddr: 0x1B284, symBinAddr: 0x10001F3E4, symSize: 0x28 }
  - { offset: 0x8F2A5, size: 0x8, addend: 0x0, symName: __ZNSt3__117__compressed_pairIPP3TF1RNS_9allocatorIS2_EEEC2B8ne180100IDnS6_EEOT_OT0_, symObjAddr: 0x1B2AC, symBinAddr: 0x10001F40C, symSize: 0x48 }
  - { offset: 0x8F2FD, size: 0x8, addend: 0x0, symName: __ZNSt3__122__compressed_pair_elemIRNS_9allocatorIP3TF1EELi1ELb0EEC2B8ne180100IS5_vEEOT_, symObjAddr: 0x1B2F4, symBinAddr: 0x10001F454, symSize: 0x20 }
  - { offset: 0x8F33F, size: 0x8, addend: 0x0, symName: __ZNSt3__117__compressed_pairIPP3TF1RNS_9allocatorIS2_EEE6secondB8ne180100Ev, symObjAddr: 0x1B314, symBinAddr: 0x10001F474, symSize: 0x28 }
  - { offset: 0x8F365, size: 0x8, addend: 0x0, symName: __ZNSt3__122__compressed_pair_elemIRNS_9allocatorIP3TF1EELi1ELb0EE5__getB8ne180100Ev, symObjAddr: 0x1B33C, symBinAddr: 0x10001F49C, symSize: 0x18 }
  - { offset: 0x8F38B, size: 0x8, addend: 0x0, symName: __ZNSt3__117__compressed_pairIPP3TF1RNS_9allocatorIS2_EEE5firstB8ne180100Ev, symObjAddr: 0x1B354, symBinAddr: 0x10001F4B4, symSize: 0x24 }
  - { offset: 0x8F3B1, size: 0x8, addend: 0x0, symName: __ZNSt3__116reverse_iteratorIPP3TF1EC1B8ne180100ES3_, symObjAddr: 0x1B3F0, symBinAddr: 0x10001F550, symSize: 0x34 }
  - { offset: 0x8F3E9, size: 0x8, addend: 0x0, symName: __ZNKSt3__116reverse_iteratorIPP3TF1E4baseB8ne180100Ev, symObjAddr: 0x1B424, symBinAddr: 0x10001F584, symSize: 0x18 }
  - { offset: 0x8F42B, size: 0x8, addend: 0x0, symName: __ZNKSt3__111__move_loopINS_17_ClassicAlgPolicyEEclB8ne180100INS_16reverse_iteratorIPP3TF1EES8_S8_EENS_4pairIT_T1_EESA_T0_SB_, symObjAddr: 0x1B768, symBinAddr: 0x10001F8C8, symSize: 0xA0 }
  - { offset: 0x8F49C, size: 0x8, addend: 0x0, symName: __ZNSt3__18_IterOpsINS_17_ClassicAlgPolicyEE11__iter_moveB8ne180100IRNS_16reverse_iteratorIPP3TF1EELi0EEEDTclsr3stdE4movedeclsr3stdE7declvalIRT_EEEEOSA_, symObjAddr: 0x1B99C, symBinAddr: 0x10001FAFC, symSize: 0x28 }
  - { offset: 0x8F4CE, size: 0x8, addend: 0x0, symName: __ZNKSt3__116reverse_iteratorIPP3TF1EdeB8ne180100Ev, symObjAddr: 0x1B9C4, symBinAddr: 0x10001FB24, symSize: 0x28 }
  - { offset: 0x8F502, size: 0x8, addend: 0x0, symName: __ZNSt3__116reverse_iteratorIPP3TF1EppB8ne180100Ev, symObjAddr: 0x1B9EC, symBinAddr: 0x10001FB4C, symSize: 0x20 }
  - { offset: 0x8F528, size: 0x8, addend: 0x0, symName: __ZNSt3__18_IterOpsINS_17_ClassicAlgPolicyEE25__validate_iter_referenceB8ne180100IRNS_16reverse_iteratorIPP3TF1EEEEvv, symObjAddr: 0x1BA0C, symBinAddr: 0x10001FB6C, symSize: 0x4 }
  - { offset: 0x8F546, size: 0x8, addend: 0x0, symName: __ZNSt3__118__unwrap_iter_implINS_16reverse_iteratorIPP3TF1EELb0EE8__unwrapB8ne180100ES5_, symObjAddr: 0x1BA10, symBinAddr: 0x10001FB70, symSize: 0x24 }
  - { offset: 0x8F56F, size: 0x8, addend: 0x0, symName: __ZNSt3__14pairINS_16reverse_iteratorIPP3TF1EES5_EC1B8ne180100IS5_S5_Li0EEEOT_OT0_, symObjAddr: 0x1BA34, symBinAddr: 0x10001FB94, symSize: 0x3C }
  - { offset: 0x8F5CD, size: 0x8, addend: 0x0, symName: __ZNSt3__14pairINS_16reverse_iteratorIPP3TF1EES5_EC2B8ne180100IS5_S5_Li0EEEOT_OT0_, symObjAddr: 0x1BA70, symBinAddr: 0x10001FBD0, symSize: 0x34 }
  - { offset: 0x8F62B, size: 0x8, addend: 0x0, symName: __ZNSt3__118__unwrap_iter_implINS_16reverse_iteratorIPP3TF1EELb0EE8__rewrapB8ne180100ES5_S5_, symObjAddr: 0x1BAA4, symBinAddr: 0x10001FC04, symSize: 0x2C }
  - { offset: 0x8F659, size: 0x8, addend: 0x0, symName: __ZNSt3__116reverse_iteratorIPP3TF1EC2B8ne180100ES3_, symObjAddr: 0x1BAD0, symBinAddr: 0x10001FC30, symSize: 0x28 }
  - { offset: 0x8F691, size: 0x8, addend: 0x0, symName: __ZNSt3__114__split_bufferIP3TF1RNS_9allocatorIS2_EEED2Ev, symObjAddr: 0x1BAF8, symBinAddr: 0x10001FC58, symSize: 0x8C }
  - { offset: 0x8F6BD, size: 0x8, addend: 0x0, symName: __ZNSt3__114__split_bufferIP3TF1RNS_9allocatorIS2_EEE5clearB8ne180100Ev, symObjAddr: 0x1BB84, symBinAddr: 0x10001FCE4, symSize: 0x28 }
  - { offset: 0x8F6E3, size: 0x8, addend: 0x0, symName: __ZNKSt3__114__split_bufferIP3TF1RNS_9allocatorIS2_EEE8capacityB8ne180100Ev, symObjAddr: 0x1BBAC, symBinAddr: 0x10001FD0C, symSize: 0x40 }
  - { offset: 0x8F709, size: 0x8, addend: 0x0, symName: __ZNSt3__114__split_bufferIP3TF1RNS_9allocatorIS2_EEE17__destruct_at_endB8ne180100EPS2_, symObjAddr: 0x1BBEC, symBinAddr: 0x10001FD4C, symSize: 0x2C }
  - { offset: 0x8F73D, size: 0x8, addend: 0x0, symName: __ZNSt3__114__split_bufferIP3TF1RNS_9allocatorIS2_EEE17__destruct_at_endB8ne180100EPS2_NS_17integral_constantIbLb0EEE, symObjAddr: 0x1BC18, symBinAddr: 0x10001FD78, symSize: 0x80 }
  - { offset: 0x8F77E, size: 0x8, addend: 0x0, symName: __ZNKSt3__114__split_bufferIP3TF1RNS_9allocatorIS2_EEE9__end_capB8ne180100Ev, symObjAddr: 0x1BC98, symBinAddr: 0x10001FDF8, symSize: 0x28 }
  - { offset: 0x8F7A4, size: 0x8, addend: 0x0, symName: __ZNKSt3__117__compressed_pairIPP3TF1RNS_9allocatorIS2_EEE5firstB8ne180100Ev, symObjAddr: 0x1BCC0, symBinAddr: 0x10001FE20, symSize: 0x24 }
  - { offset: 0x8F7CA, size: 0x8, addend: 0x0, symName: __ZNSt3__114basic_iostreamIcNS_11char_traitsIcEEEC2B8ne180100EPNS_15basic_streambufIcS2_EE, symObjAddr: 0x1BCE4, symBinAddr: 0x10001FE44, symSize: 0xAC }
  - { offset: 0x8F810, size: 0x8, addend: 0x0, symName: __ZNSt3__115basic_stringbufIcNS_11char_traitsIcEENS_9allocatorIcEEEC1B8ne180100ERKNS_12basic_stringIcS2_S4_EEj, symObjAddr: 0x1BD90, symBinAddr: 0x10001FEF0, symSize: 0x3C }
  - { offset: 0x8F858, size: 0x8, addend: 0x0, symName: __ZNSt3__113basic_ostreamIcNS_11char_traitsIcEEEC2B8ne180100Ev, symObjAddr: 0x1BDCC, symBinAddr: 0x10001FF2C, symSize: 0x34 }
  - { offset: 0x8F88F, size: 0x8, addend: 0x0, symName: __ZNSt3__115basic_stringbufIcNS_11char_traitsIcEENS_9allocatorIcEEEC2B8ne180100ERKNS_12basic_stringIcS2_S4_EEj, symObjAddr: 0x1BE00, symBinAddr: 0x10001FF60, symSize: 0xA8 }
  - { offset: 0x8F8D7, size: 0x8, addend: 0x0, symName: __ZNKSt3__112basic_stringIcNS_11char_traitsIcEENS_9allocatorIcEEE13get_allocatorB8ne180100Ev, symObjAddr: 0x1BEA8, symBinAddr: 0x100020008, symSize: 0x24 }
  - { offset: 0x8F8FD, size: 0x8, addend: 0x0, symName: __ZNSt3__112basic_stringIcNS_11char_traitsIcEENS_9allocatorIcEEEC1B8ne180100ERKS4_, symObjAddr: 0x1BECC, symBinAddr: 0x10002002C, symSize: 0x34 }
  - { offset: 0x8F936, size: 0x8, addend: 0x0, symName: __ZNKSt3__112basic_stringIcNS_11char_traitsIcEENS_9allocatorIcEEE7__allocB8ne180100Ev, symObjAddr: 0x1BF00, symBinAddr: 0x100020060, symSize: 0x24 }
  - { offset: 0x8F95C, size: 0x8, addend: 0x0, symName: __ZNKSt3__117__compressed_pairINS_12basic_stringIcNS_11char_traitsIcEENS_9allocatorIcEEE5__repES5_E6secondB8ne180100Ev, symObjAddr: 0x1BF24, symBinAddr: 0x100020084, symSize: 0x24 }
  - { offset: 0x8F982, size: 0x8, addend: 0x0, symName: __ZNKSt3__122__compressed_pair_elemINS_9allocatorIcEELi1ELb1EE5__getB8ne180100Ev, symObjAddr: 0x1BF48, symBinAddr: 0x1000200A8, symSize: 0x14 }
  - { offset: 0x8F9A8, size: 0x8, addend: 0x0, symName: __ZNSt3__112basic_stringIcNS_11char_traitsIcEENS_9allocatorIcEEEC2B8ne180100ERKS4_, symObjAddr: 0x1BF5C, symBinAddr: 0x1000200BC, symSize: 0x4C }
  - { offset: 0x8F9E7, size: 0x8, addend: 0x0, symName: __ZNSt3__117__compressed_pairINS_12basic_stringIcNS_11char_traitsIcEENS_9allocatorIcEEE5__repES5_EC1B8ne180100INS_16__value_init_tagERKS5_EEOT_OT0_, symObjAddr: 0x1BFA8, symBinAddr: 0x100020108, symSize: 0x3C }
  - { offset: 0x8FA3F, size: 0x8, addend: 0x0, symName: __ZNSt3__117__compressed_pairINS_12basic_stringIcNS_11char_traitsIcEENS_9allocatorIcEEE5__repES5_EC2B8ne180100INS_16__value_init_tagERKS5_EEOT_OT0_, symObjAddr: 0x1BFE4, symBinAddr: 0x100020144, symSize: 0x40 }
  - { offset: 0x8FA97, size: 0x8, addend: 0x0, symName: __ZNSt3__122__compressed_pair_elemINS_12basic_stringIcNS_11char_traitsIcEENS_9allocatorIcEEE5__repELi0ELb0EEC2B8ne180100ENS_16__value_init_tagE, symObjAddr: 0x1C024, symBinAddr: 0x100020184, symSize: 0x20 }
  - { offset: 0x8FACC, size: 0x8, addend: 0x0, symName: __ZNSt3__122__compressed_pair_elemINS_9allocatorIcEELi1ELb1EEC2B8ne180100IRKS2_vEEOT_, symObjAddr: 0x1C044, symBinAddr: 0x1000201A4, symSize: 0x18 }
  - { offset: 0x8FB2F, size: 0x8, addend: 0x0, symName: __ZNKSt3__113basic_istreamIcNS_11char_traitsIcEEE6sentrycvbB8ne180100Ev, symObjAddr: 0x1C05C, symBinAddr: 0x1000201BC, symSize: 0x1C }
  - { offset: 0x8FB55, size: 0x8, addend: 0x0, symName: __ZNSt3__112basic_stringIcNS_11char_traitsIcEENS_9allocatorIcEEE5clearB8ne180100Ev, symObjAddr: 0x1C078, symBinAddr: 0x1000201D8, symSize: 0x94 }
  - { offset: 0x8FB8C, size: 0x8, addend: 0x0, symName: __ZNKSt3__112basic_stringIcNS_11char_traitsIcEENS_9allocatorIcEEE8max_sizeB8ne180100Ev, symObjAddr: 0x1C10C, symBinAddr: 0x10002026C, symSize: 0xAC }
  - { offset: 0x8FBDF, size: 0x8, addend: 0x0, symName: __ZNSt3__115basic_streambufIcNS_11char_traitsIcEEE5sgetcB8ne180100Ev, symObjAddr: 0x1C1B8, symBinAddr: 0x100020318, symSize: 0x70 }
  - { offset: 0x8FC05, size: 0x8, addend: 0x0, symName: __ZNSt3__111char_traitsIcE12to_char_typeB8ne180100Ei, symObjAddr: 0x1C228, symBinAddr: 0x100020388, symSize: 0x18 }
  - { offset: 0x8FC29, size: 0x8, addend: 0x0, symName: __ZNKSt3__15ctypeIcE2isB8ne180100Ejc, symObjAddr: 0x1C240, symBinAddr: 0x1000203A0, symSize: 0x7C }
  - { offset: 0x8FC6D, size: 0x8, addend: 0x0, symName: __ZNSt3__115basic_streambufIcNS_11char_traitsIcEEE6sbumpcB8ne180100Ev, symObjAddr: 0x1C2BC, symBinAddr: 0x10002041C, symSize: 0x78 }
  - { offset: 0x8FC93, size: 0x8, addend: 0x0, symName: __ZNSt3__18ios_base18__setstate_nothrowB8ne180100Ej, symObjAddr: 0x1C334, symBinAddr: 0x100020494, symSize: 0x64 }
  - { offset: 0x8FCC8, size: 0x8, addend: 0x0, symName: __ZNKSt3__19basic_iosIcNS_11char_traitsIcEEE10exceptionsB8ne180100Ev, symObjAddr: 0x1C398, symBinAddr: 0x1000204F8, symSize: 0x24 }
  - { offset: 0x8FCEE, size: 0x8, addend: 0x0, symName: __ZNSt3__111char_traitsIcE6assignB8ne180100ERcRKc, symObjAddr: 0x1C3BC, symBinAddr: 0x10002051C, symSize: 0x24 }
  - { offset: 0x8FD1F, size: 0x8, addend: 0x0, symName: __ZNSt3__112basic_stringIcNS_11char_traitsIcEENS_9allocatorIcEEE15__set_long_sizeB8ne180100Em, symObjAddr: 0x1C3E0, symBinAddr: 0x100020540, symSize: 0x38 }
  - { offset: 0x8FD54, size: 0x8, addend: 0x0, symName: __ZNSt3__112basic_stringIcNS_11char_traitsIcEENS_9allocatorIcEEE16__set_short_sizeB8ne180100Em, symObjAddr: 0x1C418, symBinAddr: 0x100020578, symSize: 0x78 }
  - { offset: 0x8FD89, size: 0x8, addend: 0x0, symName: __ZNKSt3__112basic_stringIcNS_11char_traitsIcEENS_9allocatorIcEEE17__annotate_shrinkB8ne180100Em, symObjAddr: 0x1C490, symBinAddr: 0x1000205F0, symSize: 0x14 }
  - { offset: 0x8FDC9, size: 0x8, addend: 0x0, symName: __ZNSt3__116allocator_traitsINS_9allocatorIcEEE8max_sizeB8ne180100IS2_vEEmRKS2_, symObjAddr: 0x1C4A4, symBinAddr: 0x100020604, symSize: 0x24 }
  - { offset: 0x8FDF7, size: 0x8, addend: 0x0, symName: __ZNSt3__114numeric_limitsImE3maxB8ne180100Ev, symObjAddr: 0x1C4C8, symBinAddr: 0x100020628, symSize: 0x14 }
  - { offset: 0x8FE0B, size: 0x8, addend: 0x0, symName: __ZNKSt3__19allocatorIcE8max_sizeB8ne180100Ev, symObjAddr: 0x1C4DC, symBinAddr: 0x10002063C, symSize: 0x14 }
  - { offset: 0x8FE31, size: 0x8, addend: 0x0, symName: __ZNSt3__123__libcpp_numeric_limitsImLb1EE3maxB8ne180100Ev, symObjAddr: 0x1C4F0, symBinAddr: 0x100020650, symSize: 0x8 }
  - { offset: 0x8FE45, size: 0x8, addend: 0x0, symName: __ZNSt3__111char_traitsIcE11to_int_typeB8ne180100Ec, symObjAddr: 0x1C4F8, symBinAddr: 0x100020658, symSize: 0x14 }
  - { offset: 0x8FE69, size: 0x8, addend: 0x0, symName: __Z7isasciii, symObjAddr: 0x1C50C, symBinAddr: 0x10002066C, symSize: 0x24 }
  - { offset: 0x8FE96, size: 0x8, addend: 0x0, symName: __ZNKSt3__18ios_base10exceptionsB8ne180100Ev, symObjAddr: 0x1C530, symBinAddr: 0x100020690, symSize: 0x18 }
  - { offset: 0x8FEBE, size: 0x8, addend: 0x0, symName: __ZNKSt3__112basic_stringIcNS_11char_traitsIcEENS_9allocatorIcEEE15__get_long_sizeB8ne180100Ev, symObjAddr: 0x1C548, symBinAddr: 0x1000206A8, symSize: 0x28 }
  - { offset: 0x8FEE4, size: 0x8, addend: 0x0, symName: __ZNKSt3__112basic_stringIcNS_11char_traitsIcEENS_9allocatorIcEEE16__get_short_sizeB8ne180100Ev, symObjAddr: 0x1C570, symBinAddr: 0x1000206D0, symSize: 0x34 }
  - { offset: 0x8FF0A, size: 0x8, addend: 0x0, symName: __ZNSt3__112basic_stringIcNS_11char_traitsIcEENS_9allocatorIcEEE13__fits_in_ssoB8ne180100Em, symObjAddr: 0x1C5A4, symBinAddr: 0x100020704, symSize: 0x20 }
  - { offset: 0x8FF2E, size: 0x8, addend: 0x0, symName: __ZNSt3__112basic_stringIcNS_11char_traitsIcEENS_9allocatorIcEEE15__make_iteratorB8ne180100EPc, symObjAddr: 0x1C5C4, symBinAddr: 0x100020724, symSize: 0x30 }
  - { offset: 0x8FF63, size: 0x8, addend: 0x0, symName: __ZNSt3__111__wrap_iterIPcEC1B8ne180100ES1_, symObjAddr: 0x1C5F4, symBinAddr: 0x100020754, symSize: 0x34 }
  - { offset: 0x8FF9B, size: 0x8, addend: 0x0, symName: __ZNSt3__111__wrap_iterIPcEC2B8ne180100ES1_, symObjAddr: 0x1C628, symBinAddr: 0x100020788, symSize: 0x20 }
  - { offset: 0x8FFD3, size: 0x8, addend: 0x0, symName: __ZNKSt3__111__wrap_iterIPKcE4baseB8ne180100Ev, symObjAddr: 0x1C688, symBinAddr: 0x1000207E8, symSize: 0x18 }
  - { offset: 0x8FFF9, size: 0x8, addend: 0x0, symName: __ZNSt3__116allocator_traitsINS_9allocatorIcEEE37select_on_container_copy_constructionB8ne180100IS2_vvEES2_RKS2_, symObjAddr: 0x1C6A0, symBinAddr: 0x100020800, symSize: 0x10 }
  - { offset: 0x90028, size: 0x8, addend: 0x0, symName: __ZNSt3__112basic_stringIcNS_11char_traitsIcEENS_9allocatorIcEEEC1B8ne180100ENS_24__uninitialized_size_tagEmRKS4_, symObjAddr: 0x1C6B0, symBinAddr: 0x100020810, symSize: 0x3C }
  - { offset: 0x9007B, size: 0x8, addend: 0x0, symName: __ZNSt3__111char_traitsIcE4copyB8ne180100EPcPKcm, symObjAddr: 0x1C6EC, symBinAddr: 0x10002084C, symSize: 0x40 }
  - { offset: 0x900BA, size: 0x8, addend: 0x0, symName: __ZNSt3__111char_traitsIcE6assignB8ne180100EPcmc, symObjAddr: 0x1C72C, symBinAddr: 0x10002088C, symSize: 0x44 }
  - { offset: 0x900F9, size: 0x8, addend: 0x0, symName: __ZNSt3__112basic_stringIcNS_11char_traitsIcEENS_9allocatorIcEEEC2B8ne180100ENS_24__uninitialized_size_tagEmRKS4_, symObjAddr: 0x1C770, symBinAddr: 0x1000208D0, symSize: 0x11C }
  - { offset: 0x90179, size: 0x8, addend: 0x0, symName: __ZNSt3__117__compressed_pairINS_12basic_stringIcNS_11char_traitsIcEENS_9allocatorIcEEE5__repES5_EC1B8ne180100INS_18__default_init_tagERKS5_EEOT_OT0_, symObjAddr: 0x1C88C, symBinAddr: 0x1000209EC, symSize: 0x3C }
  - { offset: 0x901D1, size: 0x8, addend: 0x0, symName: __ZNKSt3__112basic_stringIcNS_11char_traitsIcEENS_9allocatorIcEEE20__throw_length_errorB8ne180100Ev, symObjAddr: 0x1C8C8, symBinAddr: 0x100020A28, symSize: 0x1C }
  - { offset: 0x901F7, size: 0x8, addend: 0x0, symName: __ZNSt3__112basic_stringIcNS_11char_traitsIcEENS_9allocatorIcEEE11__recommendB8ne180100Em, symObjAddr: 0x1C8E4, symBinAddr: 0x100020A44, symSize: 0x84 }
  - { offset: 0x9022A, size: 0x8, addend: 0x0, symName: __ZNSt3__116allocator_traitsINS_9allocatorIcEEE8allocateB8ne180100ERS2_m, symObjAddr: 0x1C968, symBinAddr: 0x100020AC8, symSize: 0x2C }
  - { offset: 0x9025D, size: 0x8, addend: 0x0, symName: __ZNSt3__112basic_stringIcNS_11char_traitsIcEENS_9allocatorIcEEE7__allocB8ne180100Ev, symObjAddr: 0x1C994, symBinAddr: 0x100020AF4, symSize: 0x24 }
  - { offset: 0x90283, size: 0x8, addend: 0x0, symName: __ZNSt3__112basic_stringIcNS_11char_traitsIcEENS_9allocatorIcEEE16__begin_lifetimeB8ne180100EPcm, symObjAddr: 0x1C9B8, symBinAddr: 0x100020B18, symSize: 0x14 }
  - { offset: 0x902B6, size: 0x8, addend: 0x0, symName: __ZNSt3__112basic_stringIcNS_11char_traitsIcEENS_9allocatorIcEEE14__set_long_capB8ne180100Em, symObjAddr: 0x1C9CC, symBinAddr: 0x100020B2C, symSize: 0x70 }
  - { offset: 0x902EB, size: 0x8, addend: 0x0, symName: __ZNSt3__112basic_stringIcNS_11char_traitsIcEENS_9allocatorIcEEE18__set_long_pointerB8ne180100EPc, symObjAddr: 0x1CA3C, symBinAddr: 0x100020B9C, symSize: 0x38 }
  - { offset: 0x90320, size: 0x8, addend: 0x0, symName: __ZNSt3__117__compressed_pairINS_12basic_stringIcNS_11char_traitsIcEENS_9allocatorIcEEE5__repES5_EC2B8ne180100INS_18__default_init_tagERKS5_EEOT_OT0_, symObjAddr: 0x1CA74, symBinAddr: 0x100020BD4, symSize: 0x40 }
  - { offset: 0x90378, size: 0x8, addend: 0x0, symName: __ZNSt3__112basic_stringIcNS_11char_traitsIcEENS_9allocatorIcEEE10__align_itB8ne180100ILm8EEEmm, symObjAddr: 0x1CAB4, symBinAddr: 0x100020C14, symSize: 0x1C }
  - { offset: 0x903A6, size: 0x8, addend: 0x0, symName: __ZNSt3__19allocatorIcE8allocateB8ne180100Em, symObjAddr: 0x1CAD0, symBinAddr: 0x100020C30, symSize: 0x58 }
  - { offset: 0x903DA, size: 0x8, addend: 0x0, symName: __ZNSt3__117__compressed_pairINS_12basic_stringIcNS_11char_traitsIcEENS_9allocatorIcEEE5__repES5_E6secondB8ne180100Ev, symObjAddr: 0x1CB28, symBinAddr: 0x100020C88, symSize: 0x24 }
  - { offset: 0x90400, size: 0x8, addend: 0x0, symName: __ZNSt3__122__compressed_pair_elemINS_9allocatorIcEELi1ELb1EE5__getB8ne180100Ev, symObjAddr: 0x1CB4C, symBinAddr: 0x100020CAC, symSize: 0x14 }
  - { offset: 0x90442, size: 0x8, addend: 0x0, symName: __ZNKSt3__114__copy_trivialclB8ne180100IKccLi0EEENS_4pairIPT_PT0_EES5_S5_S7_, symObjAddr: 0x1CD80, symBinAddr: 0x100020EE0, symSize: 0x48 }
  - { offset: 0x904CC, size: 0x8, addend: 0x0, symName: __ZNSt3__14pairIPKcS2_EC1B8ne180100IS2_S2_Li0EEEOT_OT0_, symObjAddr: 0x1CEE8, symBinAddr: 0x100021048, symSize: 0x3C }
  - { offset: 0x9052A, size: 0x8, addend: 0x0, symName: __ZNSt3__14pairIPKcS2_EC2B8ne180100IS2_S2_Li0EEEOT_OT0_, symObjAddr: 0x1CF24, symBinAddr: 0x100021084, symSize: 0x34 }
  - { offset: 0x90588, size: 0x8, addend: 0x0, symName: __ZNSt3__118__unwrap_iter_implIPKcLb1EE8__unwrapB8ne180100ES2_, symObjAddr: 0x1CF58, symBinAddr: 0x1000210B8, symSize: 0x24 }
  - { offset: 0x905B7, size: 0x8, addend: 0x0, symName: __ZNSt3__14pairIPKcPcEC1B8ne180100IRS2_S3_Li0EEEOT_OT0_, symObjAddr: 0x1D090, symBinAddr: 0x1000211F0, symSize: 0x3C }
  - { offset: 0x90615, size: 0x8, addend: 0x0, symName: __ZNSt3__14pairIPKcPcEC2B8ne180100IRS2_S3_Li0EEEOT_OT0_, symObjAddr: 0x1D0CC, symBinAddr: 0x10002122C, symSize: 0x34 }
  - { offset: 0x90673, size: 0x8, addend: 0x0, symName: __ZNSt3__118__unwrap_iter_implIPcLb1EE8__unwrapB8ne180100ES1_, symObjAddr: 0x1D100, symBinAddr: 0x100021260, symSize: 0x24 }
  - { offset: 0x90696, size: 0x8, addend: 0x0, symName: __ZNSt3__14pairIPKcPcEC1B8ne180100IS2_S3_Li0EEEOT_OT0_, symObjAddr: 0x1D124, symBinAddr: 0x100021284, symSize: 0x3C }
  - { offset: 0x906F4, size: 0x8, addend: 0x0, symName: __ZNSt3__14pairIPKcPcEC2B8ne180100IS2_S3_Li0EEEOT_OT0_, symObjAddr: 0x1D160, symBinAddr: 0x1000212C0, symSize: 0x34 }
  - { offset: 0x90752, size: 0x8, addend: 0x0, symName: __ZNSt3__118__unwrap_iter_implIPKcLb1EE8__rewrapB8ne180100ES2_S2_, symObjAddr: 0x1D1D0, symBinAddr: 0x100021330, symSize: 0x48 }
  - { offset: 0x90783, size: 0x8, addend: 0x0, symName: __ZNSt3__118__unwrap_iter_implIPcLb1EE8__rewrapB8ne180100ES1_S1_, symObjAddr: 0x1D218, symBinAddr: 0x100021378, symSize: 0x48 }
  - { offset: 0x907B4, size: 0x8, addend: 0x0, symName: __ZNSt3__15dequeIiNS_9allocatorIiEEEC2B8ne180100Ev, symObjAddr: 0x1D31C, symBinAddr: 0x10002147C, symSize: 0x5C }
  - { offset: 0x907DE, size: 0x8, addend: 0x0, symName: __ZNSt3__114__split_bufferIPiNS_9allocatorIS1_EEEC1B8ne180100Ev, symObjAddr: 0x1D378, symBinAddr: 0x1000214D8, symSize: 0x2C }
  - { offset: 0x9080E, size: 0x8, addend: 0x0, symName: __ZNSt3__117__compressed_pairImNS_9allocatorIiEEEC1B8ne180100IiNS_18__default_init_tagEEEOT_OT0_, symObjAddr: 0x1D3A4, symBinAddr: 0x100021504, symSize: 0x3C }
  - { offset: 0x90866, size: 0x8, addend: 0x0, symName: __ZNKSt3__15dequeIiNS_9allocatorIiEEE14__annotate_newB8ne180100Em, symObjAddr: 0x1D3E0, symBinAddr: 0x100021540, symSize: 0x14 }
  - { offset: 0x9089B, size: 0x8, addend: 0x0, symName: __ZNSt3__114__split_bufferIPiNS_9allocatorIS1_EEEC2B8ne180100Ev, symObjAddr: 0x1D3F4, symBinAddr: 0x100021554, symSize: 0x50 }
  - { offset: 0x908C5, size: 0x8, addend: 0x0, symName: __ZNSt3__117__compressed_pairIPPiNS_9allocatorIS1_EEEC1B8ne180100IDnNS_18__default_init_tagEEEOT_OT0_, symObjAddr: 0x1D444, symBinAddr: 0x1000215A4, symSize: 0x3C }
  - { offset: 0x9091D, size: 0x8, addend: 0x0, symName: __ZNSt3__117__compressed_pairIPPiNS_9allocatorIS1_EEEC2B8ne180100IDnNS_18__default_init_tagEEEOT_OT0_, symObjAddr: 0x1D480, symBinAddr: 0x1000215E0, symSize: 0x40 }
  - { offset: 0x90975, size: 0x8, addend: 0x0, symName: __ZNSt3__122__compressed_pair_elemIPPiLi0ELb0EEC2B8ne180100IDnvEEOT_, symObjAddr: 0x1D4C0, symBinAddr: 0x100021620, symSize: 0x1C }
  - { offset: 0x909B7, size: 0x8, addend: 0x0, symName: __ZNSt3__122__compressed_pair_elemINS_9allocatorIPiEELi1ELb1EEC2B8ne180100ENS_18__default_init_tagE, symObjAddr: 0x1D4DC, symBinAddr: 0x10002163C, symSize: 0x2C }
  - { offset: 0x909EC, size: 0x8, addend: 0x0, symName: __ZNSt3__19allocatorIPiEC2B8ne180100Ev, symObjAddr: 0x1D508, symBinAddr: 0x100021668, symSize: 0x2C }
  - { offset: 0x90A16, size: 0x8, addend: 0x0, symName: __ZNSt3__116__non_trivial_ifILb1ENS_9allocatorIPiEEEC2B8ne180100Ev, symObjAddr: 0x1D534, symBinAddr: 0x100021694, symSize: 0x14 }
  - { offset: 0x90A40, size: 0x8, addend: 0x0, symName: __ZNSt3__117__compressed_pairImNS_9allocatorIiEEEC2B8ne180100IiNS_18__default_init_tagEEEOT_OT0_, symObjAddr: 0x1D548, symBinAddr: 0x1000216A8, symSize: 0x40 }
  - { offset: 0x90A98, size: 0x8, addend: 0x0, symName: __ZNSt3__122__compressed_pair_elemImLi0ELb0EEC2B8ne180100IivEEOT_, symObjAddr: 0x1D588, symBinAddr: 0x1000216E8, symSize: 0x24 }
  - { offset: 0x90ADA, size: 0x8, addend: 0x0, symName: __ZNSt3__122__compressed_pair_elemINS_9allocatorIiEELi1ELb1EEC2B8ne180100ENS_18__default_init_tagE, symObjAddr: 0x1D5AC, symBinAddr: 0x10002170C, symSize: 0x2C }
  - { offset: 0x90B0F, size: 0x8, addend: 0x0, symName: __ZNSt3__19allocatorIiEC2B8ne180100Ev, symObjAddr: 0x1D5D8, symBinAddr: 0x100021738, symSize: 0x2C }
  - { offset: 0x90B39, size: 0x8, addend: 0x0, symName: __ZNSt3__116__non_trivial_ifILb1ENS_9allocatorIiEEEC2B8ne180100Ev, symObjAddr: 0x1D604, symBinAddr: 0x100021764, symSize: 0x14 }
  - { offset: 0x90B63, size: 0x8, addend: 0x0, symName: __ZNSt3__15dequeIiNS_9allocatorIiEEED2B8ne180100Ev, symObjAddr: 0x1D618, symBinAddr: 0x100021778, symSize: 0xA4 }
  - { offset: 0x90BBA, size: 0x8, addend: 0x0, symName: __ZNSt3__15dequeIiNS_9allocatorIiEEE5clearEv, symObjAddr: 0x1D6BC, symBinAddr: 0x10002181C, symSize: 0x194 }
  - { offset: 0x90C15, size: 0x8, addend: 0x0, symName: __ZNKSt3__15dequeIiNS_9allocatorIiEEE17__annotate_deleteB8ne180100Ev, symObjAddr: 0x1D850, symBinAddr: 0x1000219B0, symSize: 0x10 }
  - { offset: 0x90C3B, size: 0x8, addend: 0x0, symName: __ZNSt3__114__split_bufferIPiNS_9allocatorIS1_EEE5beginB8ne180100Ev, symObjAddr: 0x1D860, symBinAddr: 0x1000219C0, symSize: 0x18 }
  - { offset: 0x90C61, size: 0x8, addend: 0x0, symName: __ZNSt3__114__split_bufferIPiNS_9allocatorIS1_EEE3endB8ne180100Ev, symObjAddr: 0x1D878, symBinAddr: 0x1000219D8, symSize: 0x18 }
  - { offset: 0x90C87, size: 0x8, addend: 0x0, symName: __ZNSt3__116allocator_traitsINS_9allocatorIiEEE10deallocateB8ne180100ERS2_Pim, symObjAddr: 0x1D890, symBinAddr: 0x1000219F0, symSize: 0x34 }
  - { offset: 0x90CC9, size: 0x8, addend: 0x0, symName: __ZNSt3__15dequeIiNS_9allocatorIiEEE7__allocB8ne180100Ev, symObjAddr: 0x1D8C4, symBinAddr: 0x100021A24, symSize: 0x28 }
  - { offset: 0x90CEF, size: 0x8, addend: 0x0, symName: __ZNSt3__114__split_bufferIPiNS_9allocatorIS1_EEED1Ev, symObjAddr: 0x1D8EC, symBinAddr: 0x100021A4C, symSize: 0x2C }
  - { offset: 0x90D1B, size: 0x8, addend: 0x0, symName: __ZNSt3__15dequeIiNS_9allocatorIiEEE5beginB8ne180100Ev, symObjAddr: 0x1D918, symBinAddr: 0x100021A78, symSize: 0xB8 }
  - { offset: 0x90D50, size: 0x8, addend: 0x0, symName: __ZNSt3__15dequeIiNS_9allocatorIiEEE3endB8ne180100Ev, symObjAddr: 0x1D9D0, symBinAddr: 0x100021B30, symSize: 0xBC }
  - { offset: 0x90D94, size: 0x8, addend: 0x0, symName: __ZNSt3__116allocator_traitsINS_9allocatorIiEEE7destroyB8ne180100IivEEvRS2_PT_, symObjAddr: 0x1DAC0, symBinAddr: 0x100021C20, symSize: 0x2C }
  - { offset: 0x90DD1, size: 0x8, addend: 0x0, symName: __ZNKSt3__116__deque_iteratorIiPiRiPS1_lLl1024EEdeB8ne180100Ev, symObjAddr: 0x1DAEC, symBinAddr: 0x100021C4C, symSize: 0x18 }
  - { offset: 0x90DF7, size: 0x8, addend: 0x0, symName: __ZNSt3__116__deque_iteratorIiPiRiPS1_lLl1024EEppB8ne180100Ev, symObjAddr: 0x1DB04, symBinAddr: 0x100021C64, symSize: 0x70 }
  - { offset: 0x90E1D, size: 0x8, addend: 0x0, symName: __ZNSt3__15dequeIiNS_9allocatorIiEEE6__sizeB8ne180100Ev, symObjAddr: 0x1DB74, symBinAddr: 0x100021CD4, symSize: 0x28 }
  - { offset: 0x90E43, size: 0x8, addend: 0x0, symName: __ZNKSt3__114__split_bufferIPiNS_9allocatorIS1_EEE4sizeB8ne180100Ev, symObjAddr: 0x1DB9C, symBinAddr: 0x100021CFC, symSize: 0x28 }
  - { offset: 0x90E69, size: 0x8, addend: 0x0, symName: __ZNSt3__114__split_bufferIPiNS_9allocatorIS1_EEE5frontB8ne180100Ev, symObjAddr: 0x1DBC4, symBinAddr: 0x100021D24, symSize: 0x18 }
  - { offset: 0x90E8F, size: 0x8, addend: 0x0, symName: __ZNSt3__114__split_bufferIPiNS_9allocatorIS1_EEE9pop_frontB8ne180100Ev, symObjAddr: 0x1DBDC, symBinAddr: 0x100021D3C, symSize: 0x2C }
  - { offset: 0x90EB5, size: 0x8, addend: 0x0, symName: __ZNKSt3__114__split_bufferIPiNS_9allocatorIS1_EEE5emptyB8ne180100Ev, symObjAddr: 0x1DC08, symBinAddr: 0x100021D68, symSize: 0x28 }
  - { offset: 0x90EDB, size: 0x8, addend: 0x0, symName: __ZNSt3__116__deque_iteratorIiPiRiPS1_lLl1024EEC1B8ne180100ES3_S1_, symObjAddr: 0x1DC30, symBinAddr: 0x100021D90, symSize: 0x3C }
  - { offset: 0x90F23, size: 0x8, addend: 0x0, symName: __ZNSt3__116__deque_iteratorIiPiRiPS1_lLl1024EEC2B8ne180100ES3_S1_, symObjAddr: 0x1DC6C, symBinAddr: 0x100021DCC, symSize: 0x2C }
  - { offset: 0x90F6B, size: 0x8, addend: 0x0, symName: __ZNSt3__19allocatorIiE7destroyB8ne180100EPi, symObjAddr: 0x1DCC8, symBinAddr: 0x100021E28, symSize: 0x14 }
  - { offset: 0x90F9F, size: 0x8, addend: 0x0, symName: __ZNSt3__117__compressed_pairImNS_9allocatorIiEEE5firstB8ne180100Ev, symObjAddr: 0x1DCDC, symBinAddr: 0x100021E3C, symSize: 0x24 }
  - { offset: 0x90FC5, size: 0x8, addend: 0x0, symName: __ZNSt3__122__compressed_pair_elemImLi0ELb0EE5__getB8ne180100Ev, symObjAddr: 0x1DD00, symBinAddr: 0x100021E60, symSize: 0x14 }
  - { offset: 0x90FEB, size: 0x8, addend: 0x0, symName: __ZNSt3__114__split_bufferIPiNS_9allocatorIS1_EEE19__destruct_at_beginB8ne180100EPS1_, symObjAddr: 0x1DD14, symBinAddr: 0x100021E74, symSize: 0x2C }
  - { offset: 0x9101F, size: 0x8, addend: 0x0, symName: __ZNSt3__114__split_bufferIPiNS_9allocatorIS1_EEE19__destruct_at_beginEPS1_NS_17integral_constantIbLb1EEE, symObjAddr: 0x1DD40, symBinAddr: 0x100021EA0, symSize: 0x20 }
  - { offset: 0x91060, size: 0x8, addend: 0x0, symName: __ZNSt3__19allocatorIiE10deallocateB8ne180100EPim, symObjAddr: 0x1DD60, symBinAddr: 0x100021EC0, symSize: 0x40 }
  - { offset: 0x910A2, size: 0x8, addend: 0x0, symName: __ZNSt3__117__compressed_pairImNS_9allocatorIiEEE6secondB8ne180100Ev, symObjAddr: 0x1DDA0, symBinAddr: 0x100021F00, symSize: 0x24 }
  - { offset: 0x910C8, size: 0x8, addend: 0x0, symName: __ZNSt3__122__compressed_pair_elemINS_9allocatorIiEELi1ELb1EE5__getB8ne180100Ev, symObjAddr: 0x1DDC4, symBinAddr: 0x100021F24, symSize: 0x14 }
  - { offset: 0x910EE, size: 0x8, addend: 0x0, symName: __ZNSt3__114__split_bufferIPiNS_9allocatorIS1_EEED2Ev, symObjAddr: 0x1DDD8, symBinAddr: 0x100021F38, symSize: 0x8C }
  - { offset: 0x9111A, size: 0x8, addend: 0x0, symName: __ZNSt3__114__split_bufferIPiNS_9allocatorIS1_EEE5clearB8ne180100Ev, symObjAddr: 0x1DE64, symBinAddr: 0x100021FC4, symSize: 0x28 }
  - { offset: 0x91140, size: 0x8, addend: 0x0, symName: __ZNSt3__116allocator_traitsINS_9allocatorIPiEEE10deallocateB8ne180100ERS3_PS2_m, symObjAddr: 0x1DE8C, symBinAddr: 0x100021FEC, symSize: 0x34 }
  - { offset: 0x91182, size: 0x8, addend: 0x0, symName: __ZNSt3__114__split_bufferIPiNS_9allocatorIS1_EEE7__allocB8ne180100Ev, symObjAddr: 0x1DEC0, symBinAddr: 0x100022020, symSize: 0x28 }
  - { offset: 0x911A8, size: 0x8, addend: 0x0, symName: __ZNKSt3__114__split_bufferIPiNS_9allocatorIS1_EEE8capacityB8ne180100Ev, symObjAddr: 0x1DEE8, symBinAddr: 0x100022048, symSize: 0x40 }
  - { offset: 0x911CE, size: 0x8, addend: 0x0, symName: __ZNSt3__114__split_bufferIPiNS_9allocatorIS1_EEE17__destruct_at_endB8ne180100EPS1_, symObjAddr: 0x1DF28, symBinAddr: 0x100022088, symSize: 0x2C }
  - { offset: 0x91202, size: 0x8, addend: 0x0, symName: __ZNSt3__114__split_bufferIPiNS_9allocatorIS1_EEE17__destruct_at_endB8ne180100EPS1_NS_17integral_constantIbLb0EEE, symObjAddr: 0x1DF54, symBinAddr: 0x1000220B4, symSize: 0x80 }
  - { offset: 0x91243, size: 0x8, addend: 0x0, symName: __ZNSt3__116allocator_traitsINS_9allocatorIPiEEE7destroyB8ne180100IS2_vEEvRS3_PT_, symObjAddr: 0x1DFD4, symBinAddr: 0x100022134, symSize: 0x2C }
  - { offset: 0x91280, size: 0x8, addend: 0x0, symName: __ZNSt3__19allocatorIPiE7destroyB8ne180100EPS1_, symObjAddr: 0x1E014, symBinAddr: 0x100022174, symSize: 0x14 }
  - { offset: 0x912B4, size: 0x8, addend: 0x0, symName: __ZNSt3__19allocatorIPiE10deallocateB8ne180100EPS1_m, symObjAddr: 0x1E028, symBinAddr: 0x100022188, symSize: 0x40 }
  - { offset: 0x912F6, size: 0x8, addend: 0x0, symName: __ZNSt3__117__compressed_pairIPPiNS_9allocatorIS1_EEE6secondB8ne180100Ev, symObjAddr: 0x1E068, symBinAddr: 0x1000221C8, symSize: 0x24 }
  - { offset: 0x9131C, size: 0x8, addend: 0x0, symName: __ZNSt3__122__compressed_pair_elemINS_9allocatorIPiEELi1ELb1EE5__getB8ne180100Ev, symObjAddr: 0x1E08C, symBinAddr: 0x1000221EC, symSize: 0x14 }
  - { offset: 0x91342, size: 0x8, addend: 0x0, symName: __ZNKSt3__114__split_bufferIPiNS_9allocatorIS1_EEE9__end_capB8ne180100Ev, symObjAddr: 0x1E0A0, symBinAddr: 0x100022200, symSize: 0x28 }
  - { offset: 0x91368, size: 0x8, addend: 0x0, symName: __ZNKSt3__117__compressed_pairIPPiNS_9allocatorIS1_EEE5firstB8ne180100Ev, symObjAddr: 0x1E0C8, symBinAddr: 0x100022228, symSize: 0x24 }
  - { offset: 0x9138E, size: 0x8, addend: 0x0, symName: __ZNKSt3__122__compressed_pair_elemIPPiLi0ELb0EE5__getB8ne180100Ev, symObjAddr: 0x1E0EC, symBinAddr: 0x10002224C, symSize: 0x14 }
  - { offset: 0x913B4, size: 0x8, addend: 0x0, symName: __ZNKSt3__15dequeIiNS_9allocatorIiEEE12__back_spareB8ne180100Ev, symObjAddr: 0x1E100, symBinAddr: 0x100022260, symSize: 0x54 }
  - { offset: 0x913DA, size: 0x8, addend: 0x0, symName: __ZNSt3__15dequeIiNS_9allocatorIiEEE19__add_back_capacityEv, symObjAddr: 0x1E154, symBinAddr: 0x1000222B4, symSize: 0x34C }
  - { offset: 0x91492, size: 0x8, addend: 0x0, symName: __ZNKSt3__15dequeIiNS_9allocatorIiEEE24__annotate_increase_backB8ne180100Em, symObjAddr: 0x1E4A0, symBinAddr: 0x100022600, symSize: 0x14 }
  - { offset: 0x914C7, size: 0x8, addend: 0x0, symName: __ZNSt3__116allocator_traitsINS_9allocatorIiEEE9constructB8ne180100IiJRKiEvEEvRS2_PT_DpOT0_, symObjAddr: 0x1E4B4, symBinAddr: 0x100022614, symSize: 0x34 }
  - { offset: 0x9151E, size: 0x8, addend: 0x0, symName: __ZNKSt3__15dequeIiNS_9allocatorIiEEE10__capacityB8ne180100Ev, symObjAddr: 0x1E4E8, symBinAddr: 0x100022648, symSize: 0x60 }
  - { offset: 0x91544, size: 0x8, addend: 0x0, symName: __ZNKSt3__15dequeIiNS_9allocatorIiEEE13__front_spareB8ne180100Ev, symObjAddr: 0x1E548, symBinAddr: 0x1000226A8, symSize: 0x18 }
  - { offset: 0x9156A, size: 0x8, addend: 0x0, symName: __ZNSt3__114__split_bufferIPiNS_9allocatorIS1_EEE9push_backB8ne180100ERKS1_, symObjAddr: 0x1E560, symBinAddr: 0x1000226C0, symSize: 0x260 }
  - { offset: 0x915E3, size: 0x8, addend: 0x0, symName: __ZNKSt3__114__split_bufferIPiNS_9allocatorIS1_EEE12__back_spareB8ne180100Ev, symObjAddr: 0x1E7C0, symBinAddr: 0x100022920, symSize: 0x40 }
  - { offset: 0x91609, size: 0x8, addend: 0x0, symName: __ZNSt3__114__split_bufferIPiNS_9allocatorIS1_EEE9push_backEOS1_, symObjAddr: 0x1E800, symBinAddr: 0x100022960, symSize: 0x260 }
  - { offset: 0x91682, size: 0x8, addend: 0x0, symName: __ZNSt3__116allocator_traitsINS_9allocatorIiEEE8allocateB8ne180100ERS2_m, symObjAddr: 0x1EA60, symBinAddr: 0x100022BC0, symSize: 0x2C }
  - { offset: 0x916B5, size: 0x8, addend: 0x0, symName: __ZNSt3__114__split_bufferIPiNS_9allocatorIS1_EEE10push_frontEOS1_, symObjAddr: 0x1EA8C, symBinAddr: 0x100022BEC, symSize: 0x25C }
  - { offset: 0x9172E, size: 0x8, addend: 0x0, symName: __ZNKSt3__15dequeIiNS_9allocatorIiEEE22__annotate_whole_blockB8ne180100EmNS3_22__asan_annotation_typeE, symObjAddr: 0x1ECE8, symBinAddr: 0x100022E48, symSize: 0x18 }
  - { offset: 0x91772, size: 0x8, addend: 0x0, symName: __ZNSt3__114__split_bufferIPiRNS_9allocatorIS1_EEEC1EmmS4_, symObjAddr: 0x1ED00, symBinAddr: 0x100022E60, symSize: 0x44 }
  - { offset: 0x917CD, size: 0x8, addend: 0x0, symName: __ZNSt3__122__allocator_destructorINS_9allocatorIiEEEC1B8ne180100ERS2_m, symObjAddr: 0x1ED44, symBinAddr: 0x100022EA4, symSize: 0x3C }
  - { offset: 0x91884, size: 0x8, addend: 0x0, symName: __ZNSt3__110unique_ptrIPiNS_22__allocator_destructorINS_9allocatorIiEEEEEC1B8ne180100ILb1EvEES1_NS_16__dependent_typeINS_27__unique_ptr_deleter_sfinaeIS5_EEXT_EE20__good_rval_ref_typeE, symObjAddr: 0x1ED80, symBinAddr: 0x100022EE0, symSize: 0x3C }
  - { offset: 0x918D5, size: 0x8, addend: 0x0, symName: __ZNSt3__114__split_bufferIPiRNS_9allocatorIS1_EEE9push_backEOS1_, symObjAddr: 0x1EDBC, symBinAddr: 0x100022F1C, symSize: 0x260 }
  - { offset: 0x9194E, size: 0x8, addend: 0x0, symName: __ZNKSt3__110unique_ptrIPiNS_22__allocator_destructorINS_9allocatorIiEEEEE3getB8ne180100Ev, symObjAddr: 0x1F01C, symBinAddr: 0x10002317C, symSize: 0x28 }
  - { offset: 0x91974, size: 0x8, addend: 0x0, symName: __ZNSt3__110unique_ptrIPiNS_22__allocator_destructorINS_9allocatorIiEEEEE7releaseB8ne180100Ev, symObjAddr: 0x1F044, symBinAddr: 0x1000231A4, symSize: 0x44 }
  - { offset: 0x919A9, size: 0x8, addend: 0x0, symName: __ZNSt3__114__split_bufferIPiRNS_9allocatorIS1_EEE10push_frontERKS1_, symObjAddr: 0x1F088, symBinAddr: 0x1000231E8, symSize: 0x25C }
  - { offset: 0x91A22, size: 0x8, addend: 0x0, symName: __ZNSt3__114__split_bufferIPiNS_9allocatorIS1_EEE9__end_capB8ne180100Ev, symObjAddr: 0x1F320, symBinAddr: 0x100023480, symSize: 0x28 }
  - { offset: 0x91A48, size: 0x8, addend: 0x0, symName: __ZNSt3__114__split_bufferIPiRNS_9allocatorIS1_EEE9__end_capB8ne180100Ev, symObjAddr: 0x1F348, symBinAddr: 0x1000234A8, symSize: 0x28 }
  - { offset: 0x91A6E, size: 0x8, addend: 0x0, symName: __ZNSt3__110unique_ptrIPiNS_22__allocator_destructorINS_9allocatorIiEEEEED1B8ne180100Ev, symObjAddr: 0x1F370, symBinAddr: 0x1000234D0, symSize: 0x2C }
  - { offset: 0x91A98, size: 0x8, addend: 0x0, symName: __ZNSt3__114__split_bufferIPiRNS_9allocatorIS1_EEED1Ev, symObjAddr: 0x1F39C, symBinAddr: 0x1000234FC, symSize: 0x2C }
  - { offset: 0x91AC4, size: 0x8, addend: 0x0, symName: __ZNSt3__114__split_bufferIPiRNS_9allocatorIS1_EEE18__construct_at_endINS_13move_iteratorIPS1_EELi0EEEvT_SA_, symObjAddr: 0x1F408, symBinAddr: 0x100023568, symSize: 0x60 }
  - { offset: 0x91B17, size: 0x8, addend: 0x0, symName: __ZNSt3__113move_iteratorIPPiEC1B8ne180100ES2_, symObjAddr: 0x1F468, symBinAddr: 0x1000235C8, symSize: 0x34 }
  - { offset: 0x91B4F, size: 0x8, addend: 0x0, symName: __ZNSt3__116allocator_traitsINS_9allocatorIPiEEE9constructB8ne180100IS2_JRKS2_EvEEvRS3_PT_DpOT0_, symObjAddr: 0x1F49C, symBinAddr: 0x1000235FC, symSize: 0x34 }
  - { offset: 0x91BCC, size: 0x8, addend: 0x0, symName: __ZNKSt3__114__move_trivialclB8ne180100IPiS2_Li0EEENS_4pairIPT_PT0_EES5_S5_S7_, symObjAddr: 0x1F66C, symBinAddr: 0x1000237CC, symSize: 0x48 }
  - { offset: 0x91C3A, size: 0x8, addend: 0x0, symName: __ZNSt3__14pairIPPiS2_EC1B8ne180100IRS2_S2_Li0EEEOT_OT0_, symObjAddr: 0x1F894, symBinAddr: 0x1000239F4, symSize: 0x3C }
  - { offset: 0x91C98, size: 0x8, addend: 0x0, symName: __ZNSt3__14pairIPPiS2_EC2B8ne180100IRS2_S2_Li0EEEOT_OT0_, symObjAddr: 0x1F8D0, symBinAddr: 0x100023A30, symSize: 0x34 }
  - { offset: 0x91CF6, size: 0x8, addend: 0x0, symName: __ZNSt3__118__unwrap_iter_implIPPiLb1EE8__unwrapB8ne180100ES2_, symObjAddr: 0x1F904, symBinAddr: 0x100023A64, symSize: 0x24 }
  - { offset: 0x91D19, size: 0x8, addend: 0x0, symName: __ZNSt3__14pairIPPiS2_EC1B8ne180100IS2_S2_Li0EEEOT_OT0_, symObjAddr: 0x1F928, symBinAddr: 0x100023A88, symSize: 0x3C }
  - { offset: 0x91D77, size: 0x8, addend: 0x0, symName: __ZNSt3__14pairIPPiS2_EC2B8ne180100IS2_S2_Li0EEEOT_OT0_, symObjAddr: 0x1F964, symBinAddr: 0x100023AC4, symSize: 0x34 }
  - { offset: 0x91DD5, size: 0x8, addend: 0x0, symName: __ZNSt3__118__unwrap_iter_implIPPiLb1EE8__rewrapB8ne180100ES2_S2_, symObjAddr: 0x1F998, symBinAddr: 0x100023AF8, symSize: 0x50 }
  - { offset: 0x91E06, size: 0x8, addend: 0x0, symName: __ZNSt3__114__split_bufferIPiRNS_9allocatorIS1_EEE28__construct_at_end_with_sizeINS_13move_iteratorIPS1_EEEEvT_m, symObjAddr: 0x1F9E8, symBinAddr: 0x100023B48, symSize: 0xDC }
  - { offset: 0x91E6C, size: 0x8, addend: 0x0, symName: __ZNSt3__114__split_bufferIPiRNS_9allocatorIS1_EEE21_ConstructTransactionC1B8ne180100EPPS1_m, symObjAddr: 0x1FB00, symBinAddr: 0x100023C60, symSize: 0x3C }
  - { offset: 0x91EB2, size: 0x8, addend: 0x0, symName: __ZNSt3__116allocator_traitsINS_9allocatorIPiEEE9constructB8ne180100IS2_JS2_EvEEvRS3_PT_DpOT0_, symObjAddr: 0x1FB3C, symBinAddr: 0x100023C9C, symSize: 0x34 }
  - { offset: 0x91F09, size: 0x8, addend: 0x0, symName: __ZNSt3__114__split_bufferIPiRNS_9allocatorIS1_EEE7__allocB8ne180100Ev, symObjAddr: 0x1FB70, symBinAddr: 0x100023CD0, symSize: 0x28 }
  - { offset: 0x91F2F, size: 0x8, addend: 0x0, symName: __ZNKSt3__113move_iteratorIPPiEdeB8ne180100Ev, symObjAddr: 0x1FB98, symBinAddr: 0x100023CF8, symSize: 0x18 }
  - { offset: 0x91F55, size: 0x8, addend: 0x0, symName: __ZNSt3__113move_iteratorIPPiEppB8ne180100Ev, symObjAddr: 0x1FBB0, symBinAddr: 0x100023D10, symSize: 0x20 }
  - { offset: 0x91F7B, size: 0x8, addend: 0x0, symName: __ZNSt3__114__split_bufferIPiRNS_9allocatorIS1_EEE21_ConstructTransactionD1B8ne180100Ev, symObjAddr: 0x1FBD0, symBinAddr: 0x100023D30, symSize: 0x2C }
  - { offset: 0x91FA5, size: 0x8, addend: 0x0, symName: __ZNSt3__114__split_bufferIPiRNS_9allocatorIS1_EEE21_ConstructTransactionC2B8ne180100EPPS1_m, symObjAddr: 0x1FBFC, symBinAddr: 0x100023D5C, symSize: 0x44 }
  - { offset: 0x91FEB, size: 0x8, addend: 0x0, symName: __ZNSt3__19allocatorIPiE9constructB8ne180100IS1_JS1_EEEvPT_DpOT0_, symObjAddr: 0x1FC40, symBinAddr: 0x100023DA0, symSize: 0x28 }
  - { offset: 0x92041, size: 0x8, addend: 0x0, symName: __ZNSt3__117__compressed_pairIPPiRNS_9allocatorIS1_EEE6secondB8ne180100Ev, symObjAddr: 0x1FC68, symBinAddr: 0x100023DC8, symSize: 0x28 }
  - { offset: 0x92067, size: 0x8, addend: 0x0, symName: __ZNSt3__122__compressed_pair_elemIRNS_9allocatorIPiEELi1ELb0EE5__getB8ne180100Ev, symObjAddr: 0x1FC90, symBinAddr: 0x100023DF0, symSize: 0x18 }
  - { offset: 0x9208D, size: 0x8, addend: 0x0, symName: __ZNSt3__114__split_bufferIPiRNS_9allocatorIS1_EEE21_ConstructTransactionD2B8ne180100Ev, symObjAddr: 0x1FCA8, symBinAddr: 0x100023E08, symSize: 0x20 }
  - { offset: 0x920B7, size: 0x8, addend: 0x0, symName: __ZNKSt3__113move_iteratorIPPiE4baseB8ne180100Ev, symObjAddr: 0x1FD40, symBinAddr: 0x100023EA0, symSize: 0x18 }
  - { offset: 0x920DD, size: 0x8, addend: 0x0, symName: __ZNSt3__113move_iteratorIPPiEC2B8ne180100ES2_, symObjAddr: 0x1FD58, symBinAddr: 0x100023EB8, symSize: 0x20 }
  - { offset: 0x92115, size: 0x8, addend: 0x0, symName: __ZNSt3__19allocatorIPiE9constructB8ne180100IS1_JRKS1_EEEvPT_DpOT0_, symObjAddr: 0x1FD78, symBinAddr: 0x100023ED8, symSize: 0x28 }
  - { offset: 0x9216B, size: 0x8, addend: 0x0, symName: __ZNSt3__19allocatorIiE8allocateB8ne180100Em, symObjAddr: 0x1FDA0, symBinAddr: 0x100023F00, symSize: 0x58 }
  - { offset: 0x921AA, size: 0x8, addend: 0x0, symName: __ZNSt3__116allocator_traitsINS_9allocatorIiEEE8max_sizeB8ne180100IS2_vEEmRKS2_, symObjAddr: 0x1FDF8, symBinAddr: 0x100023F58, symSize: 0x24 }
  - { offset: 0x921D8, size: 0x8, addend: 0x0, symName: __ZNKSt3__19allocatorIiE8max_sizeB8ne180100Ev, symObjAddr: 0x1FE1C, symBinAddr: 0x100023F7C, symSize: 0x14 }
  - { offset: 0x92208, size: 0x8, addend: 0x0, symName: __ZNKSt3__123__move_backward_trivialclB8ne180100IPiS2_Li0EEENS_4pairIPT_PT0_EES5_S5_S7_, symObjAddr: 0x1FFAC, symBinAddr: 0x10002410C, symSize: 0x48 }
  - { offset: 0x92270, size: 0x8, addend: 0x0, symName: __ZNSt3__14pairIPPiS2_EC1B8ne180100IRS2_S5_Li0EEEOT_OT0_, symObjAddr: 0x200BC, symBinAddr: 0x10002421C, symSize: 0x3C }
  - { offset: 0x922CE, size: 0x8, addend: 0x0, symName: __ZNSt3__14pairIPPiS2_EC2B8ne180100IRS2_S5_Li0EEEOT_OT0_, symObjAddr: 0x200F8, symBinAddr: 0x100024258, symSize: 0x34 }
  - { offset: 0x9232C, size: 0x8, addend: 0x0, symName: __ZNSt3__114__split_bufferIPiRNS_9allocatorIS1_EEEC2EmmS4_, symObjAddr: 0x2012C, symBinAddr: 0x10002428C, symSize: 0xD4 }
  - { offset: 0x923A0, size: 0x8, addend: 0x0, symName: __ZNSt3__117__compressed_pairIPPiRNS_9allocatorIS1_EEEC1B8ne180100IDnS5_EEOT_OT0_, symObjAddr: 0x20200, symBinAddr: 0x100024360, symSize: 0x3C }
  - { offset: 0x923F8, size: 0x8, addend: 0x0, symName: __ZNSt3__117__compressed_pairIPPiRNS_9allocatorIS1_EEEC2B8ne180100IDnS5_EEOT_OT0_, symObjAddr: 0x2027C, symBinAddr: 0x1000243DC, symSize: 0x48 }
  - { offset: 0x92450, size: 0x8, addend: 0x0, symName: __ZNSt3__122__compressed_pair_elemIRNS_9allocatorIPiEELi1ELb0EEC2B8ne180100IS4_vEEOT_, symObjAddr: 0x202C4, symBinAddr: 0x100024424, symSize: 0x20 }
  - { offset: 0x92492, size: 0x8, addend: 0x0, symName: __ZNSt3__19allocatorIPiE8allocateB8ne180100Em, symObjAddr: 0x202E4, symBinAddr: 0x100024444, symSize: 0x58 }
  - { offset: 0x924D1, size: 0x8, addend: 0x0, symName: __ZNSt3__116allocator_traitsINS_9allocatorIPiEEE8max_sizeB8ne180100IS3_vEEmRKS3_, symObjAddr: 0x2033C, symBinAddr: 0x10002449C, symSize: 0x24 }
  - { offset: 0x924FF, size: 0x8, addend: 0x0, symName: __ZNKSt3__19allocatorIPiE8max_sizeB8ne180100Ev, symObjAddr: 0x20360, symBinAddr: 0x1000244C0, symSize: 0x14 }
  - { offset: 0x92525, size: 0x8, addend: 0x0, symName: __ZNSt3__122__allocator_destructorINS_9allocatorIiEEEC2B8ne180100ERS2_m, symObjAddr: 0x20374, symBinAddr: 0x1000244D4, symSize: 0x2C }
  - { offset: 0x9256B, size: 0x8, addend: 0x0, symName: __ZNSt3__110unique_ptrIPiNS_22__allocator_destructorINS_9allocatorIiEEEEEC2B8ne180100ILb1EvEES1_NS_16__dependent_typeINS_27__unique_ptr_deleter_sfinaeIS5_EEXT_EE20__good_rval_ref_typeE, symObjAddr: 0x203A0, symBinAddr: 0x100024500, symSize: 0x48 }
  - { offset: 0x925BC, size: 0x8, addend: 0x0, symName: __ZNSt3__117__compressed_pairIPiNS_22__allocator_destructorINS_9allocatorIiEEEEEC1B8ne180100IRS1_S5_EEOT_OT0_, symObjAddr: 0x203E8, symBinAddr: 0x100024548, symSize: 0x3C }
  - { offset: 0x92614, size: 0x8, addend: 0x0, symName: __ZNSt3__117__compressed_pairIPiNS_22__allocator_destructorINS_9allocatorIiEEEEEC2B8ne180100IRS1_S5_EEOT_OT0_, symObjAddr: 0x20424, symBinAddr: 0x100024584, symSize: 0x48 }
  - { offset: 0x9266C, size: 0x8, addend: 0x0, symName: __ZNSt3__122__compressed_pair_elemIPiLi0ELb0EEC2B8ne180100IRS1_vEEOT_, symObjAddr: 0x2046C, symBinAddr: 0x1000245CC, symSize: 0x24 }
  - { offset: 0x926AE, size: 0x8, addend: 0x0, symName: __ZNSt3__122__compressed_pair_elemINS_22__allocator_destructorINS_9allocatorIiEEEELi1ELb0EEC2B8ne180100IS4_vEEOT_, symObjAddr: 0x20490, symBinAddr: 0x1000245F0, symSize: 0x24 }
  - { offset: 0x926F0, size: 0x8, addend: 0x0, symName: __ZNKSt3__117__compressed_pairIPiNS_22__allocator_destructorINS_9allocatorIiEEEEE5firstB8ne180100Ev, symObjAddr: 0x204B4, symBinAddr: 0x100024614, symSize: 0x24 }
  - { offset: 0x92716, size: 0x8, addend: 0x0, symName: __ZNKSt3__122__compressed_pair_elemIPiLi0ELb0EE5__getB8ne180100Ev, symObjAddr: 0x204D8, symBinAddr: 0x100024638, symSize: 0x14 }
  - { offset: 0x9273C, size: 0x8, addend: 0x0, symName: __ZNSt3__117__compressed_pairIPiNS_22__allocator_destructorINS_9allocatorIiEEEEE5firstB8ne180100Ev, symObjAddr: 0x204EC, symBinAddr: 0x10002464C, symSize: 0x24 }
  - { offset: 0x92762, size: 0x8, addend: 0x0, symName: __ZNSt3__122__compressed_pair_elemIPiLi0ELb0EE5__getB8ne180100Ev, symObjAddr: 0x20510, symBinAddr: 0x100024670, symSize: 0x14 }
  - { offset: 0x92788, size: 0x8, addend: 0x0, symName: __ZNSt3__117__compressed_pairIPPiNS_9allocatorIS1_EEE5firstB8ne180100Ev, symObjAddr: 0x20524, symBinAddr: 0x100024684, symSize: 0x24 }
  - { offset: 0x927AE, size: 0x8, addend: 0x0, symName: __ZNSt3__122__compressed_pair_elemIPPiLi0ELb0EE5__getB8ne180100Ev, symObjAddr: 0x20548, symBinAddr: 0x1000246A8, symSize: 0x14 }
  - { offset: 0x927D4, size: 0x8, addend: 0x0, symName: __ZNSt3__117__compressed_pairIPPiRNS_9allocatorIS1_EEE5firstB8ne180100Ev, symObjAddr: 0x2055C, symBinAddr: 0x1000246BC, symSize: 0x24 }
  - { offset: 0x927FA, size: 0x8, addend: 0x0, symName: __ZNSt3__110unique_ptrIPiNS_22__allocator_destructorINS_9allocatorIiEEEEED2B8ne180100Ev, symObjAddr: 0x20580, symBinAddr: 0x1000246E0, symSize: 0x30 }
  - { offset: 0x92824, size: 0x8, addend: 0x0, symName: __ZNSt3__110unique_ptrIPiNS_22__allocator_destructorINS_9allocatorIiEEEEE5resetB8ne180100ES1_, symObjAddr: 0x205B0, symBinAddr: 0x100024710, symSize: 0x78 }
  - { offset: 0x92868, size: 0x8, addend: 0x0, symName: __ZNSt3__117__compressed_pairIPiNS_22__allocator_destructorINS_9allocatorIiEEEEE6secondB8ne180100Ev, symObjAddr: 0x20628, symBinAddr: 0x100024788, symSize: 0x28 }
  - { offset: 0x9288E, size: 0x8, addend: 0x0, symName: __ZNSt3__122__allocator_destructorINS_9allocatorIiEEEclB8ne180100EPi, symObjAddr: 0x20650, symBinAddr: 0x1000247B0, symSize: 0x34 }
  - { offset: 0x928C2, size: 0x8, addend: 0x0, symName: __ZNSt3__122__compressed_pair_elemINS_22__allocator_destructorINS_9allocatorIiEEEELi1ELb0EE5__getB8ne180100Ev, symObjAddr: 0x20684, symBinAddr: 0x1000247E4, symSize: 0x14 }
  - { offset: 0x928E8, size: 0x8, addend: 0x0, symName: __ZNSt3__114__split_bufferIPiRNS_9allocatorIS1_EEED2Ev, symObjAddr: 0x20698, symBinAddr: 0x1000247F8, symSize: 0x8C }
  - { offset: 0x92914, size: 0x8, addend: 0x0, symName: __ZNSt3__114__split_bufferIPiRNS_9allocatorIS1_EEE5clearB8ne180100Ev, symObjAddr: 0x20724, symBinAddr: 0x100024884, symSize: 0x28 }
  - { offset: 0x9293A, size: 0x8, addend: 0x0, symName: __ZNKSt3__114__split_bufferIPiRNS_9allocatorIS1_EEE8capacityB8ne180100Ev, symObjAddr: 0x2074C, symBinAddr: 0x1000248AC, symSize: 0x40 }
  - { offset: 0x92960, size: 0x8, addend: 0x0, symName: __ZNSt3__114__split_bufferIPiRNS_9allocatorIS1_EEE17__destruct_at_endB8ne180100EPS1_, symObjAddr: 0x2078C, symBinAddr: 0x1000248EC, symSize: 0x2C }
  - { offset: 0x92994, size: 0x8, addend: 0x0, symName: __ZNSt3__114__split_bufferIPiRNS_9allocatorIS1_EEE17__destruct_at_endB8ne180100EPS1_NS_17integral_constantIbLb0EEE, symObjAddr: 0x207B8, symBinAddr: 0x100024918, symSize: 0x80 }
  - { offset: 0x929D5, size: 0x8, addend: 0x0, symName: __ZNKSt3__114__split_bufferIPiRNS_9allocatorIS1_EEE9__end_capB8ne180100Ev, symObjAddr: 0x20838, symBinAddr: 0x100024998, symSize: 0x28 }
  - { offset: 0x929FB, size: 0x8, addend: 0x0, symName: __ZNKSt3__117__compressed_pairIPPiRNS_9allocatorIS1_EEE5firstB8ne180100Ev, symObjAddr: 0x20860, symBinAddr: 0x1000249C0, symSize: 0x24 }
  - { offset: 0x92A21, size: 0x8, addend: 0x0, symName: __ZNSt3__19allocatorIiE9constructB8ne180100IiJRKiEEEvPT_DpOT0_, symObjAddr: 0x20884, symBinAddr: 0x1000249E4, symSize: 0x28 }
  - { offset: 0x92A77, size: 0x8, addend: 0x0, symName: __ZNKSt3__15dequeIiNS_9allocatorIiEEE6__sizeB8ne180100Ev, symObjAddr: 0x208AC, symBinAddr: 0x100024A0C, symSize: 0x28 }
  - { offset: 0x92A9D, size: 0x8, addend: 0x0, symName: __ZNKSt3__117__compressed_pairImNS_9allocatorIiEEE5firstB8ne180100Ev, symObjAddr: 0x208D4, symBinAddr: 0x100024A34, symSize: 0x24 }
  - { offset: 0x92AC3, size: 0x8, addend: 0x0, symName: __ZNKSt3__122__compressed_pair_elemImLi0ELb0EE5__getB8ne180100Ev, symObjAddr: 0x208F8, symBinAddr: 0x100024A58, symSize: 0x14 }
  - { offset: 0x92AE9, size: 0x8, addend: 0x0, symName: __ZNKSt3__15dequeIiNS_9allocatorIiEEE23__annotate_shrink_frontB8ne180100Emm, symObjAddr: 0x20920, symBinAddr: 0x100024A80, symSize: 0x18 }
  - { offset: 0x92B2D, size: 0x8, addend: 0x0, symName: __ZNSt3__15dequeIiNS_9allocatorIiEEE26__maybe_remove_front_spareB8ne180100Eb, symObjAddr: 0x20938, symBinAddr: 0x100024A98, symSize: 0xEC }
  - { offset: 0x92B62, size: 0x8, addend: 0x0, symName: __ZNKSt3__15dequeIiNS_9allocatorIiEEE20__front_spare_blocksB8ne180100Ev, symObjAddr: 0x20A24, symBinAddr: 0x100024B84, symSize: 0x2C }
  - { offset: 0x92B88, size: 0x8, addend: 0x0, symName: __ZNSt3__16vectorI3JetNS_9allocatorIS1_EEEC2B8ne180100Ev, symObjAddr: 0x20A50, symBinAddr: 0x100024BB0, symSize: 0x4C }
  - { offset: 0x92BB2, size: 0x8, addend: 0x0, symName: __ZNSt3__117__compressed_pairIP3JetNS_9allocatorIS1_EEEC1B8ne180100IDnNS_18__default_init_tagEEEOT_OT0_, symObjAddr: 0x20A9C, symBinAddr: 0x100024BFC, symSize: 0x3C }
  - { offset: 0x92C0A, size: 0x8, addend: 0x0, symName: __ZNSt3__117__compressed_pairIP3JetNS_9allocatorIS1_EEEC2B8ne180100IDnNS_18__default_init_tagEEEOT_OT0_, symObjAddr: 0x20AD8, symBinAddr: 0x100024C38, symSize: 0x40 }
  - { offset: 0x92C62, size: 0x8, addend: 0x0, symName: __ZNSt3__122__compressed_pair_elemIP3JetLi0ELb0EEC2B8ne180100IDnvEEOT_, symObjAddr: 0x20B18, symBinAddr: 0x100024C78, symSize: 0x1C }
  - { offset: 0x92CA4, size: 0x8, addend: 0x0, symName: __ZNSt3__122__compressed_pair_elemINS_9allocatorI3JetEELi1ELb1EEC2B8ne180100ENS_18__default_init_tagE, symObjAddr: 0x20B34, symBinAddr: 0x100024C94, symSize: 0x2C }
  - { offset: 0x92CD9, size: 0x8, addend: 0x0, symName: __ZNSt3__19allocatorI3JetEC2B8ne180100Ev, symObjAddr: 0x20B60, symBinAddr: 0x100024CC0, symSize: 0x2C }
  - { offset: 0x92D03, size: 0x8, addend: 0x0, symName: __ZNSt3__116__non_trivial_ifILb1ENS_9allocatorI3JetEEEC2B8ne180100Ev, symObjAddr: 0x20B8C, symBinAddr: 0x100024CEC, symSize: 0x14 }
  - { offset: 0x92D2D, size: 0x8, addend: 0x0, symName: __ZNSt3__16vectorI3JetNS_9allocatorIS1_EEED2B8ne180100Ev, symObjAddr: 0x20BA0, symBinAddr: 0x100024D00, symSize: 0x44 }
  - { offset: 0x92D57, size: 0x8, addend: 0x0, symName: __ZNSt3__16vectorI3JetNS_9allocatorIS1_EEE16__destroy_vectorC1B8ne180100ERS4_, symObjAddr: 0x20BE4, symBinAddr: 0x100024D44, symSize: 0x34 }
  - { offset: 0x92D90, size: 0x8, addend: 0x0, symName: __ZNSt3__16vectorI3JetNS_9allocatorIS1_EEE16__destroy_vectorclB8ne180100Ev, symObjAddr: 0x20C18, symBinAddr: 0x100024D78, symSize: 0x90 }
  - { offset: 0x92DB6, size: 0x8, addend: 0x0, symName: __ZNSt3__16vectorI3JetNS_9allocatorIS1_EEE16__destroy_vectorC2B8ne180100ERS4_, symObjAddr: 0x20CA8, symBinAddr: 0x100024E08, symSize: 0x20 }
  - { offset: 0x92DEF, size: 0x8, addend: 0x0, symName: __ZNSt3__16vectorI3JetNS_9allocatorIS1_EEE7__clearB8ne180100Ev, symObjAddr: 0x20CC8, symBinAddr: 0x100024E28, symSize: 0x28 }
  - { offset: 0x92E15, size: 0x8, addend: 0x0, symName: __ZNKSt3__16vectorI3JetNS_9allocatorIS1_EEE17__annotate_deleteB8ne180100Ev, symObjAddr: 0x20CF0, symBinAddr: 0x100024E50, symSize: 0x10 }
  - { offset: 0x92E3B, size: 0x8, addend: 0x0, symName: __ZNSt3__116allocator_traitsINS_9allocatorI3JetEEE10deallocateB8ne180100ERS3_PS2_m, symObjAddr: 0x20D00, symBinAddr: 0x100024E60, symSize: 0x34 }
  - { offset: 0x92E7D, size: 0x8, addend: 0x0, symName: __ZNSt3__16vectorI3JetNS_9allocatorIS1_EEE7__allocB8ne180100Ev, symObjAddr: 0x20D34, symBinAddr: 0x100024E94, symSize: 0x28 }
  - { offset: 0x92EA3, size: 0x8, addend: 0x0, symName: __ZNKSt3__16vectorI3JetNS_9allocatorIS1_EEE8capacityB8ne180100Ev, symObjAddr: 0x20D5C, symBinAddr: 0x100024EBC, symSize: 0x40 }
  - { offset: 0x92EC9, size: 0x8, addend: 0x0, symName: __ZNSt3__16vectorI3JetNS_9allocatorIS1_EEE22__base_destruct_at_endB8ne180100EPS1_, symObjAddr: 0x20D9C, symBinAddr: 0x100024EFC, symSize: 0x8C }
  - { offset: 0x92F0D, size: 0x8, addend: 0x0, symName: __ZNSt3__116allocator_traitsINS_9allocatorI3JetEEE7destroyB8ne180100IS2_vEEvRS3_PT_, symObjAddr: 0x20E28, symBinAddr: 0x100024F88, symSize: 0x2C }
  - { offset: 0x92F4A, size: 0x8, addend: 0x0, symName: __ZNSt3__19allocatorI3JetE7destroyB8ne180100EPS1_, symObjAddr: 0x20E68, symBinAddr: 0x100024FC8, symSize: 0x14 }
  - { offset: 0x92F7E, size: 0x8, addend: 0x0, symName: __ZNSt3__19allocatorI3JetE10deallocateB8ne180100EPS1_m, symObjAddr: 0x20E7C, symBinAddr: 0x100024FDC, symSize: 0x44 }
  - { offset: 0x92FC0, size: 0x8, addend: 0x0, symName: __ZNSt3__117__compressed_pairIP3JetNS_9allocatorIS1_EEE6secondB8ne180100Ev, symObjAddr: 0x20EC0, symBinAddr: 0x100025020, symSize: 0x24 }
  - { offset: 0x92FE6, size: 0x8, addend: 0x0, symName: __ZNSt3__122__compressed_pair_elemINS_9allocatorI3JetEELi1ELb1EE5__getB8ne180100Ev, symObjAddr: 0x20EE4, symBinAddr: 0x100025044, symSize: 0x14 }
  - { offset: 0x9300C, size: 0x8, addend: 0x0, symName: __ZNKSt3__16vectorI3JetNS_9allocatorIS1_EEE9__end_capB8ne180100Ev, symObjAddr: 0x20EF8, symBinAddr: 0x100025058, symSize: 0x28 }
  - { offset: 0x93032, size: 0x8, addend: 0x0, symName: __ZNKSt3__117__compressed_pairIP3JetNS_9allocatorIS1_EEE5firstB8ne180100Ev, symObjAddr: 0x20F20, symBinAddr: 0x100025080, symSize: 0x24 }
  - { offset: 0x93058, size: 0x8, addend: 0x0, symName: __ZNKSt3__122__compressed_pair_elemIP3JetLi0ELb0EE5__getB8ne180100Ev, symObjAddr: 0x20F44, symBinAddr: 0x1000250A4, symSize: 0x14 }
  - { offset: 0x9307E, size: 0x8, addend: 0x0, symName: __ZNSt3__16vectorIP4TH1FNS_9allocatorIS2_EEEC2B8ne180100Ev, symObjAddr: 0x20F58, symBinAddr: 0x1000250B8, symSize: 0x4C }
  - { offset: 0x930A8, size: 0x8, addend: 0x0, symName: __ZNSt3__117__compressed_pairIPP4TH1FNS_9allocatorIS2_EEEC1B8ne180100IDnNS_18__default_init_tagEEEOT_OT0_, symObjAddr: 0x20FA4, symBinAddr: 0x100025104, symSize: 0x3C }
  - { offset: 0x93100, size: 0x8, addend: 0x0, symName: __ZNSt3__117__compressed_pairIPP4TH1FNS_9allocatorIS2_EEEC2B8ne180100IDnNS_18__default_init_tagEEEOT_OT0_, symObjAddr: 0x20FE0, symBinAddr: 0x100025140, symSize: 0x40 }
  - { offset: 0x93158, size: 0x8, addend: 0x0, symName: __ZNSt3__122__compressed_pair_elemIPP4TH1FLi0ELb0EEC2B8ne180100IDnvEEOT_, symObjAddr: 0x21020, symBinAddr: 0x100025180, symSize: 0x1C }
  - { offset: 0x9319A, size: 0x8, addend: 0x0, symName: __ZNSt3__122__compressed_pair_elemINS_9allocatorIP4TH1FEELi1ELb1EEC2B8ne180100ENS_18__default_init_tagE, symObjAddr: 0x2103C, symBinAddr: 0x10002519C, symSize: 0x2C }
  - { offset: 0x931CF, size: 0x8, addend: 0x0, symName: __ZNSt3__19allocatorIP4TH1FEC2B8ne180100Ev, symObjAddr: 0x21068, symBinAddr: 0x1000251C8, symSize: 0x2C }
  - { offset: 0x931F9, size: 0x8, addend: 0x0, symName: __ZNSt3__116__non_trivial_ifILb1ENS_9allocatorIP4TH1FEEEC2B8ne180100Ev, symObjAddr: 0x21094, symBinAddr: 0x1000251F4, symSize: 0x14 }
  - { offset: 0x93223, size: 0x8, addend: 0x0, symName: __ZNSt3__16vectorIP4TH1FNS_9allocatorIS2_EEED2B8ne180100Ev, symObjAddr: 0x210A8, symBinAddr: 0x100025208, symSize: 0x44 }
  - { offset: 0x9324D, size: 0x8, addend: 0x0, symName: __ZNSt3__16vectorIP4TH1FNS_9allocatorIS2_EEE16__destroy_vectorC1B8ne180100ERS5_, symObjAddr: 0x210EC, symBinAddr: 0x10002524C, symSize: 0x34 }
  - { offset: 0x93286, size: 0x8, addend: 0x0, symName: __ZNSt3__16vectorIP4TH1FNS_9allocatorIS2_EEE16__destroy_vectorclB8ne180100Ev, symObjAddr: 0x21120, symBinAddr: 0x100025280, symSize: 0x90 }
  - { offset: 0x932AC, size: 0x8, addend: 0x0, symName: __ZNSt3__16vectorIP4TH1FNS_9allocatorIS2_EEE16__destroy_vectorC2B8ne180100ERS5_, symObjAddr: 0x211B0, symBinAddr: 0x100025310, symSize: 0x20 }
  - { offset: 0x932E5, size: 0x8, addend: 0x0, symName: __ZNSt3__16vectorIP4TH1FNS_9allocatorIS2_EEE7__clearB8ne180100Ev, symObjAddr: 0x211D0, symBinAddr: 0x100025330, symSize: 0x28 }
  - { offset: 0x9330B, size: 0x8, addend: 0x0, symName: __ZNKSt3__16vectorIP4TH1FNS_9allocatorIS2_EEE17__annotate_deleteB8ne180100Ev, symObjAddr: 0x211F8, symBinAddr: 0x100025358, symSize: 0x10 }
  - { offset: 0x93331, size: 0x8, addend: 0x0, symName: __ZNSt3__116allocator_traitsINS_9allocatorIP4TH1FEEE10deallocateB8ne180100ERS4_PS3_m, symObjAddr: 0x21208, symBinAddr: 0x100025368, symSize: 0x34 }
  - { offset: 0x93373, size: 0x8, addend: 0x0, symName: __ZNSt3__16vectorIP4TH1FNS_9allocatorIS2_EEE7__allocB8ne180100Ev, symObjAddr: 0x2123C, symBinAddr: 0x10002539C, symSize: 0x28 }
  - { offset: 0x93399, size: 0x8, addend: 0x0, symName: __ZNKSt3__16vectorIP4TH1FNS_9allocatorIS2_EEE8capacityB8ne180100Ev, symObjAddr: 0x21264, symBinAddr: 0x1000253C4, symSize: 0x40 }
  - { offset: 0x933BF, size: 0x8, addend: 0x0, symName: __ZNSt3__16vectorIP4TH1FNS_9allocatorIS2_EEE22__base_destruct_at_endB8ne180100EPS2_, symObjAddr: 0x212A4, symBinAddr: 0x100025404, symSize: 0x8C }
  - { offset: 0x93403, size: 0x8, addend: 0x0, symName: __ZNSt3__116allocator_traitsINS_9allocatorIP4TH1FEEE7destroyB8ne180100IS3_vEEvRS4_PT_, symObjAddr: 0x21330, symBinAddr: 0x100025490, symSize: 0x2C }
  - { offset: 0x93440, size: 0x8, addend: 0x0, symName: __ZNSt3__19allocatorIP4TH1FE7destroyB8ne180100EPS2_, symObjAddr: 0x21370, symBinAddr: 0x1000254D0, symSize: 0x14 }
  - { offset: 0x93474, size: 0x8, addend: 0x0, symName: __ZNSt3__19allocatorIP4TH1FE10deallocateB8ne180100EPS2_m, symObjAddr: 0x21384, symBinAddr: 0x1000254E4, symSize: 0x40 }
  - { offset: 0x934B6, size: 0x8, addend: 0x0, symName: __ZNSt3__117__compressed_pairIPP4TH1FNS_9allocatorIS2_EEE6secondB8ne180100Ev, symObjAddr: 0x213C4, symBinAddr: 0x100025524, symSize: 0x24 }
  - { offset: 0x934DC, size: 0x8, addend: 0x0, symName: __ZNSt3__122__compressed_pair_elemINS_9allocatorIP4TH1FEELi1ELb1EE5__getB8ne180100Ev, symObjAddr: 0x213E8, symBinAddr: 0x100025548, symSize: 0x14 }
  - { offset: 0x93502, size: 0x8, addend: 0x0, symName: __ZNKSt3__16vectorIP4TH1FNS_9allocatorIS2_EEE9__end_capB8ne180100Ev, symObjAddr: 0x213FC, symBinAddr: 0x10002555C, symSize: 0x28 }
  - { offset: 0x93528, size: 0x8, addend: 0x0, symName: __ZNKSt3__117__compressed_pairIPP4TH1FNS_9allocatorIS2_EEE5firstB8ne180100Ev, symObjAddr: 0x21424, symBinAddr: 0x100025584, symSize: 0x24 }
  - { offset: 0x9354E, size: 0x8, addend: 0x0, symName: __ZNKSt3__122__compressed_pair_elemIPP4TH1FLi0ELb0EE5__getB8ne180100Ev, symObjAddr: 0x21448, symBinAddr: 0x1000255A8, symSize: 0x14 }
  - { offset: 0x93574, size: 0x8, addend: 0x0, symName: __ZNSt3__16vectorIP4TH2FNS_9allocatorIS2_EEEC2B8ne180100Ev, symObjAddr: 0x2145C, symBinAddr: 0x1000255BC, symSize: 0x4C }
  - { offset: 0x9359E, size: 0x8, addend: 0x0, symName: __ZNSt3__117__compressed_pairIPP4TH2FNS_9allocatorIS2_EEEC1B8ne180100IDnNS_18__default_init_tagEEEOT_OT0_, symObjAddr: 0x214A8, symBinAddr: 0x100025608, symSize: 0x3C }
  - { offset: 0x935F6, size: 0x8, addend: 0x0, symName: __ZNSt3__117__compressed_pairIPP4TH2FNS_9allocatorIS2_EEEC2B8ne180100IDnNS_18__default_init_tagEEEOT_OT0_, symObjAddr: 0x214E4, symBinAddr: 0x100025644, symSize: 0x40 }
  - { offset: 0x9364E, size: 0x8, addend: 0x0, symName: __ZNSt3__122__compressed_pair_elemIPP4TH2FLi0ELb0EEC2B8ne180100IDnvEEOT_, symObjAddr: 0x21524, symBinAddr: 0x100025684, symSize: 0x1C }
  - { offset: 0x93690, size: 0x8, addend: 0x0, symName: __ZNSt3__122__compressed_pair_elemINS_9allocatorIP4TH2FEELi1ELb1EEC2B8ne180100ENS_18__default_init_tagE, symObjAddr: 0x21540, symBinAddr: 0x1000256A0, symSize: 0x2C }
  - { offset: 0x936C5, size: 0x8, addend: 0x0, symName: __ZNSt3__19allocatorIP4TH2FEC2B8ne180100Ev, symObjAddr: 0x2156C, symBinAddr: 0x1000256CC, symSize: 0x2C }
  - { offset: 0x936EF, size: 0x8, addend: 0x0, symName: __ZNSt3__116__non_trivial_ifILb1ENS_9allocatorIP4TH2FEEEC2B8ne180100Ev, symObjAddr: 0x21598, symBinAddr: 0x1000256F8, symSize: 0x14 }
  - { offset: 0x93719, size: 0x8, addend: 0x0, symName: __ZNSt3__16vectorIP4TH2FNS_9allocatorIS2_EEED2B8ne180100Ev, symObjAddr: 0x215AC, symBinAddr: 0x10002570C, symSize: 0x44 }
  - { offset: 0x93743, size: 0x8, addend: 0x0, symName: __ZNSt3__16vectorIP4TH2FNS_9allocatorIS2_EEE16__destroy_vectorC1B8ne180100ERS5_, symObjAddr: 0x215F0, symBinAddr: 0x100025750, symSize: 0x34 }
  - { offset: 0x9377C, size: 0x8, addend: 0x0, symName: __ZNSt3__16vectorIP4TH2FNS_9allocatorIS2_EEE16__destroy_vectorclB8ne180100Ev, symObjAddr: 0x21624, symBinAddr: 0x100025784, symSize: 0x90 }
  - { offset: 0x937A2, size: 0x8, addend: 0x0, symName: __ZNSt3__16vectorIP4TH2FNS_9allocatorIS2_EEE16__destroy_vectorC2B8ne180100ERS5_, symObjAddr: 0x216B4, symBinAddr: 0x100025814, symSize: 0x20 }
  - { offset: 0x937DB, size: 0x8, addend: 0x0, symName: __ZNSt3__16vectorIP4TH2FNS_9allocatorIS2_EEE7__clearB8ne180100Ev, symObjAddr: 0x216D4, symBinAddr: 0x100025834, symSize: 0x28 }
  - { offset: 0x93801, size: 0x8, addend: 0x0, symName: __ZNKSt3__16vectorIP4TH2FNS_9allocatorIS2_EEE17__annotate_deleteB8ne180100Ev, symObjAddr: 0x216FC, symBinAddr: 0x10002585C, symSize: 0x10 }
  - { offset: 0x93827, size: 0x8, addend: 0x0, symName: __ZNSt3__116allocator_traitsINS_9allocatorIP4TH2FEEE10deallocateB8ne180100ERS4_PS3_m, symObjAddr: 0x2170C, symBinAddr: 0x10002586C, symSize: 0x34 }
  - { offset: 0x93869, size: 0x8, addend: 0x0, symName: __ZNSt3__16vectorIP4TH2FNS_9allocatorIS2_EEE7__allocB8ne180100Ev, symObjAddr: 0x21740, symBinAddr: 0x1000258A0, symSize: 0x28 }
  - { offset: 0x9388F, size: 0x8, addend: 0x0, symName: __ZNKSt3__16vectorIP4TH2FNS_9allocatorIS2_EEE8capacityB8ne180100Ev, symObjAddr: 0x21768, symBinAddr: 0x1000258C8, symSize: 0x40 }
  - { offset: 0x938B5, size: 0x8, addend: 0x0, symName: __ZNSt3__16vectorIP4TH2FNS_9allocatorIS2_EEE22__base_destruct_at_endB8ne180100EPS2_, symObjAddr: 0x217A8, symBinAddr: 0x100025908, symSize: 0x8C }
  - { offset: 0x938F9, size: 0x8, addend: 0x0, symName: __ZNSt3__116allocator_traitsINS_9allocatorIP4TH2FEEE7destroyB8ne180100IS3_vEEvRS4_PT_, symObjAddr: 0x21834, symBinAddr: 0x100025994, symSize: 0x2C }
  - { offset: 0x93936, size: 0x8, addend: 0x0, symName: __ZNSt3__19allocatorIP4TH2FE7destroyB8ne180100EPS2_, symObjAddr: 0x21874, symBinAddr: 0x1000259D4, symSize: 0x14 }
  - { offset: 0x9396A, size: 0x8, addend: 0x0, symName: __ZNSt3__19allocatorIP4TH2FE10deallocateB8ne180100EPS2_m, symObjAddr: 0x21888, symBinAddr: 0x1000259E8, symSize: 0x40 }
  - { offset: 0x939AC, size: 0x8, addend: 0x0, symName: __ZNSt3__117__compressed_pairIPP4TH2FNS_9allocatorIS2_EEE6secondB8ne180100Ev, symObjAddr: 0x218C8, symBinAddr: 0x100025A28, symSize: 0x24 }
  - { offset: 0x939D2, size: 0x8, addend: 0x0, symName: __ZNSt3__122__compressed_pair_elemINS_9allocatorIP4TH2FEELi1ELb1EE5__getB8ne180100Ev, symObjAddr: 0x218EC, symBinAddr: 0x100025A4C, symSize: 0x14 }
  - { offset: 0x939F8, size: 0x8, addend: 0x0, symName: __ZNKSt3__16vectorIP4TH2FNS_9allocatorIS2_EEE9__end_capB8ne180100Ev, symObjAddr: 0x21900, symBinAddr: 0x100025A60, symSize: 0x28 }
  - { offset: 0x93A1E, size: 0x8, addend: 0x0, symName: __ZNKSt3__117__compressed_pairIPP4TH2FNS_9allocatorIS2_EEE5firstB8ne180100Ev, symObjAddr: 0x21928, symBinAddr: 0x100025A88, symSize: 0x24 }
  - { offset: 0x93A44, size: 0x8, addend: 0x0, symName: __ZNKSt3__122__compressed_pair_elemIPP4TH2FLi0ELb0EE5__getB8ne180100Ev, symObjAddr: 0x2194C, symBinAddr: 0x100025AAC, symSize: 0x14 }
  - { offset: 0x93A6A, size: 0x8, addend: 0x0, symName: __ZNSt3__16vectorINS0_IP4TH2FNS_9allocatorIS2_EEEENS3_IS5_EEEC2B8ne180100Ev, symObjAddr: 0x21960, symBinAddr: 0x100025AC0, symSize: 0x4C }
  - { offset: 0x93A94, size: 0x8, addend: 0x0, symName: __ZNSt3__117__compressed_pairIPNS_6vectorIP4TH2FNS_9allocatorIS3_EEEENS4_IS6_EEEC1B8ne180100IDnNS_18__default_init_tagEEEOT_OT0_, symObjAddr: 0x219AC, symBinAddr: 0x100025B0C, symSize: 0x3C }
  - { offset: 0x93AEC, size: 0x8, addend: 0x0, symName: __ZNSt3__117__compressed_pairIPNS_6vectorIP4TH2FNS_9allocatorIS3_EEEENS4_IS6_EEEC2B8ne180100IDnNS_18__default_init_tagEEEOT_OT0_, symObjAddr: 0x219E8, symBinAddr: 0x100025B48, symSize: 0x40 }
  - { offset: 0x93B44, size: 0x8, addend: 0x0, symName: __ZNSt3__122__compressed_pair_elemIPNS_6vectorIP4TH2FNS_9allocatorIS3_EEEELi0ELb0EEC2B8ne180100IDnvEEOT_, symObjAddr: 0x21A28, symBinAddr: 0x100025B88, symSize: 0x1C }
  - { offset: 0x93B86, size: 0x8, addend: 0x0, symName: __ZNSt3__122__compressed_pair_elemINS_9allocatorINS_6vectorIP4TH2FNS1_IS4_EEEEEELi1ELb1EEC2B8ne180100ENS_18__default_init_tagE, symObjAddr: 0x21A44, symBinAddr: 0x100025BA4, symSize: 0x2C }
  - { offset: 0x93BBB, size: 0x8, addend: 0x0, symName: __ZNSt3__19allocatorINS_6vectorIP4TH2FNS0_IS3_EEEEEC2B8ne180100Ev, symObjAddr: 0x21A70, symBinAddr: 0x100025BD0, symSize: 0x2C }
  - { offset: 0x93BE5, size: 0x8, addend: 0x0, symName: __ZNSt3__116__non_trivial_ifILb1ENS_9allocatorINS_6vectorIP4TH2FNS1_IS4_EEEEEEEC2B8ne180100Ev, symObjAddr: 0x21A9C, symBinAddr: 0x100025BFC, symSize: 0x14 }
  - { offset: 0x93C0F, size: 0x8, addend: 0x0, symName: __ZNSt3__16vectorINS0_IP4TH2FNS_9allocatorIS2_EEEENS3_IS5_EEED2B8ne180100Ev, symObjAddr: 0x21AB0, symBinAddr: 0x100025C10, symSize: 0x44 }
  - { offset: 0x93C39, size: 0x8, addend: 0x0, symName: __ZNSt3__16vectorINS0_IP4TH2FNS_9allocatorIS2_EEEENS3_IS5_EEE16__destroy_vectorC1B8ne180100ERS7_, symObjAddr: 0x21AF4, symBinAddr: 0x100025C54, symSize: 0x34 }
  - { offset: 0x93C72, size: 0x8, addend: 0x0, symName: __ZNSt3__16vectorINS0_IP4TH2FNS_9allocatorIS2_EEEENS3_IS5_EEE16__destroy_vectorclB8ne180100Ev, symObjAddr: 0x21B28, symBinAddr: 0x100025C88, symSize: 0x90 }
  - { offset: 0x93C98, size: 0x8, addend: 0x0, symName: __ZNSt3__16vectorINS0_IP4TH2FNS_9allocatorIS2_EEEENS3_IS5_EEE16__destroy_vectorC2B8ne180100ERS7_, symObjAddr: 0x21BB8, symBinAddr: 0x100025D18, symSize: 0x20 }
  - { offset: 0x93CD1, size: 0x8, addend: 0x0, symName: __ZNSt3__16vectorINS0_IP4TH2FNS_9allocatorIS2_EEEENS3_IS5_EEE7__clearB8ne180100Ev, symObjAddr: 0x21BD8, symBinAddr: 0x100025D38, symSize: 0x28 }
  - { offset: 0x93CF7, size: 0x8, addend: 0x0, symName: __ZNKSt3__16vectorINS0_IP4TH2FNS_9allocatorIS2_EEEENS3_IS5_EEE17__annotate_deleteB8ne180100Ev, symObjAddr: 0x21C00, symBinAddr: 0x100025D60, symSize: 0x10 }
  - { offset: 0x93D1D, size: 0x8, addend: 0x0, symName: __ZNSt3__116allocator_traitsINS_9allocatorINS_6vectorIP4TH2FNS1_IS4_EEEEEEE10deallocateB8ne180100ERS7_PS6_m, symObjAddr: 0x21C10, symBinAddr: 0x100025D70, symSize: 0x34 }
  - { offset: 0x93D5F, size: 0x8, addend: 0x0, symName: __ZNSt3__16vectorINS0_IP4TH2FNS_9allocatorIS2_EEEENS3_IS5_EEE7__allocB8ne180100Ev, symObjAddr: 0x21C44, symBinAddr: 0x100025DA4, symSize: 0x28 }
  - { offset: 0x93D85, size: 0x8, addend: 0x0, symName: __ZNKSt3__16vectorINS0_IP4TH2FNS_9allocatorIS2_EEEENS3_IS5_EEE8capacityB8ne180100Ev, symObjAddr: 0x21C6C, symBinAddr: 0x100025DCC, symSize: 0x40 }
  - { offset: 0x93DAB, size: 0x8, addend: 0x0, symName: __ZNSt3__16vectorINS0_IP4TH2FNS_9allocatorIS2_EEEENS3_IS5_EEE22__base_destruct_at_endB8ne180100EPS5_, symObjAddr: 0x21CAC, symBinAddr: 0x100025E0C, symSize: 0x8C }
  - { offset: 0x93DEF, size: 0x8, addend: 0x0, symName: __ZNSt3__116allocator_traitsINS_9allocatorINS_6vectorIP4TH2FNS1_IS4_EEEEEEE7destroyB8ne180100IS6_vEEvRS7_PT_, symObjAddr: 0x21D38, symBinAddr: 0x100025E98, symSize: 0x2C }
  - { offset: 0x93E2C, size: 0x8, addend: 0x0, symName: __ZNSt3__19allocatorINS_6vectorIP4TH2FNS0_IS3_EEEEE7destroyB8ne180100EPS5_, symObjAddr: 0x21D78, symBinAddr: 0x100025ED8, symSize: 0x28 }
  - { offset: 0x93E60, size: 0x8, addend: 0x0, symName: __ZNSt3__19allocatorINS_6vectorIP4TH2FNS0_IS3_EEEEE10deallocateB8ne180100EPS5_m, symObjAddr: 0x21DA0, symBinAddr: 0x100025F00, symSize: 0x44 }
  - { offset: 0x93EA2, size: 0x8, addend: 0x0, symName: __ZNSt3__117__compressed_pairIPNS_6vectorIP4TH2FNS_9allocatorIS3_EEEENS4_IS6_EEE6secondB8ne180100Ev, symObjAddr: 0x21DE4, symBinAddr: 0x100025F44, symSize: 0x24 }
  - { offset: 0x93EC8, size: 0x8, addend: 0x0, symName: __ZNSt3__122__compressed_pair_elemINS_9allocatorINS_6vectorIP4TH2FNS1_IS4_EEEEEELi1ELb1EE5__getB8ne180100Ev, symObjAddr: 0x21E08, symBinAddr: 0x100025F68, symSize: 0x14 }
  - { offset: 0x93EEE, size: 0x8, addend: 0x0, symName: __ZNKSt3__16vectorINS0_IP4TH2FNS_9allocatorIS2_EEEENS3_IS5_EEE9__end_capB8ne180100Ev, symObjAddr: 0x21E1C, symBinAddr: 0x100025F7C, symSize: 0x28 }
  - { offset: 0x93F14, size: 0x8, addend: 0x0, symName: __ZNKSt3__117__compressed_pairIPNS_6vectorIP4TH2FNS_9allocatorIS3_EEEENS4_IS6_EEE5firstB8ne180100Ev, symObjAddr: 0x21E44, symBinAddr: 0x100025FA4, symSize: 0x24 }
  - { offset: 0x93F3A, size: 0x8, addend: 0x0, symName: __ZNKSt3__122__compressed_pair_elemIPNS_6vectorIP4TH2FNS_9allocatorIS3_EEEELi0ELb0EE5__getB8ne180100Ev, symObjAddr: 0x21E68, symBinAddr: 0x100025FC8, symSize: 0x14 }
  - { offset: 0x93F60, size: 0x8, addend: 0x0, symName: __ZNSt3__16vectorI10FourVectorNS_9allocatorIS1_EEEC2B8ne180100Ev, symObjAddr: 0x21E7C, symBinAddr: 0x100025FDC, symSize: 0x4C }
  - { offset: 0x93F8A, size: 0x8, addend: 0x0, symName: __ZNSt3__117__compressed_pairIP10FourVectorNS_9allocatorIS1_EEEC1B8ne180100IDnNS_18__default_init_tagEEEOT_OT0_, symObjAddr: 0x21EC8, symBinAddr: 0x100026028, symSize: 0x3C }
  - { offset: 0x93FE2, size: 0x8, addend: 0x0, symName: __ZNSt3__117__compressed_pairIP10FourVectorNS_9allocatorIS1_EEEC2B8ne180100IDnNS_18__default_init_tagEEEOT_OT0_, symObjAddr: 0x21F04, symBinAddr: 0x100026064, symSize: 0x40 }
  - { offset: 0x9403A, size: 0x8, addend: 0x0, symName: __ZNSt3__122__compressed_pair_elemIP10FourVectorLi0ELb0EEC2B8ne180100IDnvEEOT_, symObjAddr: 0x21F44, symBinAddr: 0x1000260A4, symSize: 0x1C }
  - { offset: 0x9407C, size: 0x8, addend: 0x0, symName: __ZNSt3__122__compressed_pair_elemINS_9allocatorI10FourVectorEELi1ELb1EEC2B8ne180100ENS_18__default_init_tagE, symObjAddr: 0x21F60, symBinAddr: 0x1000260C0, symSize: 0x2C }
  - { offset: 0x940B1, size: 0x8, addend: 0x0, symName: __ZNSt3__19allocatorI10FourVectorEC2B8ne180100Ev, symObjAddr: 0x21F8C, symBinAddr: 0x1000260EC, symSize: 0x2C }
  - { offset: 0x940DB, size: 0x8, addend: 0x0, symName: __ZNSt3__116__non_trivial_ifILb1ENS_9allocatorI10FourVectorEEEC2B8ne180100Ev, symObjAddr: 0x21FB8, symBinAddr: 0x100026118, symSize: 0x14 }
  - { offset: 0x94105, size: 0x8, addend: 0x0, symName: __ZNSt3__16vectorI10FourVectorNS_9allocatorIS1_EEED2B8ne180100Ev, symObjAddr: 0x21FCC, symBinAddr: 0x10002612C, symSize: 0x44 }
  - { offset: 0x9412F, size: 0x8, addend: 0x0, symName: __ZNSt3__16vectorI10FourVectorNS_9allocatorIS1_EEE16__destroy_vectorC1B8ne180100ERS4_, symObjAddr: 0x22010, symBinAddr: 0x100026170, symSize: 0x34 }
  - { offset: 0x94168, size: 0x8, addend: 0x0, symName: __ZNSt3__16vectorI10FourVectorNS_9allocatorIS1_EEE16__destroy_vectorclB8ne180100Ev, symObjAddr: 0x22044, symBinAddr: 0x1000261A4, symSize: 0x90 }
  - { offset: 0x9418E, size: 0x8, addend: 0x0, symName: __ZNSt3__16vectorI10FourVectorNS_9allocatorIS1_EEE16__destroy_vectorC2B8ne180100ERS4_, symObjAddr: 0x220D4, symBinAddr: 0x100026234, symSize: 0x20 }
  - { offset: 0x941C7, size: 0x8, addend: 0x0, symName: __ZNSt3__16vectorI10FourVectorNS_9allocatorIS1_EEE7__clearB8ne180100Ev, symObjAddr: 0x220F4, symBinAddr: 0x100026254, symSize: 0x28 }
  - { offset: 0x941ED, size: 0x8, addend: 0x0, symName: __ZNKSt3__16vectorI10FourVectorNS_9allocatorIS1_EEE17__annotate_deleteB8ne180100Ev, symObjAddr: 0x2211C, symBinAddr: 0x10002627C, symSize: 0x10 }
  - { offset: 0x94213, size: 0x8, addend: 0x0, symName: __ZNSt3__116allocator_traitsINS_9allocatorI10FourVectorEEE10deallocateB8ne180100ERS3_PS2_m, symObjAddr: 0x2212C, symBinAddr: 0x10002628C, symSize: 0x34 }
  - { offset: 0x94255, size: 0x8, addend: 0x0, symName: __ZNSt3__16vectorI10FourVectorNS_9allocatorIS1_EEE7__allocB8ne180100Ev, symObjAddr: 0x22160, symBinAddr: 0x1000262C0, symSize: 0x28 }
  - { offset: 0x9427B, size: 0x8, addend: 0x0, symName: __ZNKSt3__16vectorI10FourVectorNS_9allocatorIS1_EEE8capacityB8ne180100Ev, symObjAddr: 0x22188, symBinAddr: 0x1000262E8, symSize: 0x40 }
  - { offset: 0x942A1, size: 0x8, addend: 0x0, symName: __ZNSt3__16vectorI10FourVectorNS_9allocatorIS1_EEE22__base_destruct_at_endB8ne180100EPS1_, symObjAddr: 0x221C8, symBinAddr: 0x100026328, symSize: 0x8C }
  - { offset: 0x942E5, size: 0x8, addend: 0x0, symName: __ZNSt3__116allocator_traitsINS_9allocatorI10FourVectorEEE7destroyB8ne180100IS2_vEEvRS3_PT_, symObjAddr: 0x22254, symBinAddr: 0x1000263B4, symSize: 0x2C }
  - { offset: 0x94322, size: 0x8, addend: 0x0, symName: __ZNSt3__19allocatorI10FourVectorE7destroyB8ne180100EPS1_, symObjAddr: 0x22294, symBinAddr: 0x1000263F4, symSize: 0x28 }
  - { offset: 0x94356, size: 0x8, addend: 0x0, symName: __ZNSt3__19allocatorI10FourVectorE10deallocateB8ne180100EPS1_m, symObjAddr: 0x222BC, symBinAddr: 0x10002641C, symSize: 0x40 }
  - { offset: 0x94398, size: 0x8, addend: 0x0, symName: __ZNSt3__117__compressed_pairIP10FourVectorNS_9allocatorIS1_EEE6secondB8ne180100Ev, symObjAddr: 0x222FC, symBinAddr: 0x10002645C, symSize: 0x24 }
  - { offset: 0x943BE, size: 0x8, addend: 0x0, symName: __ZNSt3__122__compressed_pair_elemINS_9allocatorI10FourVectorEELi1ELb1EE5__getB8ne180100Ev, symObjAddr: 0x22320, symBinAddr: 0x100026480, symSize: 0x14 }
  - { offset: 0x943E4, size: 0x8, addend: 0x0, symName: __ZNKSt3__16vectorI10FourVectorNS_9allocatorIS1_EEE9__end_capB8ne180100Ev, symObjAddr: 0x22334, symBinAddr: 0x100026494, symSize: 0x28 }
  - { offset: 0x9440A, size: 0x8, addend: 0x0, symName: __ZNKSt3__117__compressed_pairIP10FourVectorNS_9allocatorIS1_EEE5firstB8ne180100Ev, symObjAddr: 0x2235C, symBinAddr: 0x1000264BC, symSize: 0x24 }
  - { offset: 0x94430, size: 0x8, addend: 0x0, symName: __ZNKSt3__122__compressed_pair_elemIP10FourVectorLi0ELb0EE5__getB8ne180100Ev, symObjAddr: 0x22380, symBinAddr: 0x1000264E0, symSize: 0x14 }
  - { offset: 0x94456, size: 0x8, addend: 0x0, symName: __ZNSt3__16vectorIdNS_9allocatorIdEEEC2B8ne180100ESt16initializer_listIdE, symObjAddr: 0x22394, symBinAddr: 0x1000264F4, symSize: 0x120 }
  - { offset: 0x944A6, size: 0x8, addend: 0x0, symName: __ZNKSt16initializer_listIdE4sizeB8ne180100Ev, symObjAddr: 0x224B4, symBinAddr: 0x100026614, symSize: 0x18 }
  - { offset: 0x944CC, size: 0x8, addend: 0x0, symName: __ZNSt3__16vectorIdNS_9allocatorIdEEE18__construct_at_endIPKdS6_EEvT_T0_m, symObjAddr: 0x224CC, symBinAddr: 0x10002662C, symSize: 0x8C }
  - { offset: 0x94542, size: 0x8, addend: 0x0, symName: __ZNKSt16initializer_listIdE5beginB8ne180100Ev, symObjAddr: 0x22558, symBinAddr: 0x1000266B8, symSize: 0x18 }
  - { offset: 0x94568, size: 0x8, addend: 0x0, symName: __ZNKSt16initializer_listIdE3endB8ne180100Ev, symObjAddr: 0x22570, symBinAddr: 0x1000266D0, symSize: 0x20 }
  - { offset: 0x945AA, size: 0x8, addend: 0x0, symName: __ZNSt3__14pairIPKdS2_EC1B8ne180100IS2_S2_Li0EEEOT_OT0_, symObjAddr: 0x22704, symBinAddr: 0x100026864, symSize: 0x3C }
  - { offset: 0x94608, size: 0x8, addend: 0x0, symName: __ZNSt3__14pairIPKdS2_EC2B8ne180100IS2_S2_Li0EEEOT_OT0_, symObjAddr: 0x22740, symBinAddr: 0x1000268A0, symSize: 0x34 }
  - { offset: 0x94666, size: 0x8, addend: 0x0, symName: __ZNSt3__118__unwrap_iter_implIPKdLb1EE8__unwrapB8ne180100ES2_, symObjAddr: 0x22774, symBinAddr: 0x1000268D4, symSize: 0x24 }
  - { offset: 0x946A5, size: 0x8, addend: 0x0, symName: __ZNKSt3__114__copy_trivialclB8ne180100IKddLi0EEENS_4pairIPT_PT0_EES5_S5_S7_, symObjAddr: 0x22928, symBinAddr: 0x100026A88, symSize: 0x48 }
  - { offset: 0x94713, size: 0x8, addend: 0x0, symName: __ZNSt3__14pairIPKdPdEC1B8ne180100IRS2_S3_Li0EEEOT_OT0_, symObjAddr: 0x22AF0, symBinAddr: 0x100026C50, symSize: 0x3C }
  - { offset: 0x94771, size: 0x8, addend: 0x0, symName: __ZNSt3__14pairIPKdPdEC2B8ne180100IRS2_S3_Li0EEEOT_OT0_, symObjAddr: 0x22B2C, symBinAddr: 0x100026C8C, symSize: 0x34 }
  - { offset: 0x947CF, size: 0x8, addend: 0x0, symName: __ZNSt3__14pairIPKdPdEC1B8ne180100IS2_S3_Li0EEEOT_OT0_, symObjAddr: 0x22B60, symBinAddr: 0x100026CC0, symSize: 0x3C }
  - { offset: 0x9482D, size: 0x8, addend: 0x0, symName: __ZNSt3__14pairIPKdPdEC2B8ne180100IS2_S3_Li0EEEOT_OT0_, symObjAddr: 0x22B9C, symBinAddr: 0x100026CFC, symSize: 0x34 }
  - { offset: 0x9488B, size: 0x8, addend: 0x0, symName: __ZNSt3__118__unwrap_iter_implIPKdLb1EE8__rewrapB8ne180100ES2_S2_, symObjAddr: 0x22C0C, symBinAddr: 0x100026D6C, symSize: 0x50 }
  - { offset: 0x948BC, size: 0x8, addend: 0x0, symName: __ZNSt3__16vectorINS_12basic_stringIcNS_11char_traitsIcEENS_9allocatorIcEEEENS4_IS6_EEEC2B8ne180100ESt16initializer_listIS6_E, symObjAddr: 0x22C5C, symBinAddr: 0x100026DBC, symSize: 0x120 }
  - { offset: 0x9490C, size: 0x8, addend: 0x0, symName: __ZNKSt16initializer_listINSt3__112basic_stringIcNS0_11char_traitsIcEENS0_9allocatorIcEEEEE4sizeB8ne180100Ev, symObjAddr: 0x22D7C, symBinAddr: 0x100026EDC, symSize: 0x18 }
  - { offset: 0x94932, size: 0x8, addend: 0x0, symName: __ZNSt3__16vectorINS_12basic_stringIcNS_11char_traitsIcEENS_9allocatorIcEEEENS4_IS6_EEE18__construct_at_endIPKS6_SB_EEvT_T0_m, symObjAddr: 0x22D94, symBinAddr: 0x100026EF4, symSize: 0x8C }
  - { offset: 0x949A8, size: 0x8, addend: 0x0, symName: __ZNKSt16initializer_listINSt3__112basic_stringIcNS0_11char_traitsIcEENS0_9allocatorIcEEEEE5beginB8ne180100Ev, symObjAddr: 0x22E20, symBinAddr: 0x100026F80, symSize: 0x18 }
  - { offset: 0x949CE, size: 0x8, addend: 0x0, symName: __ZNKSt16initializer_listINSt3__112basic_stringIcNS0_11char_traitsIcEENS0_9allocatorIcEEEEE3endB8ne180100Ev, symObjAddr: 0x22E38, symBinAddr: 0x100026F98, symSize: 0x28 }
  - { offset: 0x94A16, size: 0x8, addend: 0x0, symName: __ZNSt3__14pairIPKNS_12basic_stringIcNS_11char_traitsIcEENS_9allocatorIcEEEES8_EC1B8ne180100IS8_S8_Li0EEEOT_OT0_, symObjAddr: 0x23090, symBinAddr: 0x1000271F0, symSize: 0x3C }
  - { offset: 0x94A74, size: 0x8, addend: 0x0, symName: __ZNSt3__14pairIPKNS_12basic_stringIcNS_11char_traitsIcEENS_9allocatorIcEEEES8_EC2B8ne180100IS8_S8_Li0EEEOT_OT0_, symObjAddr: 0x230CC, symBinAddr: 0x10002722C, symSize: 0x34 }
  - { offset: 0x94AD2, size: 0x8, addend: 0x0, symName: __ZNSt3__118__unwrap_iter_implIPKNS_12basic_stringIcNS_11char_traitsIcEENS_9allocatorIcEEEELb1EE8__unwrapB8ne180100ES8_, symObjAddr: 0x23100, symBinAddr: 0x100027260, symSize: 0x24 }
  - { offset: 0x94AF5, size: 0x8, addend: 0x0, symName: __ZNSt3__16vectorIP4TH1FNS_9allocatorIS2_EEE9__end_capB8ne180100Ev, symObjAddr: 0x23138, symBinAddr: 0x100027298, symSize: 0x28 }
  - { offset: 0x94B21, size: 0x8, addend: 0x0, symName: __ZNSt3__16vectorIP4TH1FNS_9allocatorIS2_EEE22__construct_one_at_endB8ne180100IJS2_EEEvDpOT_, symObjAddr: 0x23160, symBinAddr: 0x1000272C0, symSize: 0x90 }
  - { offset: 0x94B70, size: 0x8, addend: 0x0, symName: __ZNSt3__16vectorIP4TH1FNS_9allocatorIS2_EEE21__push_back_slow_pathIS2_EEPS2_OT_, symObjAddr: 0x231F0, symBinAddr: 0x100027350, symSize: 0xE8 }
  - { offset: 0x94BCE, size: 0x8, addend: 0x0, symName: __ZNSt3__117__compressed_pairIPP4TH1FNS_9allocatorIS2_EEE5firstB8ne180100Ev, symObjAddr: 0x232D8, symBinAddr: 0x100027438, symSize: 0x24 }
  - { offset: 0x94BF4, size: 0x8, addend: 0x0, symName: __ZNSt3__122__compressed_pair_elemIPP4TH1FLi0ELb0EE5__getB8ne180100Ev, symObjAddr: 0x232FC, symBinAddr: 0x10002745C, symSize: 0x14 }
  - { offset: 0x94C35, size: 0x8, addend: 0x0, symName: __ZNSt3__16vectorIP4TH1FNS_9allocatorIS2_EEE21_ConstructTransactionC1B8ne180100ERS5_m, symObjAddr: 0x23310, symBinAddr: 0x100027470, symSize: 0x3C }
  - { offset: 0x94C7D, size: 0x8, addend: 0x0, symName: __ZNSt3__116allocator_traitsINS_9allocatorIP4TH1FEEE9constructB8ne180100IS3_JS3_EvEEvRS4_PT_DpOT0_, symObjAddr: 0x2334C, symBinAddr: 0x1000274AC, symSize: 0x34 }
  - { offset: 0x94CD4, size: 0x8, addend: 0x0, symName: __ZNSt3__16vectorIP4TH1FNS_9allocatorIS2_EEE21_ConstructTransactionD1B8ne180100Ev, symObjAddr: 0x23380, symBinAddr: 0x1000274E0, symSize: 0x2C }
  - { offset: 0x94CFE, size: 0x8, addend: 0x0, symName: __ZNSt3__16vectorIP4TH1FNS_9allocatorIS2_EEE21_ConstructTransactionC2B8ne180100ERS5_m, symObjAddr: 0x233AC, symBinAddr: 0x10002750C, symSize: 0x44 }
  - { offset: 0x94D46, size: 0x8, addend: 0x0, symName: __ZNSt3__19allocatorIP4TH1FE9constructB8ne180100IS2_JS2_EEEvPT_DpOT0_, symObjAddr: 0x233F0, symBinAddr: 0x100027550, symSize: 0x28 }
  - { offset: 0x94D9C, size: 0x8, addend: 0x0, symName: __ZNSt3__16vectorIP4TH1FNS_9allocatorIS2_EEE21_ConstructTransactionD2B8ne180100Ev, symObjAddr: 0x23418, symBinAddr: 0x100027578, symSize: 0x20 }
  - { offset: 0x94DC6, size: 0x8, addend: 0x0, symName: __ZNKSt3__16vectorIP4TH1FNS_9allocatorIS2_EEE11__recommendB8ne180100Em, symObjAddr: 0x23438, symBinAddr: 0x100027598, symSize: 0xB4 }
  - { offset: 0x94E1B, size: 0x8, addend: 0x0, symName: __ZNKSt3__16vectorIP4TH1FNS_9allocatorIS2_EEE4sizeB8ne180100Ev, symObjAddr: 0x234EC, symBinAddr: 0x10002764C, symSize: 0x28 }
  - { offset: 0x94E41, size: 0x8, addend: 0x0, symName: __ZNSt3__114__split_bufferIP4TH1FRNS_9allocatorIS2_EEEC1EmmS5_, symObjAddr: 0x23514, symBinAddr: 0x100027674, symSize: 0x44 }
  - { offset: 0x94E97, size: 0x8, addend: 0x0, symName: __ZNSt3__114__split_bufferIP4TH1FRNS_9allocatorIS2_EEED1Ev, symObjAddr: 0x23668, symBinAddr: 0x1000277C8, symSize: 0x2C }
  - { offset: 0x94EC3, size: 0x8, addend: 0x0, symName: __ZNKSt3__16vectorIP4TH1FNS_9allocatorIS2_EEE8max_sizeEv, symObjAddr: 0x23694, symBinAddr: 0x1000277F4, symSize: 0x60 }
  - { offset: 0x94EEB, size: 0x8, addend: 0x0, symName: __ZNKSt3__16vectorIP4TH1FNS_9allocatorIS2_EEE20__throw_length_errorB8ne180100Ev, symObjAddr: 0x236F4, symBinAddr: 0x100027854, symSize: 0x1C }
  - { offset: 0x94F1C, size: 0x8, addend: 0x0, symName: __ZNSt3__116allocator_traitsINS_9allocatorIP4TH1FEEE8max_sizeB8ne180100IS4_vEEmRKS4_, symObjAddr: 0x23710, symBinAddr: 0x100027870, symSize: 0x24 }
  - { offset: 0x94F4A, size: 0x8, addend: 0x0, symName: __ZNKSt3__16vectorIP4TH1FNS_9allocatorIS2_EEE7__allocB8ne180100Ev, symObjAddr: 0x23734, symBinAddr: 0x100027894, symSize: 0x28 }
  - { offset: 0x94F70, size: 0x8, addend: 0x0, symName: __ZNKSt3__19allocatorIP4TH1FE8max_sizeB8ne180100Ev, symObjAddr: 0x2375C, symBinAddr: 0x1000278BC, symSize: 0x14 }
  - { offset: 0x94F96, size: 0x8, addend: 0x0, symName: __ZNKSt3__117__compressed_pairIPP4TH1FNS_9allocatorIS2_EEE6secondB8ne180100Ev, symObjAddr: 0x23770, symBinAddr: 0x1000278D0, symSize: 0x24 }
  - { offset: 0x94FBC, size: 0x8, addend: 0x0, symName: __ZNKSt3__122__compressed_pair_elemINS_9allocatorIP4TH1FEELi1ELb1EE5__getB8ne180100Ev, symObjAddr: 0x23794, symBinAddr: 0x1000278F4, symSize: 0x14 }
  - { offset: 0x94FE2, size: 0x8, addend: 0x0, symName: __ZNSt3__114__split_bufferIP4TH1FRNS_9allocatorIS2_EEEC2EmmS5_, symObjAddr: 0x237A8, symBinAddr: 0x100027908, symSize: 0xD4 }
  - { offset: 0x95056, size: 0x8, addend: 0x0, symName: __ZNSt3__117__compressed_pairIPP4TH1FRNS_9allocatorIS2_EEEC1B8ne180100IDnS6_EEOT_OT0_, symObjAddr: 0x2387C, symBinAddr: 0x1000279DC, symSize: 0x3C }
  - { offset: 0x950AE, size: 0x8, addend: 0x0, symName: __ZNSt3__114__split_bufferIP4TH1FRNS_9allocatorIS2_EEE7__allocB8ne180100Ev, symObjAddr: 0x238F8, symBinAddr: 0x100027A58, symSize: 0x28 }
  - { offset: 0x950D4, size: 0x8, addend: 0x0, symName: __ZNSt3__114__split_bufferIP4TH1FRNS_9allocatorIS2_EEE9__end_capB8ne180100Ev, symObjAddr: 0x23920, symBinAddr: 0x100027A80, symSize: 0x28 }
  - { offset: 0x950FA, size: 0x8, addend: 0x0, symName: __ZNSt3__117__compressed_pairIPP4TH1FRNS_9allocatorIS2_EEEC2B8ne180100IDnS6_EEOT_OT0_, symObjAddr: 0x23948, symBinAddr: 0x100027AA8, symSize: 0x48 }
  - { offset: 0x95152, size: 0x8, addend: 0x0, symName: __ZNSt3__122__compressed_pair_elemIRNS_9allocatorIP4TH1FEELi1ELb0EEC2B8ne180100IS5_vEEOT_, symObjAddr: 0x23990, symBinAddr: 0x100027AF0, symSize: 0x20 }
  - { offset: 0x95194, size: 0x8, addend: 0x0, symName: __ZNSt3__19allocatorIP4TH1FE8allocateB8ne180100Em, symObjAddr: 0x239B0, symBinAddr: 0x100027B10, symSize: 0x58 }
  - { offset: 0x951C8, size: 0x8, addend: 0x0, symName: __ZNSt3__117__compressed_pairIPP4TH1FRNS_9allocatorIS2_EEE6secondB8ne180100Ev, symObjAddr: 0x23A08, symBinAddr: 0x100027B68, symSize: 0x28 }
  - { offset: 0x951EE, size: 0x8, addend: 0x0, symName: __ZNSt3__122__compressed_pair_elemIRNS_9allocatorIP4TH1FEELi1ELb0EE5__getB8ne180100Ev, symObjAddr: 0x23A30, symBinAddr: 0x100027B90, symSize: 0x18 }
  - { offset: 0x95214, size: 0x8, addend: 0x0, symName: __ZNSt3__117__compressed_pairIPP4TH1FRNS_9allocatorIS2_EEE5firstB8ne180100Ev, symObjAddr: 0x23A48, symBinAddr: 0x100027BA8, symSize: 0x24 }
  - { offset: 0x9523A, size: 0x8, addend: 0x0, symName: __ZNSt3__116reverse_iteratorIPP4TH1FEC1B8ne180100ES3_, symObjAddr: 0x23AE4, symBinAddr: 0x100027C44, symSize: 0x34 }
  - { offset: 0x95272, size: 0x8, addend: 0x0, symName: __ZNKSt3__116reverse_iteratorIPP4TH1FE4baseB8ne180100Ev, symObjAddr: 0x23B18, symBinAddr: 0x100027C78, symSize: 0x18 }
  - { offset: 0x95298, size: 0x8, addend: 0x0, symName: __ZNKSt3__16vectorIP4TH1FNS_9allocatorIS2_EEE14__annotate_newB8ne180100Em, symObjAddr: 0x23B6C, symBinAddr: 0x100027CCC, symSize: 0x14 }
  - { offset: 0x952E9, size: 0x8, addend: 0x0, symName: __ZNKSt3__111__move_loopINS_17_ClassicAlgPolicyEEclB8ne180100INS_16reverse_iteratorIPP4TH1FEES8_S8_EENS_4pairIT_T1_EESA_T0_SB_, symObjAddr: 0x23E70, symBinAddr: 0x100027FD0, symSize: 0xA0 }
  - { offset: 0x9535A, size: 0x8, addend: 0x0, symName: __ZNSt3__18_IterOpsINS_17_ClassicAlgPolicyEE11__iter_moveB8ne180100IRNS_16reverse_iteratorIPP4TH1FEELi0EEEDTclsr3stdE4movedeclsr3stdE7declvalIRT_EEEEOSA_, symObjAddr: 0x240A4, symBinAddr: 0x100028204, symSize: 0x28 }
  - { offset: 0x9538C, size: 0x8, addend: 0x0, symName: __ZNKSt3__116reverse_iteratorIPP4TH1FEdeB8ne180100Ev, symObjAddr: 0x240CC, symBinAddr: 0x10002822C, symSize: 0x28 }
  - { offset: 0x953C0, size: 0x8, addend: 0x0, symName: __ZNSt3__116reverse_iteratorIPP4TH1FEppB8ne180100Ev, symObjAddr: 0x240F4, symBinAddr: 0x100028254, symSize: 0x20 }
  - { offset: 0x953E6, size: 0x8, addend: 0x0, symName: __ZNSt3__18_IterOpsINS_17_ClassicAlgPolicyEE25__validate_iter_referenceB8ne180100IRNS_16reverse_iteratorIPP4TH1FEEEEvv, symObjAddr: 0x24114, symBinAddr: 0x100028274, symSize: 0x4 }
  - { offset: 0x95404, size: 0x8, addend: 0x0, symName: __ZNSt3__118__unwrap_iter_implINS_16reverse_iteratorIPP4TH1FEELb0EE8__unwrapB8ne180100ES5_, symObjAddr: 0x24118, symBinAddr: 0x100028278, symSize: 0x24 }
  - { offset: 0x9542D, size: 0x8, addend: 0x0, symName: __ZNSt3__14pairINS_16reverse_iteratorIPP4TH1FEES5_EC1B8ne180100IS5_S5_Li0EEEOT_OT0_, symObjAddr: 0x2413C, symBinAddr: 0x10002829C, symSize: 0x3C }
  - { offset: 0x9548B, size: 0x8, addend: 0x0, symName: __ZNSt3__14pairINS_16reverse_iteratorIPP4TH1FEES5_EC2B8ne180100IS5_S5_Li0EEEOT_OT0_, symObjAddr: 0x24178, symBinAddr: 0x1000282D8, symSize: 0x34 }
  - { offset: 0x954E9, size: 0x8, addend: 0x0, symName: __ZNSt3__118__unwrap_iter_implINS_16reverse_iteratorIPP4TH1FEELb0EE8__rewrapB8ne180100ES5_S5_, symObjAddr: 0x241AC, symBinAddr: 0x10002830C, symSize: 0x2C }
  - { offset: 0x95517, size: 0x8, addend: 0x0, symName: __ZNSt3__116reverse_iteratorIPP4TH1FEC2B8ne180100ES3_, symObjAddr: 0x241D8, symBinAddr: 0x100028338, symSize: 0x28 }
  - { offset: 0x9554F, size: 0x8, addend: 0x0, symName: __ZNSt3__114__split_bufferIP4TH1FRNS_9allocatorIS2_EEED2Ev, symObjAddr: 0x24200, symBinAddr: 0x100028360, symSize: 0x8C }
  - { offset: 0x9557B, size: 0x8, addend: 0x0, symName: __ZNSt3__114__split_bufferIP4TH1FRNS_9allocatorIS2_EEE5clearB8ne180100Ev, symObjAddr: 0x2428C, symBinAddr: 0x1000283EC, symSize: 0x28 }
  - { offset: 0x955A1, size: 0x8, addend: 0x0, symName: __ZNKSt3__114__split_bufferIP4TH1FRNS_9allocatorIS2_EEE8capacityB8ne180100Ev, symObjAddr: 0x242B4, symBinAddr: 0x100028414, symSize: 0x40 }
  - { offset: 0x955C7, size: 0x8, addend: 0x0, symName: __ZNSt3__114__split_bufferIP4TH1FRNS_9allocatorIS2_EEE17__destruct_at_endB8ne180100EPS2_, symObjAddr: 0x242F4, symBinAddr: 0x100028454, symSize: 0x2C }
  - { offset: 0x955FB, size: 0x8, addend: 0x0, symName: __ZNSt3__114__split_bufferIP4TH1FRNS_9allocatorIS2_EEE17__destruct_at_endB8ne180100EPS2_NS_17integral_constantIbLb0EEE, symObjAddr: 0x24320, symBinAddr: 0x100028480, symSize: 0x80 }
  - { offset: 0x9563C, size: 0x8, addend: 0x0, symName: __ZNKSt3__114__split_bufferIP4TH1FRNS_9allocatorIS2_EEE9__end_capB8ne180100Ev, symObjAddr: 0x243A0, symBinAddr: 0x100028500, symSize: 0x28 }
  - { offset: 0x95662, size: 0x8, addend: 0x0, symName: __ZNKSt3__117__compressed_pairIPP4TH1FRNS_9allocatorIS2_EEE5firstB8ne180100Ev, symObjAddr: 0x243C8, symBinAddr: 0x100028528, symSize: 0x24 }
  - { offset: 0x95688, size: 0x8, addend: 0x0, symName: __ZNSt3__16vectorIP4TH2FNS_9allocatorIS2_EEE9__end_capB8ne180100Ev, symObjAddr: 0x243EC, symBinAddr: 0x10002854C, symSize: 0x28 }
  - { offset: 0x956B4, size: 0x8, addend: 0x0, symName: __ZNSt3__16vectorIP4TH2FNS_9allocatorIS2_EEE22__construct_one_at_endB8ne180100IJS2_EEEvDpOT_, symObjAddr: 0x24414, symBinAddr: 0x100028574, symSize: 0x90 }
  - { offset: 0x95703, size: 0x8, addend: 0x0, symName: __ZNSt3__16vectorIP4TH2FNS_9allocatorIS2_EEE21__push_back_slow_pathIS2_EEPS2_OT_, symObjAddr: 0x244A4, symBinAddr: 0x100028604, symSize: 0xE8 }
  - { offset: 0x95761, size: 0x8, addend: 0x0, symName: __ZNSt3__117__compressed_pairIPP4TH2FNS_9allocatorIS2_EEE5firstB8ne180100Ev, symObjAddr: 0x2458C, symBinAddr: 0x1000286EC, symSize: 0x24 }
  - { offset: 0x95787, size: 0x8, addend: 0x0, symName: __ZNSt3__122__compressed_pair_elemIPP4TH2FLi0ELb0EE5__getB8ne180100Ev, symObjAddr: 0x245B0, symBinAddr: 0x100028710, symSize: 0x14 }
  - { offset: 0x957C8, size: 0x8, addend: 0x0, symName: __ZNSt3__16vectorIP4TH2FNS_9allocatorIS2_EEE21_ConstructTransactionC1B8ne180100ERS5_m, symObjAddr: 0x245C4, symBinAddr: 0x100028724, symSize: 0x3C }
  - { offset: 0x95810, size: 0x8, addend: 0x0, symName: __ZNSt3__116allocator_traitsINS_9allocatorIP4TH2FEEE9constructB8ne180100IS3_JS3_EvEEvRS4_PT_DpOT0_, symObjAddr: 0x24600, symBinAddr: 0x100028760, symSize: 0x34 }
  - { offset: 0x95867, size: 0x8, addend: 0x0, symName: __ZNSt3__16vectorIP4TH2FNS_9allocatorIS2_EEE21_ConstructTransactionD1B8ne180100Ev, symObjAddr: 0x24634, symBinAddr: 0x100028794, symSize: 0x2C }
  - { offset: 0x95891, size: 0x8, addend: 0x0, symName: __ZNSt3__16vectorIP4TH2FNS_9allocatorIS2_EEE21_ConstructTransactionC2B8ne180100ERS5_m, symObjAddr: 0x24660, symBinAddr: 0x1000287C0, symSize: 0x44 }
  - { offset: 0x958D9, size: 0x8, addend: 0x0, symName: __ZNSt3__19allocatorIP4TH2FE9constructB8ne180100IS2_JS2_EEEvPT_DpOT0_, symObjAddr: 0x246A4, symBinAddr: 0x100028804, symSize: 0x28 }
  - { offset: 0x9592F, size: 0x8, addend: 0x0, symName: __ZNSt3__16vectorIP4TH2FNS_9allocatorIS2_EEE21_ConstructTransactionD2B8ne180100Ev, symObjAddr: 0x246CC, symBinAddr: 0x10002882C, symSize: 0x20 }
  - { offset: 0x95959, size: 0x8, addend: 0x0, symName: __ZNKSt3__16vectorIP4TH2FNS_9allocatorIS2_EEE11__recommendB8ne180100Em, symObjAddr: 0x246EC, symBinAddr: 0x10002884C, symSize: 0xB4 }
  - { offset: 0x959AE, size: 0x8, addend: 0x0, symName: __ZNSt3__114__split_bufferIP4TH2FRNS_9allocatorIS2_EEEC1EmmS5_, symObjAddr: 0x247A0, symBinAddr: 0x100028900, symSize: 0x44 }
  - { offset: 0x95A04, size: 0x8, addend: 0x0, symName: __ZNSt3__114__split_bufferIP4TH2FRNS_9allocatorIS2_EEED1Ev, symObjAddr: 0x248F4, symBinAddr: 0x100028A54, symSize: 0x2C }
  - { offset: 0x95A30, size: 0x8, addend: 0x0, symName: __ZNKSt3__16vectorIP4TH2FNS_9allocatorIS2_EEE8max_sizeEv, symObjAddr: 0x24920, symBinAddr: 0x100028A80, symSize: 0x60 }
  - { offset: 0x95A58, size: 0x8, addend: 0x0, symName: __ZNKSt3__16vectorIP4TH2FNS_9allocatorIS2_EEE20__throw_length_errorB8ne180100Ev, symObjAddr: 0x24980, symBinAddr: 0x100028AE0, symSize: 0x1C }
  - { offset: 0x95A89, size: 0x8, addend: 0x0, symName: __ZNSt3__116allocator_traitsINS_9allocatorIP4TH2FEEE8max_sizeB8ne180100IS4_vEEmRKS4_, symObjAddr: 0x2499C, symBinAddr: 0x100028AFC, symSize: 0x24 }
  - { offset: 0x95AB7, size: 0x8, addend: 0x0, symName: __ZNKSt3__16vectorIP4TH2FNS_9allocatorIS2_EEE7__allocB8ne180100Ev, symObjAddr: 0x249C0, symBinAddr: 0x100028B20, symSize: 0x28 }
  - { offset: 0x95ADD, size: 0x8, addend: 0x0, symName: __ZNKSt3__19allocatorIP4TH2FE8max_sizeB8ne180100Ev, symObjAddr: 0x249E8, symBinAddr: 0x100028B48, symSize: 0x14 }
  - { offset: 0x95B03, size: 0x8, addend: 0x0, symName: __ZNKSt3__117__compressed_pairIPP4TH2FNS_9allocatorIS2_EEE6secondB8ne180100Ev, symObjAddr: 0x249FC, symBinAddr: 0x100028B5C, symSize: 0x24 }
  - { offset: 0x95B29, size: 0x8, addend: 0x0, symName: __ZNKSt3__122__compressed_pair_elemINS_9allocatorIP4TH2FEELi1ELb1EE5__getB8ne180100Ev, symObjAddr: 0x24A20, symBinAddr: 0x100028B80, symSize: 0x14 }
  - { offset: 0x95B4F, size: 0x8, addend: 0x0, symName: __ZNSt3__114__split_bufferIP4TH2FRNS_9allocatorIS2_EEEC2EmmS5_, symObjAddr: 0x24A34, symBinAddr: 0x100028B94, symSize: 0xD4 }
  - { offset: 0x95BC3, size: 0x8, addend: 0x0, symName: __ZNSt3__117__compressed_pairIPP4TH2FRNS_9allocatorIS2_EEEC1B8ne180100IDnS6_EEOT_OT0_, symObjAddr: 0x24B08, symBinAddr: 0x100028C68, symSize: 0x3C }
  - { offset: 0x95C1B, size: 0x8, addend: 0x0, symName: __ZNSt3__114__split_bufferIP4TH2FRNS_9allocatorIS2_EEE7__allocB8ne180100Ev, symObjAddr: 0x24B84, symBinAddr: 0x100028CE4, symSize: 0x28 }
  - { offset: 0x95C41, size: 0x8, addend: 0x0, symName: __ZNSt3__114__split_bufferIP4TH2FRNS_9allocatorIS2_EEE9__end_capB8ne180100Ev, symObjAddr: 0x24BAC, symBinAddr: 0x100028D0C, symSize: 0x28 }
  - { offset: 0x95C67, size: 0x8, addend: 0x0, symName: __ZNSt3__117__compressed_pairIPP4TH2FRNS_9allocatorIS2_EEEC2B8ne180100IDnS6_EEOT_OT0_, symObjAddr: 0x24BD4, symBinAddr: 0x100028D34, symSize: 0x48 }
  - { offset: 0x95CBF, size: 0x8, addend: 0x0, symName: __ZNSt3__122__compressed_pair_elemIRNS_9allocatorIP4TH2FEELi1ELb0EEC2B8ne180100IS5_vEEOT_, symObjAddr: 0x24C1C, symBinAddr: 0x100028D7C, symSize: 0x20 }
  - { offset: 0x95D01, size: 0x8, addend: 0x0, symName: __ZNSt3__19allocatorIP4TH2FE8allocateB8ne180100Em, symObjAddr: 0x24C3C, symBinAddr: 0x100028D9C, symSize: 0x58 }
  - { offset: 0x95D35, size: 0x8, addend: 0x0, symName: __ZNSt3__117__compressed_pairIPP4TH2FRNS_9allocatorIS2_EEE6secondB8ne180100Ev, symObjAddr: 0x24C94, symBinAddr: 0x100028DF4, symSize: 0x28 }
  - { offset: 0x95D5B, size: 0x8, addend: 0x0, symName: __ZNSt3__122__compressed_pair_elemIRNS_9allocatorIP4TH2FEELi1ELb0EE5__getB8ne180100Ev, symObjAddr: 0x24CBC, symBinAddr: 0x100028E1C, symSize: 0x18 }
  - { offset: 0x95D81, size: 0x8, addend: 0x0, symName: __ZNSt3__117__compressed_pairIPP4TH2FRNS_9allocatorIS2_EEE5firstB8ne180100Ev, symObjAddr: 0x24CD4, symBinAddr: 0x100028E34, symSize: 0x24 }
  - { offset: 0x95DA7, size: 0x8, addend: 0x0, symName: __ZNSt3__116reverse_iteratorIPP4TH2FEC1B8ne180100ES3_, symObjAddr: 0x24D70, symBinAddr: 0x100028ED0, symSize: 0x34 }
  - { offset: 0x95DDF, size: 0x8, addend: 0x0, symName: __ZNKSt3__116reverse_iteratorIPP4TH2FE4baseB8ne180100Ev, symObjAddr: 0x24DA4, symBinAddr: 0x100028F04, symSize: 0x18 }
  - { offset: 0x95E05, size: 0x8, addend: 0x0, symName: __ZNKSt3__16vectorIP4TH2FNS_9allocatorIS2_EEE14__annotate_newB8ne180100Em, symObjAddr: 0x24DF8, symBinAddr: 0x100028F58, symSize: 0x14 }
  - { offset: 0x95E56, size: 0x8, addend: 0x0, symName: __ZNKSt3__111__move_loopINS_17_ClassicAlgPolicyEEclB8ne180100INS_16reverse_iteratorIPP4TH2FEES8_S8_EENS_4pairIT_T1_EESA_T0_SB_, symObjAddr: 0x250FC, symBinAddr: 0x10002925C, symSize: 0xA0 }
  - { offset: 0x95EC7, size: 0x8, addend: 0x0, symName: __ZNSt3__18_IterOpsINS_17_ClassicAlgPolicyEE11__iter_moveB8ne180100IRNS_16reverse_iteratorIPP4TH2FEELi0EEEDTclsr3stdE4movedeclsr3stdE7declvalIRT_EEEEOSA_, symObjAddr: 0x25330, symBinAddr: 0x100029490, symSize: 0x28 }
  - { offset: 0x95EF9, size: 0x8, addend: 0x0, symName: __ZNKSt3__116reverse_iteratorIPP4TH2FEdeB8ne180100Ev, symObjAddr: 0x25358, symBinAddr: 0x1000294B8, symSize: 0x28 }
  - { offset: 0x95F2D, size: 0x8, addend: 0x0, symName: __ZNSt3__116reverse_iteratorIPP4TH2FEppB8ne180100Ev, symObjAddr: 0x25380, symBinAddr: 0x1000294E0, symSize: 0x20 }
  - { offset: 0x95F53, size: 0x8, addend: 0x0, symName: __ZNSt3__18_IterOpsINS_17_ClassicAlgPolicyEE25__validate_iter_referenceB8ne180100IRNS_16reverse_iteratorIPP4TH2FEEEEvv, symObjAddr: 0x253A0, symBinAddr: 0x100029500, symSize: 0x4 }
  - { offset: 0x95F71, size: 0x8, addend: 0x0, symName: __ZNSt3__118__unwrap_iter_implINS_16reverse_iteratorIPP4TH2FEELb0EE8__unwrapB8ne180100ES5_, symObjAddr: 0x253A4, symBinAddr: 0x100029504, symSize: 0x24 }
  - { offset: 0x95F9A, size: 0x8, addend: 0x0, symName: __ZNSt3__14pairINS_16reverse_iteratorIPP4TH2FEES5_EC1B8ne180100IS5_S5_Li0EEEOT_OT0_, symObjAddr: 0x253C8, symBinAddr: 0x100029528, symSize: 0x3C }
  - { offset: 0x95FF8, size: 0x8, addend: 0x0, symName: __ZNSt3__14pairINS_16reverse_iteratorIPP4TH2FEES5_EC2B8ne180100IS5_S5_Li0EEEOT_OT0_, symObjAddr: 0x25404, symBinAddr: 0x100029564, symSize: 0x34 }
  - { offset: 0x96056, size: 0x8, addend: 0x0, symName: __ZNSt3__118__unwrap_iter_implINS_16reverse_iteratorIPP4TH2FEELb0EE8__rewrapB8ne180100ES5_S5_, symObjAddr: 0x25438, symBinAddr: 0x100029598, symSize: 0x2C }
  - { offset: 0x96084, size: 0x8, addend: 0x0, symName: __ZNSt3__116reverse_iteratorIPP4TH2FEC2B8ne180100ES3_, symObjAddr: 0x25464, symBinAddr: 0x1000295C4, symSize: 0x28 }
  - { offset: 0x960BC, size: 0x8, addend: 0x0, symName: __ZNSt3__114__split_bufferIP4TH2FRNS_9allocatorIS2_EEED2Ev, symObjAddr: 0x2548C, symBinAddr: 0x1000295EC, symSize: 0x8C }
  - { offset: 0x960E8, size: 0x8, addend: 0x0, symName: __ZNSt3__114__split_bufferIP4TH2FRNS_9allocatorIS2_EEE5clearB8ne180100Ev, symObjAddr: 0x25518, symBinAddr: 0x100029678, symSize: 0x28 }
  - { offset: 0x9610E, size: 0x8, addend: 0x0, symName: __ZNKSt3__114__split_bufferIP4TH2FRNS_9allocatorIS2_EEE8capacityB8ne180100Ev, symObjAddr: 0x25540, symBinAddr: 0x1000296A0, symSize: 0x40 }
  - { offset: 0x96134, size: 0x8, addend: 0x0, symName: __ZNSt3__114__split_bufferIP4TH2FRNS_9allocatorIS2_EEE17__destruct_at_endB8ne180100EPS2_, symObjAddr: 0x25580, symBinAddr: 0x1000296E0, symSize: 0x2C }
  - { offset: 0x96168, size: 0x8, addend: 0x0, symName: __ZNSt3__114__split_bufferIP4TH2FRNS_9allocatorIS2_EEE17__destruct_at_endB8ne180100EPS2_NS_17integral_constantIbLb0EEE, symObjAddr: 0x255AC, symBinAddr: 0x10002970C, symSize: 0x80 }
  - { offset: 0x961A9, size: 0x8, addend: 0x0, symName: __ZNKSt3__114__split_bufferIP4TH2FRNS_9allocatorIS2_EEE9__end_capB8ne180100Ev, symObjAddr: 0x2562C, symBinAddr: 0x10002978C, symSize: 0x28 }
  - { offset: 0x961CF, size: 0x8, addend: 0x0, symName: __ZNKSt3__117__compressed_pairIPP4TH2FRNS_9allocatorIS2_EEE5firstB8ne180100Ev, symObjAddr: 0x25654, symBinAddr: 0x1000297B4, symSize: 0x24 }
  - { offset: 0x961F5, size: 0x8, addend: 0x0, symName: __ZNSt3__16vectorINS0_IP4TH2FNS_9allocatorIS2_EEEENS3_IS5_EEE9__end_capB8ne180100Ev, symObjAddr: 0x25678, symBinAddr: 0x1000297D8, symSize: 0x28 }
  - { offset: 0x9621B, size: 0x8, addend: 0x0, symName: __ZNSt3__16vectorINS0_IP4TH2FNS_9allocatorIS2_EEEENS3_IS5_EEE22__construct_one_at_endB8ne180100IJRKS5_EEEvDpOT_, symObjAddr: 0x256A0, symBinAddr: 0x100029800, symSize: 0x90 }
  - { offset: 0x9626A, size: 0x8, addend: 0x0, symName: __ZNSt3__16vectorINS0_IP4TH2FNS_9allocatorIS2_EEEENS3_IS5_EEE21__push_back_slow_pathIRKS5_EEPS5_OT_, symObjAddr: 0x25730, symBinAddr: 0x100029890, symSize: 0xE8 }
  - { offset: 0x962C8, size: 0x8, addend: 0x0, symName: __ZNSt3__117__compressed_pairIPNS_6vectorIP4TH2FNS_9allocatorIS3_EEEENS4_IS6_EEE5firstB8ne180100Ev, symObjAddr: 0x25818, symBinAddr: 0x100029978, symSize: 0x24 }
  - { offset: 0x962EE, size: 0x8, addend: 0x0, symName: __ZNSt3__122__compressed_pair_elemIPNS_6vectorIP4TH2FNS_9allocatorIS3_EEEELi0ELb0EE5__getB8ne180100Ev, symObjAddr: 0x2583C, symBinAddr: 0x10002999C, symSize: 0x14 }
  - { offset: 0x9632F, size: 0x8, addend: 0x0, symName: __ZNSt3__16vectorINS0_IP4TH2FNS_9allocatorIS2_EEEENS3_IS5_EEE21_ConstructTransactionC1B8ne180100ERS7_m, symObjAddr: 0x25850, symBinAddr: 0x1000299B0, symSize: 0x3C }
  - { offset: 0x96377, size: 0x8, addend: 0x0, symName: __ZNSt3__116allocator_traitsINS_9allocatorINS_6vectorIP4TH2FNS1_IS4_EEEEEEE9constructB8ne180100IS6_JRKS6_EvEEvRS7_PT_DpOT0_, symObjAddr: 0x2588C, symBinAddr: 0x1000299EC, symSize: 0x34 }
  - { offset: 0x963CE, size: 0x8, addend: 0x0, symName: __ZNSt3__16vectorINS0_IP4TH2FNS_9allocatorIS2_EEEENS3_IS5_EEE21_ConstructTransactionD1B8ne180100Ev, symObjAddr: 0x258C0, symBinAddr: 0x100029A20, symSize: 0x2C }
  - { offset: 0x963F8, size: 0x8, addend: 0x0, symName: __ZNSt3__16vectorINS0_IP4TH2FNS_9allocatorIS2_EEEENS3_IS5_EEE21_ConstructTransactionC2B8ne180100ERS7_m, symObjAddr: 0x258EC, symBinAddr: 0x100029A4C, symSize: 0x4C }
  - { offset: 0x96440, size: 0x8, addend: 0x0, symName: __ZNSt3__19allocatorINS_6vectorIP4TH2FNS0_IS3_EEEEE9constructB8ne180100IS5_JRKS5_EEEvPT_DpOT0_, symObjAddr: 0x25938, symBinAddr: 0x100029A98, symSize: 0x30 }
  - { offset: 0x96496, size: 0x8, addend: 0x0, symName: __ZNSt3__16vectorIP4TH2FNS_9allocatorIS2_EEEC1ERKS5_, symObjAddr: 0x25968, symBinAddr: 0x100029AC8, symSize: 0x34 }
  - { offset: 0x964D1, size: 0x8, addend: 0x0, symName: __ZNSt3__16vectorIP4TH2FNS_9allocatorIS2_EEEC2ERKS5_, symObjAddr: 0x2599C, symBinAddr: 0x100029AFC, symSize: 0x94 }
  - { offset: 0x9650C, size: 0x8, addend: 0x0, symName: __ZNSt3__116allocator_traitsINS_9allocatorIP4TH2FEEE37select_on_container_copy_constructionB8ne180100IS4_vvEES4_RKS4_, symObjAddr: 0x25A30, symBinAddr: 0x100029B90, symSize: 0x10 }
  - { offset: 0x96541, size: 0x8, addend: 0x0, symName: __ZNSt3__117__compressed_pairIPP4TH2FNS_9allocatorIS2_EEEC1B8ne180100IDnS5_EEOT_OT0_, symObjAddr: 0x25A40, symBinAddr: 0x100029BA0, symSize: 0x3C }
  - { offset: 0x96599, size: 0x8, addend: 0x0, symName: __ZNSt3__16vectorIP4TH2FNS_9allocatorIS2_EEE16__init_with_sizeB8ne180100IPS2_S7_EEvT_T0_m, symObjAddr: 0x25A7C, symBinAddr: 0x100029BDC, symSize: 0xB8 }
  - { offset: 0x9660D, size: 0x8, addend: 0x0, symName: __ZNSt3__117__compressed_pairIPP4TH2FNS_9allocatorIS2_EEEC2B8ne180100IDnS5_EEOT_OT0_, symObjAddr: 0x25B34, symBinAddr: 0x100029C94, symSize: 0x44 }
  - { offset: 0x96665, size: 0x8, addend: 0x0, symName: __ZNSt3__122__compressed_pair_elemINS_9allocatorIP4TH2FEELi1ELb1EEC2B8ne180100IS4_vEEOT_, symObjAddr: 0x25B78, symBinAddr: 0x100029CD8, symSize: 0x18 }
  - { offset: 0x966A7, size: 0x8, addend: 0x0, symName: __ZNSt3__16vectorIP4TH2FNS_9allocatorIS2_EEE11__vallocateB8ne180100Em, symObjAddr: 0x25BD0, symBinAddr: 0x100029D30, symSize: 0xAC }
  - { offset: 0x966EB, size: 0x8, addend: 0x0, symName: __ZNSt3__16vectorIP4TH2FNS_9allocatorIS2_EEE18__construct_at_endIPS2_S7_EEvT_T0_m, symObjAddr: 0x25C7C, symBinAddr: 0x100029DDC, symSize: 0x8C }
  - { offset: 0x96761, size: 0x8, addend: 0x0, symName: __ZNSt3__128__exception_guard_exceptionsINS_6vectorIP4TH2FNS_9allocatorIS3_EEE16__destroy_vectorEE10__completeB8ne180100Ev, symObjAddr: 0x25D08, symBinAddr: 0x100029E68, symSize: 0x1C }
  - { offset: 0x96787, size: 0x8, addend: 0x0, symName: __ZNSt3__128__exception_guard_exceptionsINS_6vectorIP4TH2FNS_9allocatorIS3_EEE16__destroy_vectorEED1B8ne180100Ev, symObjAddr: 0x25D24, symBinAddr: 0x100029E84, symSize: 0x2C }
  - { offset: 0x967B1, size: 0x8, addend: 0x0, symName: __ZNSt3__128__exception_guard_exceptionsINS_6vectorIP4TH2FNS_9allocatorIS3_EEE16__destroy_vectorEEC1B8ne180100ES7_, symObjAddr: 0x25D50, symBinAddr: 0x100029EB0, symSize: 0x34 }
  - { offset: 0x967E9, size: 0x8, addend: 0x0, symName: __ZNSt3__128__exception_guard_exceptionsINS_6vectorIP4TH2FNS_9allocatorIS3_EEE16__destroy_vectorEEC2B8ne180100ES7_, symObjAddr: 0x25D84, symBinAddr: 0x100029EE4, symSize: 0x24 }
  - { offset: 0x96843, size: 0x8, addend: 0x0, symName: __ZNSt3__14pairIPP4TH2FS3_EC1B8ne180100IS3_S3_Li0EEEOT_OT0_, symObjAddr: 0x25F58, symBinAddr: 0x10002A0B8, symSize: 0x3C }
  - { offset: 0x968A1, size: 0x8, addend: 0x0, symName: __ZNSt3__14pairIPP4TH2FS3_EC2B8ne180100IS3_S3_Li0EEEOT_OT0_, symObjAddr: 0x25F94, symBinAddr: 0x10002A0F4, symSize: 0x34 }
  - { offset: 0x968FF, size: 0x8, addend: 0x0, symName: __ZNKSt3__114__copy_trivialclB8ne180100IP4TH2FS3_Li0EEENS_4pairIPT_PT0_EES6_S6_S8_, symObjAddr: 0x26144, symBinAddr: 0x10002A2A4, symSize: 0x48 }
  - { offset: 0x96967, size: 0x8, addend: 0x0, symName: __ZNSt3__14pairIPP4TH2FS3_EC1B8ne180100IRS3_S3_Li0EEEOT_OT0_, symObjAddr: 0x262D4, symBinAddr: 0x10002A434, symSize: 0x3C }
  - { offset: 0x969C5, size: 0x8, addend: 0x0, symName: __ZNSt3__14pairIPP4TH2FS3_EC2B8ne180100IRS3_S3_Li0EEEOT_OT0_, symObjAddr: 0x26310, symBinAddr: 0x10002A470, symSize: 0x34 }
  - { offset: 0x96A23, size: 0x8, addend: 0x0, symName: __ZNSt3__118__unwrap_iter_implIPP4TH2FLb1EE8__unwrapB8ne180100ES3_, symObjAddr: 0x26344, symBinAddr: 0x10002A4A4, symSize: 0x24 }
  - { offset: 0x96A46, size: 0x8, addend: 0x0, symName: __ZNSt3__118__unwrap_iter_implIPP4TH2FLb1EE8__rewrapB8ne180100ES3_S3_, symObjAddr: 0x26368, symBinAddr: 0x10002A4C8, symSize: 0x50 }
  - { offset: 0x96A77, size: 0x8, addend: 0x0, symName: __ZNSt3__128__exception_guard_exceptionsINS_6vectorIP4TH2FNS_9allocatorIS3_EEE16__destroy_vectorEED2B8ne180100Ev, symObjAddr: 0x263B8, symBinAddr: 0x10002A518, symSize: 0x48 }
  - { offset: 0x96AA1, size: 0x8, addend: 0x0, symName: __ZNSt3__16vectorINS0_IP4TH2FNS_9allocatorIS2_EEEENS3_IS5_EEE21_ConstructTransactionD2B8ne180100Ev, symObjAddr: 0x26400, symBinAddr: 0x10002A560, symSize: 0x20 }
  - { offset: 0x96ACB, size: 0x8, addend: 0x0, symName: __ZNKSt3__16vectorINS0_IP4TH2FNS_9allocatorIS2_EEEENS3_IS5_EEE11__recommendB8ne180100Em, symObjAddr: 0x26420, symBinAddr: 0x10002A580, symSize: 0xB4 }
  - { offset: 0x96B20, size: 0x8, addend: 0x0, symName: __ZNSt3__114__split_bufferINS_6vectorIP4TH2FNS_9allocatorIS3_EEEERNS4_IS6_EEEC1EmmS8_, symObjAddr: 0x264D4, symBinAddr: 0x10002A634, symSize: 0x44 }
  - { offset: 0x96B76, size: 0x8, addend: 0x0, symName: __ZNSt3__114__split_bufferINS_6vectorIP4TH2FNS_9allocatorIS3_EEEERNS4_IS6_EEED1Ev, symObjAddr: 0x26628, symBinAddr: 0x10002A788, symSize: 0x2C }
  - { offset: 0x96BA2, size: 0x8, addend: 0x0, symName: __ZNKSt3__16vectorINS0_IP4TH2FNS_9allocatorIS2_EEEENS3_IS5_EEE8max_sizeEv, symObjAddr: 0x26654, symBinAddr: 0x10002A7B4, symSize: 0x60 }
  - { offset: 0x96BCA, size: 0x8, addend: 0x0, symName: __ZNKSt3__16vectorINS0_IP4TH2FNS_9allocatorIS2_EEEENS3_IS5_EEE20__throw_length_errorB8ne180100Ev, symObjAddr: 0x266B4, symBinAddr: 0x10002A814, symSize: 0x1C }
  - { offset: 0x96BFB, size: 0x8, addend: 0x0, symName: __ZNSt3__116allocator_traitsINS_9allocatorINS_6vectorIP4TH2FNS1_IS4_EEEEEEE8max_sizeB8ne180100IS7_vEEmRKS7_, symObjAddr: 0x266D0, symBinAddr: 0x10002A830, symSize: 0x24 }
  - { offset: 0x96C29, size: 0x8, addend: 0x0, symName: __ZNKSt3__16vectorINS0_IP4TH2FNS_9allocatorIS2_EEEENS3_IS5_EEE7__allocB8ne180100Ev, symObjAddr: 0x266F4, symBinAddr: 0x10002A854, symSize: 0x28 }
  - { offset: 0x96C4F, size: 0x8, addend: 0x0, symName: __ZNKSt3__19allocatorINS_6vectorIP4TH2FNS0_IS3_EEEEE8max_sizeB8ne180100Ev, symObjAddr: 0x2671C, symBinAddr: 0x10002A87C, symSize: 0x18 }
  - { offset: 0x96C75, size: 0x8, addend: 0x0, symName: __ZNKSt3__117__compressed_pairIPNS_6vectorIP4TH2FNS_9allocatorIS3_EEEENS4_IS6_EEE6secondB8ne180100Ev, symObjAddr: 0x26734, symBinAddr: 0x10002A894, symSize: 0x24 }
  - { offset: 0x96C9B, size: 0x8, addend: 0x0, symName: __ZNKSt3__122__compressed_pair_elemINS_9allocatorINS_6vectorIP4TH2FNS1_IS4_EEEEEELi1ELb1EE5__getB8ne180100Ev, symObjAddr: 0x26758, symBinAddr: 0x10002A8B8, symSize: 0x14 }
  - { offset: 0x96CC1, size: 0x8, addend: 0x0, symName: __ZNSt3__114__split_bufferINS_6vectorIP4TH2FNS_9allocatorIS3_EEEERNS4_IS6_EEEC2EmmS8_, symObjAddr: 0x2676C, symBinAddr: 0x10002A8CC, symSize: 0xE0 }
  - { offset: 0x96D35, size: 0x8, addend: 0x0, symName: __ZNSt3__117__compressed_pairIPNS_6vectorIP4TH2FNS_9allocatorIS3_EEEERNS4_IS6_EEEC1B8ne180100IDnS9_EEOT_OT0_, symObjAddr: 0x2684C, symBinAddr: 0x10002A9AC, symSize: 0x3C }
  - { offset: 0x96D8D, size: 0x8, addend: 0x0, symName: __ZNSt3__114__split_bufferINS_6vectorIP4TH2FNS_9allocatorIS3_EEEERNS4_IS6_EEE7__allocB8ne180100Ev, symObjAddr: 0x268C8, symBinAddr: 0x10002AA28, symSize: 0x28 }
  - { offset: 0x96DB3, size: 0x8, addend: 0x0, symName: __ZNSt3__114__split_bufferINS_6vectorIP4TH2FNS_9allocatorIS3_EEEERNS4_IS6_EEE9__end_capB8ne180100Ev, symObjAddr: 0x268F0, symBinAddr: 0x10002AA50, symSize: 0x28 }
  - { offset: 0x96DD9, size: 0x8, addend: 0x0, symName: __ZNSt3__117__compressed_pairIPNS_6vectorIP4TH2FNS_9allocatorIS3_EEEERNS4_IS6_EEEC2B8ne180100IDnS9_EEOT_OT0_, symObjAddr: 0x26918, symBinAddr: 0x10002AA78, symSize: 0x48 }
  - { offset: 0x96E31, size: 0x8, addend: 0x0, symName: __ZNSt3__122__compressed_pair_elemIRNS_9allocatorINS_6vectorIP4TH2FNS1_IS4_EEEEEELi1ELb0EEC2B8ne180100IS8_vEEOT_, symObjAddr: 0x26960, symBinAddr: 0x10002AAC0, symSize: 0x20 }
  - { offset: 0x96E73, size: 0x8, addend: 0x0, symName: __ZNSt3__19allocatorINS_6vectorIP4TH2FNS0_IS3_EEEEE8allocateB8ne180100Em, symObjAddr: 0x26980, symBinAddr: 0x10002AAE0, symSize: 0x5C }
  - { offset: 0x96EA7, size: 0x8, addend: 0x0, symName: __ZNSt3__117__compressed_pairIPNS_6vectorIP4TH2FNS_9allocatorIS3_EEEERNS4_IS6_EEE6secondB8ne180100Ev, symObjAddr: 0x269DC, symBinAddr: 0x10002AB3C, symSize: 0x28 }
  - { offset: 0x96ECD, size: 0x8, addend: 0x0, symName: __ZNSt3__122__compressed_pair_elemIRNS_9allocatorINS_6vectorIP4TH2FNS1_IS4_EEEEEELi1ELb0EE5__getB8ne180100Ev, symObjAddr: 0x26A04, symBinAddr: 0x10002AB64, symSize: 0x18 }
  - { offset: 0x96EF3, size: 0x8, addend: 0x0, symName: __ZNSt3__117__compressed_pairIPNS_6vectorIP4TH2FNS_9allocatorIS3_EEEERNS4_IS6_EEE5firstB8ne180100Ev, symObjAddr: 0x26A1C, symBinAddr: 0x10002AB7C, symSize: 0x24 }
  - { offset: 0x96F19, size: 0x8, addend: 0x0, symName: __ZNSt3__116reverse_iteratorIPNS_6vectorIP4TH2FNS_9allocatorIS3_EEEEEC1B8ne180100ES7_, symObjAddr: 0x26B6C, symBinAddr: 0x10002ACCC, symSize: 0x34 }
  - { offset: 0x96F51, size: 0x8, addend: 0x0, symName: __ZNKSt3__116reverse_iteratorIPNS_6vectorIP4TH2FNS_9allocatorIS3_EEEEE4baseB8ne180100Ev, symObjAddr: 0x26BA0, symBinAddr: 0x10002AD00, symSize: 0x18 }
  - { offset: 0x96F77, size: 0x8, addend: 0x0, symName: __ZNKSt3__16vectorINS0_IP4TH2FNS_9allocatorIS2_EEEENS3_IS5_EEE14__annotate_newB8ne180100Em, symObjAddr: 0x26BF4, symBinAddr: 0x10002AD54, symSize: 0x14 }
  - { offset: 0x96FAC, size: 0x8, addend: 0x0, symName: __ZNSt3__129_AllocatorDestroyRangeReverseINS_9allocatorINS_6vectorIP4TH2FNS1_IS4_EEEEEENS_16reverse_iteratorIPS6_EEEC1B8ne180100ERS7_RSA_SD_, symObjAddr: 0x26C54, symBinAddr: 0x10002ADB4, symSize: 0x44 }
  - { offset: 0x97003, size: 0x8, addend: 0x0, symName: __ZNSt3__116allocator_traitsINS_9allocatorINS_6vectorIP4TH2FNS1_IS4_EEEEEEE9constructB8ne180100IS6_JS6_EvEEvRS7_PT_DpOT0_, symObjAddr: 0x26CE0, symBinAddr: 0x10002AE40, symSize: 0x34 }
  - { offset: 0x9705A, size: 0x8, addend: 0x0, symName: __ZNKSt3__116reverse_iteratorIPNS_6vectorIP4TH2FNS_9allocatorIS3_EEEEEdeB8ne180100Ev, symObjAddr: 0x26D38, symBinAddr: 0x10002AE98, symSize: 0x28 }
  - { offset: 0x9708E, size: 0x8, addend: 0x0, symName: __ZNSt3__116reverse_iteratorIPNS_6vectorIP4TH2FNS_9allocatorIS3_EEEEEppB8ne180100Ev, symObjAddr: 0x26D60, symBinAddr: 0x10002AEC0, symSize: 0x20 }
  - { offset: 0x970B4, size: 0x8, addend: 0x0, symName: __ZNSt3__128__exception_guard_exceptionsINS_29_AllocatorDestroyRangeReverseINS_9allocatorINS_6vectorIP4TH2FNS2_IS5_EEEEEENS_16reverse_iteratorIPS7_EEEEE10__completeB8ne180100Ev, symObjAddr: 0x26D80, symBinAddr: 0x10002AEE0, symSize: 0x1C }
  - { offset: 0x970DA, size: 0x8, addend: 0x0, symName: __ZNSt3__128__exception_guard_exceptionsINS_29_AllocatorDestroyRangeReverseINS_9allocatorINS_6vectorIP4TH2FNS2_IS5_EEEEEENS_16reverse_iteratorIPS7_EEEEED1B8ne180100Ev, symObjAddr: 0x26D9C, symBinAddr: 0x10002AEFC, symSize: 0x2C }
  - { offset: 0x97104, size: 0x8, addend: 0x0, symName: __ZNSt3__128__exception_guard_exceptionsINS_29_AllocatorDestroyRangeReverseINS_9allocatorINS_6vectorIP4TH2FNS2_IS5_EEEEEENS_16reverse_iteratorIPS7_EEEEEC1B8ne180100ESC_, symObjAddr: 0x26DC8, symBinAddr: 0x10002AF28, symSize: 0x34 }
  - { offset: 0x9713D, size: 0x8, addend: 0x0, symName: __ZNSt3__128__exception_guard_exceptionsINS_29_AllocatorDestroyRangeReverseINS_9allocatorINS_6vectorIP4TH2FNS2_IS5_EEEEEENS_16reverse_iteratorIPS7_EEEEEC2B8ne180100ESC_, symObjAddr: 0x26DFC, symBinAddr: 0x10002AF5C, symSize: 0x30 }
  - { offset: 0x97176, size: 0x8, addend: 0x0, symName: __ZNSt3__129_AllocatorDestroyRangeReverseINS_9allocatorINS_6vectorIP4TH2FNS1_IS4_EEEEEENS_16reverse_iteratorIPS6_EEEC2B8ne180100ERS7_RSA_SD_, symObjAddr: 0x26E2C, symBinAddr: 0x10002AF8C, symSize: 0x38 }
  - { offset: 0x971CD, size: 0x8, addend: 0x0, symName: __ZNSt3__19allocatorINS_6vectorIP4TH2FNS0_IS3_EEEEE9constructB8ne180100IS5_JS5_EEEvPT_DpOT0_, symObjAddr: 0x26E64, symBinAddr: 0x10002AFC4, symSize: 0x30 }
  - { offset: 0x97223, size: 0x8, addend: 0x0, symName: __ZNSt3__16vectorIP4TH2FNS_9allocatorIS2_EEEC1B8ne180100EOS5_, symObjAddr: 0x26E94, symBinAddr: 0x10002AFF4, symSize: 0x34 }
  - { offset: 0x9725E, size: 0x8, addend: 0x0, symName: __ZNSt3__16vectorIP4TH2FNS_9allocatorIS2_EEEC2B8ne180100EOS5_, symObjAddr: 0x26EC8, symBinAddr: 0x10002B028, symSize: 0xC4 }
  - { offset: 0x9729F, size: 0x8, addend: 0x0, symName: __ZNSt3__119__to_address_helperINS_16reverse_iteratorIPNS_6vectorIP4TH2FNS_9allocatorIS4_EEEEEEvE6__callB8ne180100ERKS9_, symObjAddr: 0x26F8C, symBinAddr: 0x10002B0EC, symSize: 0x38 }
  - { offset: 0x972C2, size: 0x8, addend: 0x0, symName: __ZNKSt3__116reverse_iteratorIPNS_6vectorIP4TH2FNS_9allocatorIS3_EEEEEptB8ne180100Ev, symObjAddr: 0x26FC4, symBinAddr: 0x10002B124, symSize: 0x24 }
  - { offset: 0x972E8, size: 0x8, addend: 0x0, symName: __ZNSt3__128__exception_guard_exceptionsINS_29_AllocatorDestroyRangeReverseINS_9allocatorINS_6vectorIP4TH2FNS2_IS5_EEEEEENS_16reverse_iteratorIPS7_EEEEED2B8ne180100Ev, symObjAddr: 0x26FE8, symBinAddr: 0x10002B148, symSize: 0x50 }
  - { offset: 0x97312, size: 0x8, addend: 0x0, symName: __ZNKSt3__129_AllocatorDestroyRangeReverseINS_9allocatorINS_6vectorIP4TH2FNS1_IS4_EEEEEENS_16reverse_iteratorIPS6_EEEclB8ne180100Ev, symObjAddr: 0x27038, symBinAddr: 0x10002B198, symSize: 0xB4 }
  - { offset: 0x97339, size: 0x8, addend: 0x0, symName: __ZNSt3__116reverse_iteratorINS0_IPNS_6vectorIP4TH2FNS_9allocatorIS3_EEEEEEEC1B8ne180100ES8_, symObjAddr: 0x2715C, symBinAddr: 0x10002B2BC, symSize: 0x3C }
  - { offset: 0x97371, size: 0x8, addend: 0x0, symName: __ZNSt3__116reverse_iteratorINS0_IPNS_6vectorIP4TH2FNS_9allocatorIS3_EEEEEEEppB8ne180100Ev, symObjAddr: 0x2721C, symBinAddr: 0x10002B37C, symSize: 0x30 }
  - { offset: 0x97397, size: 0x8, addend: 0x0, symName: __ZNKSt3__116reverse_iteratorINS0_IPNS_6vectorIP4TH2FNS_9allocatorIS3_EEEEEEE4baseB8ne180100Ev, symObjAddr: 0x2724C, symBinAddr: 0x10002B3AC, symSize: 0x24 }
  - { offset: 0x973C3, size: 0x8, addend: 0x0, symName: __ZNSt3__119__to_address_helperINS_16reverse_iteratorINS1_IPNS_6vectorIP4TH2FNS_9allocatorIS4_EEEEEEEEvE6__callB8ne180100ERKSA_, symObjAddr: 0x27270, symBinAddr: 0x10002B3D0, symSize: 0x38 }
  - { offset: 0x973E6, size: 0x8, addend: 0x0, symName: __ZNKSt3__116reverse_iteratorINS0_IPNS_6vectorIP4TH2FNS_9allocatorIS3_EEEEEEEptB8ne180100Ev, symObjAddr: 0x272A8, symBinAddr: 0x10002B408, symSize: 0x24 }
  - { offset: 0x9740C, size: 0x8, addend: 0x0, symName: __ZNKSt3__116reverse_iteratorINS0_IPNS_6vectorIP4TH2FNS_9allocatorIS3_EEEEEEEdeB8ne180100Ev, symObjAddr: 0x272CC, symBinAddr: 0x10002B42C, symSize: 0x34 }
  - { offset: 0x97440, size: 0x8, addend: 0x0, symName: __ZNSt3__116reverse_iteratorIPNS_6vectorIP4TH2FNS_9allocatorIS3_EEEEEmmB8ne180100Ev, symObjAddr: 0x27300, symBinAddr: 0x10002B460, symSize: 0x20 }
  - { offset: 0x97466, size: 0x8, addend: 0x0, symName: __ZNSt3__116reverse_iteratorINS0_IPNS_6vectorIP4TH2FNS_9allocatorIS3_EEEEEEEC2B8ne180100ES8_, symObjAddr: 0x27320, symBinAddr: 0x10002B480, symSize: 0x2C }
  - { offset: 0x9749E, size: 0x8, addend: 0x0, symName: __ZNSt3__116reverse_iteratorIPNS_6vectorIP4TH2FNS_9allocatorIS3_EEEEEC2B8ne180100ES7_, symObjAddr: 0x2734C, symBinAddr: 0x10002B4AC, symSize: 0x28 }
  - { offset: 0x974D6, size: 0x8, addend: 0x0, symName: __ZNSt3__114__split_bufferINS_6vectorIP4TH2FNS_9allocatorIS3_EEEERNS4_IS6_EEED2Ev, symObjAddr: 0x27374, symBinAddr: 0x10002B4D4, symSize: 0x8C }
  - { offset: 0x97502, size: 0x8, addend: 0x0, symName: __ZNSt3__114__split_bufferINS_6vectorIP4TH2FNS_9allocatorIS3_EEEERNS4_IS6_EEE5clearB8ne180100Ev, symObjAddr: 0x27400, symBinAddr: 0x10002B560, symSize: 0x28 }
  - { offset: 0x97528, size: 0x8, addend: 0x0, symName: __ZNKSt3__114__split_bufferINS_6vectorIP4TH2FNS_9allocatorIS3_EEEERNS4_IS6_EEE8capacityB8ne180100Ev, symObjAddr: 0x27428, symBinAddr: 0x10002B588, symSize: 0x40 }
  - { offset: 0x9754E, size: 0x8, addend: 0x0, symName: __ZNSt3__114__split_bufferINS_6vectorIP4TH2FNS_9allocatorIS3_EEEERNS4_IS6_EEE17__destruct_at_endB8ne180100EPS6_, symObjAddr: 0x27468, symBinAddr: 0x10002B5C8, symSize: 0x2C }
  - { offset: 0x97582, size: 0x8, addend: 0x0, symName: __ZNSt3__114__split_bufferINS_6vectorIP4TH2FNS_9allocatorIS3_EEEERNS4_IS6_EEE17__destruct_at_endB8ne180100EPS6_NS_17integral_constantIbLb0EEE, symObjAddr: 0x27494, symBinAddr: 0x10002B5F4, symSize: 0x80 }
  - { offset: 0x975C3, size: 0x8, addend: 0x0, symName: __ZNKSt3__114__split_bufferINS_6vectorIP4TH2FNS_9allocatorIS3_EEEERNS4_IS6_EEE9__end_capB8ne180100Ev, symObjAddr: 0x27514, symBinAddr: 0x10002B674, symSize: 0x28 }
  - { offset: 0x975E9, size: 0x8, addend: 0x0, symName: __ZNKSt3__117__compressed_pairIPNS_6vectorIP4TH2FNS_9allocatorIS3_EEEERNS4_IS6_EEE5firstB8ne180100Ev, symObjAddr: 0x2753C, symBinAddr: 0x10002B69C, symSize: 0x24 }
  - { offset: 0x9760F, size: 0x8, addend: 0x0, symName: __ZN6TClass8GetClassIfEEPS_bb, symObjAddr: 0x27560, symBinAddr: 0x10002B6C0, symSize: 0x40 }
  - { offset: 0x9765A, size: 0x8, addend: 0x0, symName: __ZN4ROOT8Internal20TClassGetClassHelperIfE8GetClassEbb, symObjAddr: 0x275E0, symBinAddr: 0x10002B740, symSize: 0x50 }
  - { offset: 0x9768D, size: 0x8, addend: 0x0, symName: __ZN6TClass8GetClassIiEEPS_bb, symObjAddr: 0x27630, symBinAddr: 0x10002B790, symSize: 0x40 }
  - { offset: 0x976D8, size: 0x8, addend: 0x0, symName: __ZN4ROOT8Internal20TClassGetClassHelperIiE8GetClassEbb, symObjAddr: 0x276B0, symBinAddr: 0x10002B810, symSize: 0x50 }
  - { offset: 0x9770B, size: 0x8, addend: 0x0, symName: __ZNKSt3__16vectorI3JetNS_9allocatorIS1_EEE17__annotate_shrinkB8ne180100Em, symObjAddr: 0x27700, symBinAddr: 0x10002B860, symSize: 0x14 }
  - { offset: 0x97740, size: 0x8, addend: 0x0, symName: __ZNKSt3__16vectorI10FourVectorNS_9allocatorIS1_EEE17__annotate_shrinkB8ne180100Em, symObjAddr: 0x27714, symBinAddr: 0x10002B874, symSize: 0x14 }
  - { offset: 0x97775, size: 0x8, addend: 0x0, symName: __ZNSt3__16vectorI10FourVectorNS_9allocatorIS1_EEE9__end_capB8ne180100Ev, symObjAddr: 0x27728, symBinAddr: 0x10002B888, symSize: 0x28 }
  - { offset: 0x9779B, size: 0x8, addend: 0x0, symName: __ZNSt3__16vectorI10FourVectorNS_9allocatorIS1_EEE22__construct_one_at_endB8ne180100IJRKS1_EEEvDpOT_, symObjAddr: 0x27750, symBinAddr: 0x10002B8B0, symSize: 0x90 }
  - { offset: 0x977EA, size: 0x8, addend: 0x0, symName: __ZNSt3__16vectorI10FourVectorNS_9allocatorIS1_EEE21__push_back_slow_pathIRKS1_EEPS1_OT_, symObjAddr: 0x277E0, symBinAddr: 0x10002B940, symSize: 0xE8 }
  - { offset: 0x97848, size: 0x8, addend: 0x0, symName: __ZNSt3__117__compressed_pairIP10FourVectorNS_9allocatorIS1_EEE5firstB8ne180100Ev, symObjAddr: 0x278C8, symBinAddr: 0x10002BA28, symSize: 0x24 }
  - { offset: 0x9786E, size: 0x8, addend: 0x0, symName: __ZNSt3__122__compressed_pair_elemIP10FourVectorLi0ELb0EE5__getB8ne180100Ev, symObjAddr: 0x278EC, symBinAddr: 0x10002BA4C, symSize: 0x14 }
  - { offset: 0x978AF, size: 0x8, addend: 0x0, symName: __ZNSt3__16vectorI10FourVectorNS_9allocatorIS1_EEE21_ConstructTransactionC1B8ne180100ERS4_m, symObjAddr: 0x27900, symBinAddr: 0x10002BA60, symSize: 0x3C }
  - { offset: 0x978F7, size: 0x8, addend: 0x0, symName: __ZNSt3__116allocator_traitsINS_9allocatorI10FourVectorEEE9constructB8ne180100IS2_JRKS2_EvEEvRS3_PT_DpOT0_, symObjAddr: 0x2793C, symBinAddr: 0x10002BA9C, symSize: 0x34 }
  - { offset: 0x9794E, size: 0x8, addend: 0x0, symName: __ZNSt3__16vectorI10FourVectorNS_9allocatorIS1_EEE21_ConstructTransactionD1B8ne180100Ev, symObjAddr: 0x27970, symBinAddr: 0x10002BAD0, symSize: 0x2C }
  - { offset: 0x97978, size: 0x8, addend: 0x0, symName: __ZNSt3__16vectorI10FourVectorNS_9allocatorIS1_EEE21_ConstructTransactionC2B8ne180100ERS4_m, symObjAddr: 0x2799C, symBinAddr: 0x10002BAFC, symSize: 0x44 }
  - { offset: 0x979C0, size: 0x8, addend: 0x0, symName: __ZNSt3__19allocatorI10FourVectorE9constructB8ne180100IS1_JRKS1_EEEvPT_DpOT0_, symObjAddr: 0x279E0, symBinAddr: 0x10002BB40, symSize: 0x34 }
  - { offset: 0x97A16, size: 0x8, addend: 0x0, symName: __ZNSt3__16vectorI10FourVectorNS_9allocatorIS1_EEE21_ConstructTransactionD2B8ne180100Ev, symObjAddr: 0x27A14, symBinAddr: 0x10002BB74, symSize: 0x20 }
  - { offset: 0x97A40, size: 0x8, addend: 0x0, symName: __ZNKSt3__16vectorI10FourVectorNS_9allocatorIS1_EEE11__recommendB8ne180100Em, symObjAddr: 0x27A34, symBinAddr: 0x10002BB94, symSize: 0xB4 }
  - { offset: 0x97A95, size: 0x8, addend: 0x0, symName: __ZNSt3__114__split_bufferI10FourVectorRNS_9allocatorIS1_EEEC1EmmS4_, symObjAddr: 0x27AE8, symBinAddr: 0x10002BC48, symSize: 0x44 }
  - { offset: 0x97AEB, size: 0x8, addend: 0x0, symName: __ZNSt3__114__split_bufferI10FourVectorRNS_9allocatorIS1_EEED1Ev, symObjAddr: 0x27C3C, symBinAddr: 0x10002BD9C, symSize: 0x2C }
  - { offset: 0x97B17, size: 0x8, addend: 0x0, symName: __ZNKSt3__16vectorI10FourVectorNS_9allocatorIS1_EEE8max_sizeEv, symObjAddr: 0x27C68, symBinAddr: 0x10002BDC8, symSize: 0x60 }
  - { offset: 0x97B3F, size: 0x8, addend: 0x0, symName: __ZNKSt3__16vectorI10FourVectorNS_9allocatorIS1_EEE20__throw_length_errorB8ne180100Ev, symObjAddr: 0x27CC8, symBinAddr: 0x10002BE28, symSize: 0x1C }
  - { offset: 0x97B70, size: 0x8, addend: 0x0, symName: __ZNSt3__116allocator_traitsINS_9allocatorI10FourVectorEEE8max_sizeB8ne180100IS3_vEEmRKS3_, symObjAddr: 0x27CE4, symBinAddr: 0x10002BE44, symSize: 0x24 }
  - { offset: 0x97B9E, size: 0x8, addend: 0x0, symName: __ZNKSt3__16vectorI10FourVectorNS_9allocatorIS1_EEE7__allocB8ne180100Ev, symObjAddr: 0x27D08, symBinAddr: 0x10002BE68, symSize: 0x28 }
  - { offset: 0x97BC4, size: 0x8, addend: 0x0, symName: __ZNKSt3__19allocatorI10FourVectorE8max_sizeB8ne180100Ev, symObjAddr: 0x27D30, symBinAddr: 0x10002BE90, symSize: 0x14 }
  - { offset: 0x97BEA, size: 0x8, addend: 0x0, symName: __ZNKSt3__117__compressed_pairIP10FourVectorNS_9allocatorIS1_EEE6secondB8ne180100Ev, symObjAddr: 0x27D44, symBinAddr: 0x10002BEA4, symSize: 0x24 }
  - { offset: 0x97C10, size: 0x8, addend: 0x0, symName: __ZNKSt3__122__compressed_pair_elemINS_9allocatorI10FourVectorEELi1ELb1EE5__getB8ne180100Ev, symObjAddr: 0x27D68, symBinAddr: 0x10002BEC8, symSize: 0x14 }
  - { offset: 0x97C36, size: 0x8, addend: 0x0, symName: __ZNSt3__114__split_bufferI10FourVectorRNS_9allocatorIS1_EEEC2EmmS4_, symObjAddr: 0x27D7C, symBinAddr: 0x10002BEDC, symSize: 0xD4 }
  - { offset: 0x97CAA, size: 0x8, addend: 0x0, symName: __ZNSt3__117__compressed_pairIP10FourVectorRNS_9allocatorIS1_EEEC1B8ne180100IDnS5_EEOT_OT0_, symObjAddr: 0x27E50, symBinAddr: 0x10002BFB0, symSize: 0x3C }
  - { offset: 0x97D02, size: 0x8, addend: 0x0, symName: __ZNSt3__114__split_bufferI10FourVectorRNS_9allocatorIS1_EEE7__allocB8ne180100Ev, symObjAddr: 0x27ECC, symBinAddr: 0x10002C02C, symSize: 0x28 }
  - { offset: 0x97D28, size: 0x8, addend: 0x0, symName: __ZNSt3__114__split_bufferI10FourVectorRNS_9allocatorIS1_EEE9__end_capB8ne180100Ev, symObjAddr: 0x27EF4, symBinAddr: 0x10002C054, symSize: 0x28 }
  - { offset: 0x97D4E, size: 0x8, addend: 0x0, symName: __ZNSt3__117__compressed_pairIP10FourVectorRNS_9allocatorIS1_EEEC2B8ne180100IDnS5_EEOT_OT0_, symObjAddr: 0x27F1C, symBinAddr: 0x10002C07C, symSize: 0x48 }
  - { offset: 0x97DA6, size: 0x8, addend: 0x0, symName: __ZNSt3__122__compressed_pair_elemIRNS_9allocatorI10FourVectorEELi1ELb0EEC2B8ne180100IS4_vEEOT_, symObjAddr: 0x27F64, symBinAddr: 0x10002C0C4, symSize: 0x20 }
  - { offset: 0x97DE8, size: 0x8, addend: 0x0, symName: __ZNSt3__19allocatorI10FourVectorE8allocateB8ne180100Em, symObjAddr: 0x27F84, symBinAddr: 0x10002C0E4, symSize: 0x58 }
  - { offset: 0x97E1C, size: 0x8, addend: 0x0, symName: __ZNSt3__117__compressed_pairIP10FourVectorRNS_9allocatorIS1_EEE6secondB8ne180100Ev, symObjAddr: 0x27FDC, symBinAddr: 0x10002C13C, symSize: 0x28 }
  - { offset: 0x97E42, size: 0x8, addend: 0x0, symName: __ZNSt3__122__compressed_pair_elemIRNS_9allocatorI10FourVectorEELi1ELb0EE5__getB8ne180100Ev, symObjAddr: 0x28004, symBinAddr: 0x10002C164, symSize: 0x18 }
  - { offset: 0x97E68, size: 0x8, addend: 0x0, symName: __ZNSt3__117__compressed_pairIP10FourVectorRNS_9allocatorIS1_EEE5firstB8ne180100Ev, symObjAddr: 0x2801C, symBinAddr: 0x10002C17C, symSize: 0x24 }
  - { offset: 0x97E8E, size: 0x8, addend: 0x0, symName: __ZNSt3__116reverse_iteratorIP10FourVectorEC1B8ne180100ES2_, symObjAddr: 0x2816C, symBinAddr: 0x10002C2CC, symSize: 0x34 }
  - { offset: 0x97EC6, size: 0x8, addend: 0x0, symName: __ZNKSt3__116reverse_iteratorIP10FourVectorE4baseB8ne180100Ev, symObjAddr: 0x281A0, symBinAddr: 0x10002C300, symSize: 0x18 }
  - { offset: 0x97EEC, size: 0x8, addend: 0x0, symName: __ZNKSt3__16vectorI10FourVectorNS_9allocatorIS1_EEE14__annotate_newB8ne180100Em, symObjAddr: 0x281F4, symBinAddr: 0x10002C354, symSize: 0x14 }
  - { offset: 0x97F21, size: 0x8, addend: 0x0, symName: __ZNSt3__129_AllocatorDestroyRangeReverseINS_9allocatorI10FourVectorEENS_16reverse_iteratorIPS2_EEEC1B8ne180100ERS3_RS6_S9_, symObjAddr: 0x28254, symBinAddr: 0x10002C3B4, symSize: 0x44 }
  - { offset: 0x97F7E, size: 0x8, addend: 0x0, symName: __ZNSt3__116allocator_traitsINS_9allocatorI10FourVectorEEE9constructB8ne180100IS2_JS2_EvEEvRS3_PT_DpOT0_, symObjAddr: 0x282E0, symBinAddr: 0x10002C440, symSize: 0x34 }
  - { offset: 0x97FD5, size: 0x8, addend: 0x0, symName: __ZNKSt3__116reverse_iteratorIP10FourVectorEdeB8ne180100Ev, symObjAddr: 0x28338, symBinAddr: 0x10002C498, symSize: 0x28 }
  - { offset: 0x98009, size: 0x8, addend: 0x0, symName: __ZNSt3__116reverse_iteratorIP10FourVectorEppB8ne180100Ev, symObjAddr: 0x28360, symBinAddr: 0x10002C4C0, symSize: 0x20 }
  - { offset: 0x9802F, size: 0x8, addend: 0x0, symName: __ZNSt3__128__exception_guard_exceptionsINS_29_AllocatorDestroyRangeReverseINS_9allocatorI10FourVectorEENS_16reverse_iteratorIPS3_EEEEE10__completeB8ne180100Ev, symObjAddr: 0x28380, symBinAddr: 0x10002C4E0, symSize: 0x1C }
  - { offset: 0x98055, size: 0x8, addend: 0x0, symName: __ZNSt3__128__exception_guard_exceptionsINS_29_AllocatorDestroyRangeReverseINS_9allocatorI10FourVectorEENS_16reverse_iteratorIPS3_EEEEED1B8ne180100Ev, symObjAddr: 0x2839C, symBinAddr: 0x10002C4FC, symSize: 0x2C }
  - { offset: 0x9807F, size: 0x8, addend: 0x0, symName: __ZNSt3__128__exception_guard_exceptionsINS_29_AllocatorDestroyRangeReverseINS_9allocatorI10FourVectorEENS_16reverse_iteratorIPS3_EEEEEC1B8ne180100ES8_, symObjAddr: 0x283C8, symBinAddr: 0x10002C528, symSize: 0x34 }
  - { offset: 0x980B8, size: 0x8, addend: 0x0, symName: __ZNSt3__128__exception_guard_exceptionsINS_29_AllocatorDestroyRangeReverseINS_9allocatorI10FourVectorEENS_16reverse_iteratorIPS3_EEEEEC2B8ne180100ES8_, symObjAddr: 0x283FC, symBinAddr: 0x10002C55C, symSize: 0x30 }
  - { offset: 0x980F1, size: 0x8, addend: 0x0, symName: __ZNSt3__129_AllocatorDestroyRangeReverseINS_9allocatorI10FourVectorEENS_16reverse_iteratorIPS2_EEEC2B8ne180100ERS3_RS6_S9_, symObjAddr: 0x2842C, symBinAddr: 0x10002C58C, symSize: 0x38 }
  - { offset: 0x98148, size: 0x8, addend: 0x0, symName: __ZNSt3__19allocatorI10FourVectorE9constructB8ne180100IS1_JS1_EEEvPT_DpOT0_, symObjAddr: 0x28464, symBinAddr: 0x10002C5C4, symSize: 0x34 }
  - { offset: 0x981A4, size: 0x8, addend: 0x0, symName: __ZNSt3__119__to_address_helperINS_16reverse_iteratorIP10FourVectorEEvE6__callB8ne180100ERKS4_, symObjAddr: 0x28498, symBinAddr: 0x10002C5F8, symSize: 0x38 }
  - { offset: 0x981C7, size: 0x8, addend: 0x0, symName: __ZNKSt3__116reverse_iteratorIP10FourVectorEptB8ne180100Ev, symObjAddr: 0x284D0, symBinAddr: 0x10002C630, symSize: 0x24 }
  - { offset: 0x981ED, size: 0x8, addend: 0x0, symName: __ZNSt3__128__exception_guard_exceptionsINS_29_AllocatorDestroyRangeReverseINS_9allocatorI10FourVectorEENS_16reverse_iteratorIPS3_EEEEED2B8ne180100Ev, symObjAddr: 0x284F4, symBinAddr: 0x10002C654, symSize: 0x50 }
  - { offset: 0x98217, size: 0x8, addend: 0x0, symName: __ZNKSt3__129_AllocatorDestroyRangeReverseINS_9allocatorI10FourVectorEENS_16reverse_iteratorIPS2_EEEclB8ne180100Ev, symObjAddr: 0x28544, symBinAddr: 0x10002C6A4, symSize: 0xB4 }
  - { offset: 0x9823E, size: 0x8, addend: 0x0, symName: __ZNSt3__116reverse_iteratorINS0_IP10FourVectorEEEC1B8ne180100ES3_, symObjAddr: 0x28668, symBinAddr: 0x10002C7C8, symSize: 0x3C }
  - { offset: 0x98276, size: 0x8, addend: 0x0, symName: __ZNSt3__116reverse_iteratorINS0_IP10FourVectorEEEppB8ne180100Ev, symObjAddr: 0x28728, symBinAddr: 0x10002C888, symSize: 0x30 }
  - { offset: 0x9829C, size: 0x8, addend: 0x0, symName: __ZNKSt3__116reverse_iteratorINS0_IP10FourVectorEEE4baseB8ne180100Ev, symObjAddr: 0x28758, symBinAddr: 0x10002C8B8, symSize: 0x24 }
  - { offset: 0x982C8, size: 0x8, addend: 0x0, symName: __ZNSt3__119__to_address_helperINS_16reverse_iteratorINS1_IP10FourVectorEEEEvE6__callB8ne180100ERKS5_, symObjAddr: 0x2877C, symBinAddr: 0x10002C8DC, symSize: 0x38 }
  - { offset: 0x982EB, size: 0x8, addend: 0x0, symName: __ZNKSt3__116reverse_iteratorINS0_IP10FourVectorEEEptB8ne180100Ev, symObjAddr: 0x287B4, symBinAddr: 0x10002C914, symSize: 0x24 }
  - { offset: 0x98311, size: 0x8, addend: 0x0, symName: __ZNKSt3__116reverse_iteratorINS0_IP10FourVectorEEEdeB8ne180100Ev, symObjAddr: 0x287D8, symBinAddr: 0x10002C938, symSize: 0x34 }
  - { offset: 0x98345, size: 0x8, addend: 0x0, symName: __ZNSt3__116reverse_iteratorIP10FourVectorEmmB8ne180100Ev, symObjAddr: 0x2880C, symBinAddr: 0x10002C96C, symSize: 0x20 }
  - { offset: 0x9836B, size: 0x8, addend: 0x0, symName: __ZNSt3__116reverse_iteratorINS0_IP10FourVectorEEEC2B8ne180100ES3_, symObjAddr: 0x2882C, symBinAddr: 0x10002C98C, symSize: 0x2C }
  - { offset: 0x983A3, size: 0x8, addend: 0x0, symName: __ZNSt3__116reverse_iteratorIP10FourVectorEC2B8ne180100ES2_, symObjAddr: 0x28858, symBinAddr: 0x10002C9B8, symSize: 0x28 }
  - { offset: 0x983DB, size: 0x8, addend: 0x0, symName: __ZNSt3__114__split_bufferI10FourVectorRNS_9allocatorIS1_EEED2Ev, symObjAddr: 0x28880, symBinAddr: 0x10002C9E0, symSize: 0x8C }
  - { offset: 0x98407, size: 0x8, addend: 0x0, symName: __ZNSt3__114__split_bufferI10FourVectorRNS_9allocatorIS1_EEE5clearB8ne180100Ev, symObjAddr: 0x2890C, symBinAddr: 0x10002CA6C, symSize: 0x28 }
  - { offset: 0x9842D, size: 0x8, addend: 0x0, symName: __ZNKSt3__114__split_bufferI10FourVectorRNS_9allocatorIS1_EEE8capacityB8ne180100Ev, symObjAddr: 0x28934, symBinAddr: 0x10002CA94, symSize: 0x40 }
  - { offset: 0x98453, size: 0x8, addend: 0x0, symName: __ZNSt3__114__split_bufferI10FourVectorRNS_9allocatorIS1_EEE17__destruct_at_endB8ne180100EPS1_, symObjAddr: 0x28974, symBinAddr: 0x10002CAD4, symSize: 0x2C }
  - { offset: 0x98487, size: 0x8, addend: 0x0, symName: __ZNSt3__114__split_bufferI10FourVectorRNS_9allocatorIS1_EEE17__destruct_at_endB8ne180100EPS1_NS_17integral_constantIbLb0EEE, symObjAddr: 0x289A0, symBinAddr: 0x10002CB00, symSize: 0x80 }
  - { offset: 0x984C8, size: 0x8, addend: 0x0, symName: __ZNKSt3__114__split_bufferI10FourVectorRNS_9allocatorIS1_EEE9__end_capB8ne180100Ev, symObjAddr: 0x28A20, symBinAddr: 0x10002CB80, symSize: 0x28 }
  - { offset: 0x984EE, size: 0x8, addend: 0x0, symName: __ZNKSt3__117__compressed_pairIP10FourVectorRNS_9allocatorIS1_EEE5firstB8ne180100Ev, symObjAddr: 0x28A48, symBinAddr: 0x10002CBA8, symSize: 0x24 }
  - { offset: 0x98514, size: 0x8, addend: 0x0, symName: __ZNSt3__16vectorIP4NodeNS_9allocatorIS2_EEEC2B8ne180100Ev, symObjAddr: 0x28A6C, symBinAddr: 0x10002CBCC, symSize: 0x4C }
  - { offset: 0x9853E, size: 0x8, addend: 0x0, symName: __ZNSt3__117__compressed_pairIPP4NodeNS_9allocatorIS2_EEEC1B8ne180100IDnNS_18__default_init_tagEEEOT_OT0_, symObjAddr: 0x28AB8, symBinAddr: 0x10002CC18, symSize: 0x3C }
  - { offset: 0x98596, size: 0x8, addend: 0x0, symName: __ZNSt3__117__compressed_pairIPP4NodeNS_9allocatorIS2_EEEC2B8ne180100IDnNS_18__default_init_tagEEEOT_OT0_, symObjAddr: 0x28AF4, symBinAddr: 0x10002CC54, symSize: 0x40 }
  - { offset: 0x985EE, size: 0x8, addend: 0x0, symName: __ZNSt3__122__compressed_pair_elemIPP4NodeLi0ELb0EEC2B8ne180100IDnvEEOT_, symObjAddr: 0x28B34, symBinAddr: 0x10002CC94, symSize: 0x1C }
  - { offset: 0x98630, size: 0x8, addend: 0x0, symName: __ZNSt3__122__compressed_pair_elemINS_9allocatorIP4NodeEELi1ELb1EEC2B8ne180100ENS_18__default_init_tagE, symObjAddr: 0x28B50, symBinAddr: 0x10002CCB0, symSize: 0x2C }
  - { offset: 0x98665, size: 0x8, addend: 0x0, symName: __ZNSt3__19allocatorIP4NodeEC2B8ne180100Ev, symObjAddr: 0x28B7C, symBinAddr: 0x10002CCDC, symSize: 0x2C }
  - { offset: 0x9868F, size: 0x8, addend: 0x0, symName: __ZNSt3__116__non_trivial_ifILb1ENS_9allocatorIP4NodeEEEC2B8ne180100Ev, symObjAddr: 0x28BA8, symBinAddr: 0x10002CD08, symSize: 0x14 }
  - { offset: 0x986B9, size: 0x8, addend: 0x0, symName: __ZNSt3__16vectorIP4NodeNS_9allocatorIS2_EEED2B8ne180100Ev, symObjAddr: 0x28BBC, symBinAddr: 0x10002CD1C, symSize: 0x44 }
  - { offset: 0x986E3, size: 0x8, addend: 0x0, symName: __ZNSt3__16vectorIP4NodeNS_9allocatorIS2_EEE16__destroy_vectorC1B8ne180100ERS5_, symObjAddr: 0x28C00, symBinAddr: 0x10002CD60, symSize: 0x34 }
  - { offset: 0x9871C, size: 0x8, addend: 0x0, symName: __ZNSt3__16vectorIP4NodeNS_9allocatorIS2_EEE16__destroy_vectorclB8ne180100Ev, symObjAddr: 0x28C34, symBinAddr: 0x10002CD94, symSize: 0x90 }
  - { offset: 0x98742, size: 0x8, addend: 0x0, symName: __ZNSt3__16vectorIP4NodeNS_9allocatorIS2_EEE16__destroy_vectorC2B8ne180100ERS5_, symObjAddr: 0x28CC4, symBinAddr: 0x10002CE24, symSize: 0x20 }
  - { offset: 0x9877B, size: 0x8, addend: 0x0, symName: __ZNSt3__16vectorIP4NodeNS_9allocatorIS2_EEE7__clearB8ne180100Ev, symObjAddr: 0x28CE4, symBinAddr: 0x10002CE44, symSize: 0x28 }
  - { offset: 0x987A1, size: 0x8, addend: 0x0, symName: __ZNKSt3__16vectorIP4NodeNS_9allocatorIS2_EEE17__annotate_deleteB8ne180100Ev, symObjAddr: 0x28D0C, symBinAddr: 0x10002CE6C, symSize: 0x10 }
  - { offset: 0x987C7, size: 0x8, addend: 0x0, symName: __ZNSt3__116allocator_traitsINS_9allocatorIP4NodeEEE10deallocateB8ne180100ERS4_PS3_m, symObjAddr: 0x28D1C, symBinAddr: 0x10002CE7C, symSize: 0x34 }
  - { offset: 0x98809, size: 0x8, addend: 0x0, symName: __ZNSt3__16vectorIP4NodeNS_9allocatorIS2_EEE7__allocB8ne180100Ev, symObjAddr: 0x28D50, symBinAddr: 0x10002CEB0, symSize: 0x28 }
  - { offset: 0x9882F, size: 0x8, addend: 0x0, symName: __ZNKSt3__16vectorIP4NodeNS_9allocatorIS2_EEE8capacityB8ne180100Ev, symObjAddr: 0x28D78, symBinAddr: 0x10002CED8, symSize: 0x40 }
  - { offset: 0x98855, size: 0x8, addend: 0x0, symName: __ZNSt3__16vectorIP4NodeNS_9allocatorIS2_EEE22__base_destruct_at_endB8ne180100EPS2_, symObjAddr: 0x28DB8, symBinAddr: 0x10002CF18, symSize: 0x8C }
  - { offset: 0x98899, size: 0x8, addend: 0x0, symName: __ZNSt3__116allocator_traitsINS_9allocatorIP4NodeEEE7destroyB8ne180100IS3_vEEvRS4_PT_, symObjAddr: 0x28E44, symBinAddr: 0x10002CFA4, symSize: 0x2C }
  - { offset: 0x988D6, size: 0x8, addend: 0x0, symName: __ZNSt3__19allocatorIP4NodeE7destroyB8ne180100EPS2_, symObjAddr: 0x28E84, symBinAddr: 0x10002CFE4, symSize: 0x14 }
  - { offset: 0x9890A, size: 0x8, addend: 0x0, symName: __ZNSt3__19allocatorIP4NodeE10deallocateB8ne180100EPS2_m, symObjAddr: 0x28E98, symBinAddr: 0x10002CFF8, symSize: 0x40 }
  - { offset: 0x9894C, size: 0x8, addend: 0x0, symName: __ZNSt3__117__compressed_pairIPP4NodeNS_9allocatorIS2_EEE6secondB8ne180100Ev, symObjAddr: 0x28ED8, symBinAddr: 0x10002D038, symSize: 0x24 }
  - { offset: 0x98972, size: 0x8, addend: 0x0, symName: __ZNSt3__122__compressed_pair_elemINS_9allocatorIP4NodeEELi1ELb1EE5__getB8ne180100Ev, symObjAddr: 0x28EFC, symBinAddr: 0x10002D05C, symSize: 0x14 }
  - { offset: 0x98998, size: 0x8, addend: 0x0, symName: __ZNKSt3__16vectorIP4NodeNS_9allocatorIS2_EEE9__end_capB8ne180100Ev, symObjAddr: 0x28F10, symBinAddr: 0x10002D070, symSize: 0x28 }
  - { offset: 0x989BE, size: 0x8, addend: 0x0, symName: __ZNKSt3__117__compressed_pairIPP4NodeNS_9allocatorIS2_EEE5firstB8ne180100Ev, symObjAddr: 0x28F38, symBinAddr: 0x10002D098, symSize: 0x24 }
  - { offset: 0x989E4, size: 0x8, addend: 0x0, symName: __ZNKSt3__122__compressed_pair_elemIPP4NodeLi0ELb0EE5__getB8ne180100Ev, symObjAddr: 0x28F5C, symBinAddr: 0x10002D0BC, symSize: 0x14 }
  - { offset: 0x98A0A, size: 0x8, addend: 0x0, symName: __ZNSt3__16vectorIP4NodeNS_9allocatorIS2_EEE9__end_capB8ne180100Ev, symObjAddr: 0x28F70, symBinAddr: 0x10002D0D0, symSize: 0x28 }
  - { offset: 0x98A30, size: 0x8, addend: 0x0, symName: __ZNSt3__16vectorIP4NodeNS_9allocatorIS2_EEE22__construct_one_at_endB8ne180100IJRKS2_EEEvDpOT_, symObjAddr: 0x28F98, symBinAddr: 0x10002D0F8, symSize: 0x90 }
  - { offset: 0x98A7F, size: 0x8, addend: 0x0, symName: __ZNSt3__16vectorIP4NodeNS_9allocatorIS2_EEE21__push_back_slow_pathIRKS2_EEPS2_OT_, symObjAddr: 0x29028, symBinAddr: 0x10002D188, symSize: 0xE8 }
  - { offset: 0x98ADD, size: 0x8, addend: 0x0, symName: __ZNSt3__117__compressed_pairIPP4NodeNS_9allocatorIS2_EEE5firstB8ne180100Ev, symObjAddr: 0x29110, symBinAddr: 0x10002D270, symSize: 0x24 }
  - { offset: 0x98B03, size: 0x8, addend: 0x0, symName: __ZNSt3__122__compressed_pair_elemIPP4NodeLi0ELb0EE5__getB8ne180100Ev, symObjAddr: 0x29134, symBinAddr: 0x10002D294, symSize: 0x14 }
  - { offset: 0x98B44, size: 0x8, addend: 0x0, symName: __ZNSt3__16vectorIP4NodeNS_9allocatorIS2_EEE21_ConstructTransactionC1B8ne180100ERS5_m, symObjAddr: 0x29148, symBinAddr: 0x10002D2A8, symSize: 0x3C }
  - { offset: 0x98B8C, size: 0x8, addend: 0x0, symName: __ZNSt3__116allocator_traitsINS_9allocatorIP4NodeEEE9constructB8ne180100IS3_JRKS3_EvEEvRS4_PT_DpOT0_, symObjAddr: 0x29184, symBinAddr: 0x10002D2E4, symSize: 0x34 }
  - { offset: 0x98BE3, size: 0x8, addend: 0x0, symName: __ZNSt3__16vectorIP4NodeNS_9allocatorIS2_EEE21_ConstructTransactionD1B8ne180100Ev, symObjAddr: 0x291B8, symBinAddr: 0x10002D318, symSize: 0x2C }
  - { offset: 0x98C0D, size: 0x8, addend: 0x0, symName: __ZNSt3__16vectorIP4NodeNS_9allocatorIS2_EEE21_ConstructTransactionC2B8ne180100ERS5_m, symObjAddr: 0x291E4, symBinAddr: 0x10002D344, symSize: 0x44 }
  - { offset: 0x98C55, size: 0x8, addend: 0x0, symName: __ZNSt3__19allocatorIP4NodeE9constructB8ne180100IS2_JRKS2_EEEvPT_DpOT0_, symObjAddr: 0x29228, symBinAddr: 0x10002D388, symSize: 0x28 }
  - { offset: 0x98CAB, size: 0x8, addend: 0x0, symName: __ZNSt3__16vectorIP4NodeNS_9allocatorIS2_EEE21_ConstructTransactionD2B8ne180100Ev, symObjAddr: 0x29250, symBinAddr: 0x10002D3B0, symSize: 0x20 }
  - { offset: 0x98CD5, size: 0x8, addend: 0x0, symName: __ZNKSt3__16vectorIP4NodeNS_9allocatorIS2_EEE11__recommendB8ne180100Em, symObjAddr: 0x29270, symBinAddr: 0x10002D3D0, symSize: 0xB4 }
  - { offset: 0x98D2A, size: 0x8, addend: 0x0, symName: __ZNSt3__114__split_bufferIP4NodeRNS_9allocatorIS2_EEEC1EmmS5_, symObjAddr: 0x29324, symBinAddr: 0x10002D484, symSize: 0x44 }
  - { offset: 0x98D80, size: 0x8, addend: 0x0, symName: __ZNSt3__114__split_bufferIP4NodeRNS_9allocatorIS2_EEED1Ev, symObjAddr: 0x29478, symBinAddr: 0x10002D5D8, symSize: 0x2C }
  - { offset: 0x98DAC, size: 0x8, addend: 0x0, symName: __ZNKSt3__16vectorIP4NodeNS_9allocatorIS2_EEE8max_sizeEv, symObjAddr: 0x294A4, symBinAddr: 0x10002D604, symSize: 0x60 }
  - { offset: 0x98DD4, size: 0x8, addend: 0x0, symName: __ZNKSt3__16vectorIP4NodeNS_9allocatorIS2_EEE20__throw_length_errorB8ne180100Ev, symObjAddr: 0x29504, symBinAddr: 0x10002D664, symSize: 0x1C }
  - { offset: 0x98E05, size: 0x8, addend: 0x0, symName: __ZNSt3__116allocator_traitsINS_9allocatorIP4NodeEEE8max_sizeB8ne180100IS4_vEEmRKS4_, symObjAddr: 0x29520, symBinAddr: 0x10002D680, symSize: 0x24 }
  - { offset: 0x98E33, size: 0x8, addend: 0x0, symName: __ZNKSt3__16vectorIP4NodeNS_9allocatorIS2_EEE7__allocB8ne180100Ev, symObjAddr: 0x29544, symBinAddr: 0x10002D6A4, symSize: 0x28 }
  - { offset: 0x98E59, size: 0x8, addend: 0x0, symName: __ZNKSt3__19allocatorIP4NodeE8max_sizeB8ne180100Ev, symObjAddr: 0x2956C, symBinAddr: 0x10002D6CC, symSize: 0x14 }
  - { offset: 0x98E7F, size: 0x8, addend: 0x0, symName: __ZNKSt3__117__compressed_pairIPP4NodeNS_9allocatorIS2_EEE6secondB8ne180100Ev, symObjAddr: 0x29580, symBinAddr: 0x10002D6E0, symSize: 0x24 }
  - { offset: 0x98EA5, size: 0x8, addend: 0x0, symName: __ZNKSt3__122__compressed_pair_elemINS_9allocatorIP4NodeEELi1ELb1EE5__getB8ne180100Ev, symObjAddr: 0x295A4, symBinAddr: 0x10002D704, symSize: 0x14 }
  - { offset: 0x98ECB, size: 0x8, addend: 0x0, symName: __ZNSt3__114__split_bufferIP4NodeRNS_9allocatorIS2_EEEC2EmmS5_, symObjAddr: 0x295B8, symBinAddr: 0x10002D718, symSize: 0xD4 }
  - { offset: 0x98F3F, size: 0x8, addend: 0x0, symName: __ZNSt3__117__compressed_pairIPP4NodeRNS_9allocatorIS2_EEEC1B8ne180100IDnS6_EEOT_OT0_, symObjAddr: 0x2968C, symBinAddr: 0x10002D7EC, symSize: 0x3C }
  - { offset: 0x98F97, size: 0x8, addend: 0x0, symName: __ZNSt3__114__split_bufferIP4NodeRNS_9allocatorIS2_EEE7__allocB8ne180100Ev, symObjAddr: 0x29708, symBinAddr: 0x10002D868, symSize: 0x28 }
  - { offset: 0x98FBD, size: 0x8, addend: 0x0, symName: __ZNSt3__114__split_bufferIP4NodeRNS_9allocatorIS2_EEE9__end_capB8ne180100Ev, symObjAddr: 0x29730, symBinAddr: 0x10002D890, symSize: 0x28 }
  - { offset: 0x98FE3, size: 0x8, addend: 0x0, symName: __ZNSt3__117__compressed_pairIPP4NodeRNS_9allocatorIS2_EEEC2B8ne180100IDnS6_EEOT_OT0_, symObjAddr: 0x29758, symBinAddr: 0x10002D8B8, symSize: 0x48 }
  - { offset: 0x9903B, size: 0x8, addend: 0x0, symName: __ZNSt3__122__compressed_pair_elemIRNS_9allocatorIP4NodeEELi1ELb0EEC2B8ne180100IS5_vEEOT_, symObjAddr: 0x297A0, symBinAddr: 0x10002D900, symSize: 0x20 }
  - { offset: 0x9907D, size: 0x8, addend: 0x0, symName: __ZNSt3__19allocatorIP4NodeE8allocateB8ne180100Em, symObjAddr: 0x297C0, symBinAddr: 0x10002D920, symSize: 0x58 }
  - { offset: 0x990B1, size: 0x8, addend: 0x0, symName: __ZNSt3__117__compressed_pairIPP4NodeRNS_9allocatorIS2_EEE6secondB8ne180100Ev, symObjAddr: 0x29818, symBinAddr: 0x10002D978, symSize: 0x28 }
  - { offset: 0x990D7, size: 0x8, addend: 0x0, symName: __ZNSt3__122__compressed_pair_elemIRNS_9allocatorIP4NodeEELi1ELb0EE5__getB8ne180100Ev, symObjAddr: 0x29840, symBinAddr: 0x10002D9A0, symSize: 0x18 }
  - { offset: 0x990FD, size: 0x8, addend: 0x0, symName: __ZNSt3__117__compressed_pairIPP4NodeRNS_9allocatorIS2_EEE5firstB8ne180100Ev, symObjAddr: 0x29858, symBinAddr: 0x10002D9B8, symSize: 0x24 }
  - { offset: 0x99123, size: 0x8, addend: 0x0, symName: __ZNSt3__116reverse_iteratorIPP4NodeEC1B8ne180100ES3_, symObjAddr: 0x298F4, symBinAddr: 0x10002DA54, symSize: 0x34 }
  - { offset: 0x9915B, size: 0x8, addend: 0x0, symName: __ZNKSt3__116reverse_iteratorIPP4NodeE4baseB8ne180100Ev, symObjAddr: 0x29928, symBinAddr: 0x10002DA88, symSize: 0x18 }
  - { offset: 0x99181, size: 0x8, addend: 0x0, symName: __ZNKSt3__16vectorIP4NodeNS_9allocatorIS2_EEE14__annotate_newB8ne180100Em, symObjAddr: 0x2997C, symBinAddr: 0x10002DADC, symSize: 0x14 }
  - { offset: 0x991D2, size: 0x8, addend: 0x0, symName: __ZNKSt3__111__move_loopINS_17_ClassicAlgPolicyEEclB8ne180100INS_16reverse_iteratorIPP4NodeEES8_S8_EENS_4pairIT_T1_EESA_T0_SB_, symObjAddr: 0x29C80, symBinAddr: 0x10002DDE0, symSize: 0xA0 }
  - { offset: 0x99243, size: 0x8, addend: 0x0, symName: __ZNSt3__18_IterOpsINS_17_ClassicAlgPolicyEE11__iter_moveB8ne180100IRNS_16reverse_iteratorIPP4NodeEELi0EEEDTclsr3stdE4movedeclsr3stdE7declvalIRT_EEEEOSA_, symObjAddr: 0x29EB4, symBinAddr: 0x10002E014, symSize: 0x28 }
  - { offset: 0x99275, size: 0x8, addend: 0x0, symName: __ZNKSt3__116reverse_iteratorIPP4NodeEdeB8ne180100Ev, symObjAddr: 0x29EDC, symBinAddr: 0x10002E03C, symSize: 0x28 }
  - { offset: 0x992A9, size: 0x8, addend: 0x0, symName: __ZNSt3__116reverse_iteratorIPP4NodeEppB8ne180100Ev, symObjAddr: 0x29F04, symBinAddr: 0x10002E064, symSize: 0x20 }
  - { offset: 0x992CF, size: 0x8, addend: 0x0, symName: __ZNSt3__18_IterOpsINS_17_ClassicAlgPolicyEE25__validate_iter_referenceB8ne180100IRNS_16reverse_iteratorIPP4NodeEEEEvv, symObjAddr: 0x29F24, symBinAddr: 0x10002E084, symSize: 0x4 }
  - { offset: 0x992ED, size: 0x8, addend: 0x0, symName: __ZNSt3__118__unwrap_iter_implINS_16reverse_iteratorIPP4NodeEELb0EE8__unwrapB8ne180100ES5_, symObjAddr: 0x29F28, symBinAddr: 0x10002E088, symSize: 0x24 }
  - { offset: 0x99316, size: 0x8, addend: 0x0, symName: __ZNSt3__14pairINS_16reverse_iteratorIPP4NodeEES5_EC1B8ne180100IS5_S5_Li0EEEOT_OT0_, symObjAddr: 0x29F4C, symBinAddr: 0x10002E0AC, symSize: 0x3C }
  - { offset: 0x99374, size: 0x8, addend: 0x0, symName: __ZNSt3__14pairINS_16reverse_iteratorIPP4NodeEES5_EC2B8ne180100IS5_S5_Li0EEEOT_OT0_, symObjAddr: 0x29F88, symBinAddr: 0x10002E0E8, symSize: 0x34 }
  - { offset: 0x993D2, size: 0x8, addend: 0x0, symName: __ZNSt3__118__unwrap_iter_implINS_16reverse_iteratorIPP4NodeEELb0EE8__rewrapB8ne180100ES5_S5_, symObjAddr: 0x29FBC, symBinAddr: 0x10002E11C, symSize: 0x2C }
  - { offset: 0x99400, size: 0x8, addend: 0x0, symName: __ZNSt3__116reverse_iteratorIPP4NodeEC2B8ne180100ES3_, symObjAddr: 0x29FE8, symBinAddr: 0x10002E148, symSize: 0x28 }
  - { offset: 0x99438, size: 0x8, addend: 0x0, symName: __ZNSt3__114__split_bufferIP4NodeRNS_9allocatorIS2_EEED2Ev, symObjAddr: 0x2A010, symBinAddr: 0x10002E170, symSize: 0x8C }
  - { offset: 0x99464, size: 0x8, addend: 0x0, symName: __ZNSt3__114__split_bufferIP4NodeRNS_9allocatorIS2_EEE5clearB8ne180100Ev, symObjAddr: 0x2A09C, symBinAddr: 0x10002E1FC, symSize: 0x28 }
  - { offset: 0x9948A, size: 0x8, addend: 0x0, symName: __ZNKSt3__114__split_bufferIP4NodeRNS_9allocatorIS2_EEE8capacityB8ne180100Ev, symObjAddr: 0x2A0C4, symBinAddr: 0x10002E224, symSize: 0x40 }
  - { offset: 0x994B0, size: 0x8, addend: 0x0, symName: __ZNSt3__114__split_bufferIP4NodeRNS_9allocatorIS2_EEE17__destruct_at_endB8ne180100EPS2_, symObjAddr: 0x2A104, symBinAddr: 0x10002E264, symSize: 0x2C }
  - { offset: 0x994E4, size: 0x8, addend: 0x0, symName: __ZNSt3__114__split_bufferIP4NodeRNS_9allocatorIS2_EEE17__destruct_at_endB8ne180100EPS2_NS_17integral_constantIbLb0EEE, symObjAddr: 0x2A130, symBinAddr: 0x10002E290, symSize: 0x80 }
  - { offset: 0x99525, size: 0x8, addend: 0x0, symName: __ZNKSt3__114__split_bufferIP4NodeRNS_9allocatorIS2_EEE9__end_capB8ne180100Ev, symObjAddr: 0x2A1B0, symBinAddr: 0x10002E310, symSize: 0x28 }
  - { offset: 0x9954B, size: 0x8, addend: 0x0, symName: __ZNKSt3__117__compressed_pairIPP4NodeRNS_9allocatorIS2_EEE5firstB8ne180100Ev, symObjAddr: 0x2A1D8, symBinAddr: 0x10002E338, symSize: 0x24 }
  - { offset: 0x99571, size: 0x8, addend: 0x0, symName: __ZNSt3__16vectorI3JetNS_9allocatorIS1_EEE9__end_capB8ne180100Ev, symObjAddr: 0x2A1FC, symBinAddr: 0x10002E35C, symSize: 0x28 }
  - { offset: 0x99597, size: 0x8, addend: 0x0, symName: __ZNSt3__16vectorI3JetNS_9allocatorIS1_EEE22__construct_one_at_endB8ne180100IJS1_EEEvDpOT_, symObjAddr: 0x2A224, symBinAddr: 0x10002E384, symSize: 0x90 }
  - { offset: 0x995E6, size: 0x8, addend: 0x0, symName: __ZNSt3__16vectorI3JetNS_9allocatorIS1_EEE24__emplace_back_slow_pathIJS1_EEEPS1_DpOT_, symObjAddr: 0x2A2B4, symBinAddr: 0x10002E414, symSize: 0xE8 }
  - { offset: 0x99646, size: 0x8, addend: 0x0, symName: __ZNSt3__117__compressed_pairIP3JetNS_9allocatorIS1_EEE5firstB8ne180100Ev, symObjAddr: 0x2A39C, symBinAddr: 0x10002E4FC, symSize: 0x24 }
  - { offset: 0x9966C, size: 0x8, addend: 0x0, symName: __ZNSt3__122__compressed_pair_elemIP3JetLi0ELb0EE5__getB8ne180100Ev, symObjAddr: 0x2A3C0, symBinAddr: 0x10002E520, symSize: 0x14 }
  - { offset: 0x996AD, size: 0x8, addend: 0x0, symName: __ZNSt3__16vectorI3JetNS_9allocatorIS1_EEE21_ConstructTransactionC1B8ne180100ERS4_m, symObjAddr: 0x2A3D4, symBinAddr: 0x10002E534, symSize: 0x3C }
  - { offset: 0x996F5, size: 0x8, addend: 0x0, symName: __ZNSt3__116allocator_traitsINS_9allocatorI3JetEEE9constructB8ne180100IS2_JS2_EvEEvRS3_PT_DpOT0_, symObjAddr: 0x2A410, symBinAddr: 0x10002E570, symSize: 0x34 }
  - { offset: 0x9974C, size: 0x8, addend: 0x0, symName: __ZNSt3__16vectorI3JetNS_9allocatorIS1_EEE21_ConstructTransactionD1B8ne180100Ev, symObjAddr: 0x2A444, symBinAddr: 0x10002E5A4, symSize: 0x2C }
  - { offset: 0x99776, size: 0x8, addend: 0x0, symName: __ZNSt3__16vectorI3JetNS_9allocatorIS1_EEE21_ConstructTransactionC2B8ne180100ERS4_m, symObjAddr: 0x2A470, symBinAddr: 0x10002E5D0, symSize: 0x4C }
  - { offset: 0x997BE, size: 0x8, addend: 0x0, symName: __ZNSt3__19allocatorI3JetE9constructB8ne180100IS1_JS1_EEEvPT_DpOT0_, symObjAddr: 0x2A4BC, symBinAddr: 0x10002E61C, symSize: 0x34 }
  - { offset: 0x99814, size: 0x8, addend: 0x0, symName: __ZNSt3__16vectorI3JetNS_9allocatorIS1_EEE21_ConstructTransactionD2B8ne180100Ev, symObjAddr: 0x2A4F0, symBinAddr: 0x10002E650, symSize: 0x20 }
  - { offset: 0x9983E, size: 0x8, addend: 0x0, symName: __ZNKSt3__16vectorI3JetNS_9allocatorIS1_EEE11__recommendB8ne180100Em, symObjAddr: 0x2A510, symBinAddr: 0x10002E670, symSize: 0xB4 }
  - { offset: 0x99893, size: 0x8, addend: 0x0, symName: __ZNSt3__114__split_bufferI3JetRNS_9allocatorIS1_EEEC1EmmS4_, symObjAddr: 0x2A5C4, symBinAddr: 0x10002E724, symSize: 0x44 }
  - { offset: 0x998E9, size: 0x8, addend: 0x0, symName: __ZNSt3__114__split_bufferI3JetRNS_9allocatorIS1_EEED1Ev, symObjAddr: 0x2A718, symBinAddr: 0x10002E878, symSize: 0x2C }
  - { offset: 0x99915, size: 0x8, addend: 0x0, symName: __ZNKSt3__16vectorI3JetNS_9allocatorIS1_EEE8max_sizeEv, symObjAddr: 0x2A744, symBinAddr: 0x10002E8A4, symSize: 0x60 }
  - { offset: 0x9993D, size: 0x8, addend: 0x0, symName: __ZNKSt3__16vectorI3JetNS_9allocatorIS1_EEE20__throw_length_errorB8ne180100Ev, symObjAddr: 0x2A7A4, symBinAddr: 0x10002E904, symSize: 0x1C }
  - { offset: 0x9996E, size: 0x8, addend: 0x0, symName: __ZNSt3__116allocator_traitsINS_9allocatorI3JetEEE8max_sizeB8ne180100IS3_vEEmRKS3_, symObjAddr: 0x2A7C0, symBinAddr: 0x10002E920, symSize: 0x24 }
  - { offset: 0x9999C, size: 0x8, addend: 0x0, symName: __ZNKSt3__16vectorI3JetNS_9allocatorIS1_EEE7__allocB8ne180100Ev, symObjAddr: 0x2A7E4, symBinAddr: 0x10002E944, symSize: 0x28 }
  - { offset: 0x999C2, size: 0x8, addend: 0x0, symName: __ZNKSt3__19allocatorI3JetE8max_sizeB8ne180100Ev, symObjAddr: 0x2A80C, symBinAddr: 0x10002E96C, symSize: 0x18 }
  - { offset: 0x999E8, size: 0x8, addend: 0x0, symName: __ZNKSt3__117__compressed_pairIP3JetNS_9allocatorIS1_EEE6secondB8ne180100Ev, symObjAddr: 0x2A824, symBinAddr: 0x10002E984, symSize: 0x24 }
  - { offset: 0x99A0E, size: 0x8, addend: 0x0, symName: __ZNKSt3__122__compressed_pair_elemINS_9allocatorI3JetEELi1ELb1EE5__getB8ne180100Ev, symObjAddr: 0x2A848, symBinAddr: 0x10002E9A8, symSize: 0x14 }
  - { offset: 0x99A34, size: 0x8, addend: 0x0, symName: __ZNSt3__114__split_bufferI3JetRNS_9allocatorIS1_EEEC2EmmS4_, symObjAddr: 0x2A85C, symBinAddr: 0x10002E9BC, symSize: 0xE0 }
  - { offset: 0x99AA8, size: 0x8, addend: 0x0, symName: __ZNSt3__117__compressed_pairIP3JetRNS_9allocatorIS1_EEEC1B8ne180100IDnS5_EEOT_OT0_, symObjAddr: 0x2A93C, symBinAddr: 0x10002EA9C, symSize: 0x3C }
  - { offset: 0x99B00, size: 0x8, addend: 0x0, symName: __ZNSt3__114__split_bufferI3JetRNS_9allocatorIS1_EEE7__allocB8ne180100Ev, symObjAddr: 0x2A9B8, symBinAddr: 0x10002EB18, symSize: 0x28 }
  - { offset: 0x99B26, size: 0x8, addend: 0x0, symName: __ZNSt3__114__split_bufferI3JetRNS_9allocatorIS1_EEE9__end_capB8ne180100Ev, symObjAddr: 0x2A9E0, symBinAddr: 0x10002EB40, symSize: 0x28 }
  - { offset: 0x99B4C, size: 0x8, addend: 0x0, symName: __ZNSt3__117__compressed_pairIP3JetRNS_9allocatorIS1_EEEC2B8ne180100IDnS5_EEOT_OT0_, symObjAddr: 0x2AA08, symBinAddr: 0x10002EB68, symSize: 0x48 }
  - { offset: 0x99BA4, size: 0x8, addend: 0x0, symName: __ZNSt3__122__compressed_pair_elemIRNS_9allocatorI3JetEELi1ELb0EEC2B8ne180100IS4_vEEOT_, symObjAddr: 0x2AA50, symBinAddr: 0x10002EBB0, symSize: 0x20 }
  - { offset: 0x99BE6, size: 0x8, addend: 0x0, symName: __ZNSt3__19allocatorI3JetE8allocateB8ne180100Em, symObjAddr: 0x2AA70, symBinAddr: 0x10002EBD0, symSize: 0x5C }
  - { offset: 0x99C1A, size: 0x8, addend: 0x0, symName: __ZNSt3__117__compressed_pairIP3JetRNS_9allocatorIS1_EEE6secondB8ne180100Ev, symObjAddr: 0x2AACC, symBinAddr: 0x10002EC2C, symSize: 0x28 }
  - { offset: 0x99C40, size: 0x8, addend: 0x0, symName: __ZNSt3__122__compressed_pair_elemIRNS_9allocatorI3JetEELi1ELb0EE5__getB8ne180100Ev, symObjAddr: 0x2AAF4, symBinAddr: 0x10002EC54, symSize: 0x18 }
  - { offset: 0x99C66, size: 0x8, addend: 0x0, symName: __ZNSt3__117__compressed_pairIP3JetRNS_9allocatorIS1_EEE5firstB8ne180100Ev, symObjAddr: 0x2AB0C, symBinAddr: 0x10002EC6C, symSize: 0x24 }
  - { offset: 0x99C8C, size: 0x8, addend: 0x0, symName: __ZNSt3__116reverse_iteratorIP3JetEC1B8ne180100ES2_, symObjAddr: 0x2ABA8, symBinAddr: 0x10002ED08, symSize: 0x34 }
  - { offset: 0x99CC4, size: 0x8, addend: 0x0, symName: __ZNKSt3__116reverse_iteratorIP3JetE4baseB8ne180100Ev, symObjAddr: 0x2ABDC, symBinAddr: 0x10002ED3C, symSize: 0x18 }
  - { offset: 0x99CEA, size: 0x8, addend: 0x0, symName: __ZNKSt3__16vectorI3JetNS_9allocatorIS1_EEE14__annotate_newB8ne180100Em, symObjAddr: 0x2AC30, symBinAddr: 0x10002ED90, symSize: 0x14 }
  - { offset: 0x99D3B, size: 0x8, addend: 0x0, symName: __ZNKSt3__111__move_loopINS_17_ClassicAlgPolicyEEclB8ne180100INS_16reverse_iteratorIP3JetEES7_S7_EENS_4pairIT_T1_EES9_T0_SA_, symObjAddr: 0x2AF34, symBinAddr: 0x10002F094, symSize: 0x9C }
  - { offset: 0x99DAC, size: 0x8, addend: 0x0, symName: __ZNSt3__18_IterOpsINS_17_ClassicAlgPolicyEE11__iter_moveB8ne180100IRNS_16reverse_iteratorIP3JetEELi0EEEDTclsr3stdE4movedeclsr3stdE7declvalIRT_EEEEOS9_, symObjAddr: 0x2B164, symBinAddr: 0x10002F2C4, symSize: 0x28 }
  - { offset: 0x99DDE, size: 0x8, addend: 0x0, symName: __ZNKSt3__116reverse_iteratorIP3JetEdeB8ne180100Ev, symObjAddr: 0x2B18C, symBinAddr: 0x10002F2EC, symSize: 0x28 }
  - { offset: 0x99E12, size: 0x8, addend: 0x0, symName: __ZNSt3__116reverse_iteratorIP3JetEppB8ne180100Ev, symObjAddr: 0x2B1B4, symBinAddr: 0x10002F314, symSize: 0x20 }
  - { offset: 0x99E38, size: 0x8, addend: 0x0, symName: __ZNSt3__18_IterOpsINS_17_ClassicAlgPolicyEE25__validate_iter_referenceB8ne180100IRNS_16reverse_iteratorIP3JetEEEEvv, symObjAddr: 0x2B1D4, symBinAddr: 0x10002F334, symSize: 0x4 }
  - { offset: 0x99E56, size: 0x8, addend: 0x0, symName: __ZNSt3__118__unwrap_iter_implINS_16reverse_iteratorIP3JetEELb0EE8__unwrapB8ne180100ES4_, symObjAddr: 0x2B1D8, symBinAddr: 0x10002F338, symSize: 0x24 }
  - { offset: 0x99E7F, size: 0x8, addend: 0x0, symName: __ZNSt3__14pairINS_16reverse_iteratorIP3JetEES4_EC1B8ne180100IS4_S4_Li0EEEOT_OT0_, symObjAddr: 0x2B1FC, symBinAddr: 0x10002F35C, symSize: 0x3C }
  - { offset: 0x99EDD, size: 0x8, addend: 0x0, symName: __ZNSt3__14pairINS_16reverse_iteratorIP3JetEES4_EC2B8ne180100IS4_S4_Li0EEEOT_OT0_, symObjAddr: 0x2B238, symBinAddr: 0x10002F398, symSize: 0x34 }
  - { offset: 0x99F3B, size: 0x8, addend: 0x0, symName: __ZNSt3__118__unwrap_iter_implINS_16reverse_iteratorIP3JetEELb0EE8__rewrapB8ne180100ES4_S4_, symObjAddr: 0x2B26C, symBinAddr: 0x10002F3CC, symSize: 0x2C }
  - { offset: 0x99F69, size: 0x8, addend: 0x0, symName: __ZNSt3__116reverse_iteratorIP3JetEC2B8ne180100ES2_, symObjAddr: 0x2B298, symBinAddr: 0x10002F3F8, symSize: 0x28 }
  - { offset: 0x99FA1, size: 0x8, addend: 0x0, symName: __ZNSt3__114__split_bufferI3JetRNS_9allocatorIS1_EEED2Ev, symObjAddr: 0x2B2C0, symBinAddr: 0x10002F420, symSize: 0x8C }
  - { offset: 0x99FCD, size: 0x8, addend: 0x0, symName: __ZNSt3__114__split_bufferI3JetRNS_9allocatorIS1_EEE5clearB8ne180100Ev, symObjAddr: 0x2B34C, symBinAddr: 0x10002F4AC, symSize: 0x28 }
  - { offset: 0x99FF3, size: 0x8, addend: 0x0, symName: __ZNKSt3__114__split_bufferI3JetRNS_9allocatorIS1_EEE8capacityB8ne180100Ev, symObjAddr: 0x2B374, symBinAddr: 0x10002F4D4, symSize: 0x40 }
  - { offset: 0x9A019, size: 0x8, addend: 0x0, symName: __ZNSt3__114__split_bufferI3JetRNS_9allocatorIS1_EEE17__destruct_at_endB8ne180100EPS1_, symObjAddr: 0x2B3B4, symBinAddr: 0x10002F514, symSize: 0x2C }
  - { offset: 0x9A04D, size: 0x8, addend: 0x0, symName: __ZNSt3__114__split_bufferI3JetRNS_9allocatorIS1_EEE17__destruct_at_endB8ne180100EPS1_NS_17integral_constantIbLb0EEE, symObjAddr: 0x2B3E0, symBinAddr: 0x10002F540, symSize: 0x80 }
  - { offset: 0x9A08E, size: 0x8, addend: 0x0, symName: __ZNKSt3__114__split_bufferI3JetRNS_9allocatorIS1_EEE9__end_capB8ne180100Ev, symObjAddr: 0x2B460, symBinAddr: 0x10002F5C0, symSize: 0x28 }
  - { offset: 0x9A0B4, size: 0x8, addend: 0x0, symName: __ZNKSt3__117__compressed_pairIP3JetRNS_9allocatorIS1_EEE5firstB8ne180100Ev, symObjAddr: 0x2B488, symBinAddr: 0x10002F5E8, symSize: 0x24 }
  - { offset: 0x9A0DA, size: 0x8, addend: 0x0, symName: __ZNSt3__13mapIiiNS_4lessIiEENS_9allocatorINS_4pairIKiiEEEEEC1B8ne180100Ev, symObjAddr: 0x2B4D8, symBinAddr: 0x10002F638, symSize: 0x2C }
  - { offset: 0x9A104, size: 0x8, addend: 0x0, symName: __ZNSt3__13mapIiiNS_4lessIiEENS_9allocatorINS_4pairIKiiEEEEEixERS5_, symObjAddr: 0x2B504, symBinAddr: 0x10002F664, symSize: 0x80 }
  - { offset: 0x9A13B, size: 0x8, addend: 0x0, symName: __ZNKSt3__16__lessIvvEclB8ne180100IiiEEbRKT_RKT0_, symObjAddr: 0x2B5D8, symBinAddr: 0x10002F738, symSize: 0x34 }
  - { offset: 0x9A18F, size: 0x8, addend: 0x0, symName: __ZNSt3__13mapIiiNS_4lessIiEENS_9allocatorINS_4pairIKiiEEEEEC2B8ne180100Ev, symObjAddr: 0x2B60C, symBinAddr: 0x10002F76C, symSize: 0x40 }
  - { offset: 0x9A1B9, size: 0x8, addend: 0x0, symName: __ZNSt3__119__map_value_compareIiNS_12__value_typeIiiEENS_4lessIiEELb1EEC1B8ne180100ES4_, symObjAddr: 0x2B64C, symBinAddr: 0x10002F7AC, symSize: 0x2C }
  - { offset: 0x9A1F2, size: 0x8, addend: 0x0, symName: __ZNSt3__16__treeINS_12__value_typeIiiEENS_19__map_value_compareIiS2_NS_4lessIiEELb1EEENS_9allocatorIS2_EEEC1ERKS6_, symObjAddr: 0x2B678, symBinAddr: 0x10002F7D8, symSize: 0x34 }
  - { offset: 0x9A22D, size: 0x8, addend: 0x0, symName: __ZNSt3__119__map_value_compareIiNS_12__value_typeIiiEENS_4lessIiEELb1EEC2B8ne180100ES4_, symObjAddr: 0x2B6AC, symBinAddr: 0x10002F80C, symSize: 0x14 }
  - { offset: 0x9A266, size: 0x8, addend: 0x0, symName: __ZNSt3__16__treeINS_12__value_typeIiiEENS_19__map_value_compareIiS2_NS_4lessIiEELb1EEENS_9allocatorIS2_EEEC2ERKS6_, symObjAddr: 0x2B6C0, symBinAddr: 0x10002F820, symSize: 0x7C }
  - { offset: 0x9A2A1, size: 0x8, addend: 0x0, symName: __ZNSt3__117__compressed_pairINS_15__tree_end_nodeIPNS_16__tree_node_baseIPvEEEENS_9allocatorINS_11__tree_nodeINS_12__value_typeIiiEES3_EEEEEC1B8ne180100ILb1EvEEv, symObjAddr: 0x2B73C, symBinAddr: 0x10002F89C, symSize: 0x2C }
  - { offset: 0x9A2D6, size: 0x8, addend: 0x0, symName: __ZNSt3__117__compressed_pairImNS_19__map_value_compareIiNS_12__value_typeIiiEENS_4lessIiEELb1EEEEC1B8ne180100IiRKS6_EEOT_OT0_, symObjAddr: 0x2B768, symBinAddr: 0x10002F8C8, symSize: 0x3C }
  - { offset: 0x9A32E, size: 0x8, addend: 0x0, symName: __ZNSt3__16__treeINS_12__value_typeIiiEENS_19__map_value_compareIiS2_NS_4lessIiEELb1EEENS_9allocatorIS2_EEE10__end_nodeB8ne180100Ev, symObjAddr: 0x2B7A4, symBinAddr: 0x10002F904, symSize: 0x2C }
  - { offset: 0x9A354, size: 0x8, addend: 0x0, symName: __ZNSt3__16__treeINS_12__value_typeIiiEENS_19__map_value_compareIiS2_NS_4lessIiEELb1EEENS_9allocatorIS2_EEE12__begin_nodeB8ne180100Ev, symObjAddr: 0x2B7D0, symBinAddr: 0x10002F930, symSize: 0x14 }
  - { offset: 0x9A37A, size: 0x8, addend: 0x0, symName: __ZNSt3__117__compressed_pairINS_15__tree_end_nodeIPNS_16__tree_node_baseIPvEEEENS_9allocatorINS_11__tree_nodeINS_12__value_typeIiiEES3_EEEEEC2B8ne180100ILb1EvEEv, symObjAddr: 0x2B7E4, symBinAddr: 0x10002F944, symSize: 0x34 }
  - { offset: 0x9A3AF, size: 0x8, addend: 0x0, symName: __ZNSt3__122__compressed_pair_elemINS_15__tree_end_nodeIPNS_16__tree_node_baseIPvEEEELi0ELb0EEC2B8ne180100ENS_16__value_init_tagE, symObjAddr: 0x2B818, symBinAddr: 0x10002F978, symSize: 0x2C }
  - { offset: 0x9A3E4, size: 0x8, addend: 0x0, symName: __ZNSt3__122__compressed_pair_elemINS_9allocatorINS_11__tree_nodeINS_12__value_typeIiiEEPvEEEELi1ELb1EEC2B8ne180100ENS_16__value_init_tagE, symObjAddr: 0x2B844, symBinAddr: 0x10002F9A4, symSize: 0x2C }
  - { offset: 0x9A419, size: 0x8, addend: 0x0, symName: __ZNSt3__115__tree_end_nodeIPNS_16__tree_node_baseIPvEEEC1B8ne180100Ev, symObjAddr: 0x2B870, symBinAddr: 0x10002F9D0, symSize: 0x2C }
  - { offset: 0x9A443, size: 0x8, addend: 0x0, symName: __ZNSt3__115__tree_end_nodeIPNS_16__tree_node_baseIPvEEEC2B8ne180100Ev, symObjAddr: 0x2B89C, symBinAddr: 0x10002F9FC, symSize: 0x18 }
  - { offset: 0x9A46D, size: 0x8, addend: 0x0, symName: __ZNSt3__19allocatorINS_11__tree_nodeINS_12__value_typeIiiEEPvEEEC2B8ne180100Ev, symObjAddr: 0x2B8B4, symBinAddr: 0x10002FA14, symSize: 0x2C }
  - { offset: 0x9A497, size: 0x8, addend: 0x0, symName: __ZNSt3__116__non_trivial_ifILb1ENS_9allocatorINS_11__tree_nodeINS_12__value_typeIiiEEPvEEEEEC2B8ne180100Ev, symObjAddr: 0x2B8E0, symBinAddr: 0x10002FA40, symSize: 0x14 }
  - { offset: 0x9A4C1, size: 0x8, addend: 0x0, symName: __ZNSt3__117__compressed_pairImNS_19__map_value_compareIiNS_12__value_typeIiiEENS_4lessIiEELb1EEEEC2B8ne180100IiRKS6_EEOT_OT0_, symObjAddr: 0x2B8F4, symBinAddr: 0x10002FA54, symSize: 0x44 }
  - { offset: 0x9A519, size: 0x8, addend: 0x0, symName: __ZNSt3__122__compressed_pair_elemINS_19__map_value_compareIiNS_12__value_typeIiiEENS_4lessIiEELb1EEELi1ELb1EEC2B8ne180100IRKS6_vEEOT_, symObjAddr: 0x2B938, symBinAddr: 0x10002FA98, symSize: 0x18 }
  - { offset: 0x9A55B, size: 0x8, addend: 0x0, symName: __ZNSt3__114pointer_traitsIPNS_15__tree_end_nodeIPNS_16__tree_node_baseIPvEEEEE10pointer_toB8ne180100ERS6_, symObjAddr: 0x2B950, symBinAddr: 0x10002FAB0, symSize: 0x14 }
  - { offset: 0x9A57E, size: 0x8, addend: 0x0, symName: __ZNSt3__117__compressed_pairINS_15__tree_end_nodeIPNS_16__tree_node_baseIPvEEEENS_9allocatorINS_11__tree_nodeINS_12__value_typeIiiEES3_EEEEE5firstB8ne180100Ev, symObjAddr: 0x2B964, symBinAddr: 0x10002FAC4, symSize: 0x24 }
  - { offset: 0x9A5A4, size: 0x8, addend: 0x0, symName: __ZNSt3__122__compressed_pair_elemINS_15__tree_end_nodeIPNS_16__tree_node_baseIPvEEEELi0ELb0EE5__getB8ne180100Ev, symObjAddr: 0x2B988, symBinAddr: 0x10002FAE8, symSize: 0x14 }
  - { offset: 0x9A5E1, size: 0x8, addend: 0x0, symName: __ZNSt3__16__treeINS_12__value_typeIiiEENS_19__map_value_compareIiS2_NS_4lessIiEELb1EEENS_9allocatorIS2_EEE25__emplace_unique_key_argsIiJRKNS_21piecewise_construct_tENS_5tupleIJRKiEEENSE_IJEEEEEENS_4pairINS_15__tree_iteratorIS2_PNS_11__tree_nodeIS2_PvEElEEbEERKT_DpOT0_, symObjAddr: 0x2B99C, symBinAddr: 0x10002FAFC, symSize: 0x100 }
  - { offset: 0x9A6B7, size: 0x8, addend: 0x0, symName: __ZNKSt3__115__tree_iteratorINS_12__value_typeIiiEEPNS_11__tree_nodeIS2_PvEElEptB8ne180100Ev, symObjAddr: 0x2BACC, symBinAddr: 0x10002FC2C, symSize: 0x2C }
  - { offset: 0x9A6DD, size: 0x8, addend: 0x0, symName: __ZNSt3__112__value_typeIiiE11__get_valueB8ne180100Ev, symObjAddr: 0x2BAF8, symBinAddr: 0x10002FC58, symSize: 0x24 }
  - { offset: 0x9A703, size: 0x8, addend: 0x0, symName: __ZNSt3__16__treeINS_12__value_typeIiiEENS_19__map_value_compareIiS2_NS_4lessIiEELb1EEENS_9allocatorIS2_EEE12__find_equalIiEERPNS_16__tree_node_baseIPvEERPNS_15__tree_end_nodeISE_EERKT_, symObjAddr: 0x2BB1C, symBinAddr: 0x10002FC7C, symSize: 0x184 }
  - { offset: 0x9A770, size: 0x8, addend: 0x0, symName: __ZNSt3__16__treeINS_12__value_typeIiiEENS_19__map_value_compareIiS2_NS_4lessIiEELb1EEENS_9allocatorIS2_EEE16__construct_nodeIJRKNS_21piecewise_construct_tENS_5tupleIJRKiEEENSE_IJEEEEEENS_10unique_ptrINS_11__tree_nodeIS2_PvEENS_22__tree_node_destructorINS7_ISM_EEEEEEDpOT_, symObjAddr: 0x2BCA0, symBinAddr: 0x10002FE00, symSize: 0x120 }
  - { offset: 0x9A7F9, size: 0x8, addend: 0x0, symName: __ZNSt3__16__treeINS_12__value_typeIiiEENS_19__map_value_compareIiS2_NS_4lessIiEELb1EEENS_9allocatorIS2_EEE16__insert_node_atEPNS_15__tree_end_nodeIPNS_16__tree_node_baseIPvEEEERSE_SE_, symObjAddr: 0x2BDC0, symBinAddr: 0x10002FF20, symSize: 0xCC }
  - { offset: 0x9A84E, size: 0x8, addend: 0x0, symName: __ZNKSt3__110unique_ptrINS_11__tree_nodeINS_12__value_typeIiiEEPvEENS_22__tree_node_destructorINS_9allocatorIS5_EEEEE3getB8ne180100Ev, symObjAddr: 0x2BE8C, symBinAddr: 0x10002FFEC, symSize: 0x28 }
  - { offset: 0x9A874, size: 0x8, addend: 0x0, symName: __ZNSt3__110unique_ptrINS_11__tree_nodeINS_12__value_typeIiiEEPvEENS_22__tree_node_destructorINS_9allocatorIS5_EEEEE7releaseB8ne180100Ev, symObjAddr: 0x2BEB4, symBinAddr: 0x100030014, symSize: 0x44 }
  - { offset: 0x9A8A9, size: 0x8, addend: 0x0, symName: __ZNSt3__110unique_ptrINS_11__tree_nodeINS_12__value_typeIiiEEPvEENS_22__tree_node_destructorINS_9allocatorIS5_EEEEED1B8ne180100Ev, symObjAddr: 0x2BEF8, symBinAddr: 0x100030058, symSize: 0x2C }
  - { offset: 0x9A8D3, size: 0x8, addend: 0x0, symName: __ZNSt3__115__tree_iteratorINS_12__value_typeIiiEEPNS_11__tree_nodeIS2_PvEElEC1B8ne180100ES6_, symObjAddr: 0x2BF24, symBinAddr: 0x100030084, symSize: 0x34 }
  - { offset: 0x9A912, size: 0x8, addend: 0x0, symName: __ZNSt3__14pairINS_15__tree_iteratorINS_12__value_typeIiiEEPNS_11__tree_nodeIS3_PvEElEEbEC1B8ne180100IS8_RbLi0EEEOT_OT0_, symObjAddr: 0x2BF58, symBinAddr: 0x1000300B8, symSize: 0x3C }
  - { offset: 0x9A970, size: 0x8, addend: 0x0, symName: __ZNKSt3__16__treeINS_12__value_typeIiiEENS_19__map_value_compareIiS2_NS_4lessIiEELb1EEENS_9allocatorIS2_EEE6__rootB8ne180100Ev, symObjAddr: 0x2BF94, symBinAddr: 0x1000300F4, symSize: 0x28 }
  - { offset: 0x9A996, size: 0x8, addend: 0x0, symName: __ZNKSt3__16__treeINS_12__value_typeIiiEENS_19__map_value_compareIiS2_NS_4lessIiEELb1EEENS_9allocatorIS2_EEE10__root_ptrB8ne180100Ev, symObjAddr: 0x2BFBC, symBinAddr: 0x10003011C, symSize: 0x24 }
  - { offset: 0x9A9BC, size: 0x8, addend: 0x0, symName: __ZNSt3__16__treeINS_12__value_typeIiiEENS_19__map_value_compareIiS2_NS_4lessIiEELb1EEENS_9allocatorIS2_EEE10value_compB8ne180100Ev, symObjAddr: 0x2BFE0, symBinAddr: 0x100030140, symSize: 0x28 }
  - { offset: 0x9A9E2, size: 0x8, addend: 0x0, symName: __ZNKSt3__119__map_value_compareIiNS_12__value_typeIiiEENS_4lessIiEELb1EEclB8ne180100ERKiRKS2_, symObjAddr: 0x2C008, symBinAddr: 0x100030168, symSize: 0x50 }
  - { offset: 0x9AA26, size: 0x8, addend: 0x0, symName: __ZNKSt3__119__map_value_compareIiNS_12__value_typeIiiEENS_4lessIiEELb1EEclB8ne180100ERKS2_RKi, symObjAddr: 0x2C058, symBinAddr: 0x1000301B8, symSize: 0x48 }
  - { offset: 0x9AA6A, size: 0x8, addend: 0x0, symName: __ZNKSt3__16__treeINS_12__value_typeIiiEENS_19__map_value_compareIiS2_NS_4lessIiEELb1EEENS_9allocatorIS2_EEE10__end_nodeB8ne180100Ev, symObjAddr: 0x2C0A0, symBinAddr: 0x100030200, symSize: 0x2C }
  - { offset: 0x9AA90, size: 0x8, addend: 0x0, symName: __ZNKSt3__117__compressed_pairINS_15__tree_end_nodeIPNS_16__tree_node_baseIPvEEEENS_9allocatorINS_11__tree_nodeINS_12__value_typeIiiEES3_EEEEE5firstB8ne180100Ev, symObjAddr: 0x2C0CC, symBinAddr: 0x10003022C, symSize: 0x24 }
  - { offset: 0x9AAB6, size: 0x8, addend: 0x0, symName: __ZNKSt3__122__compressed_pair_elemINS_15__tree_end_nodeIPNS_16__tree_node_baseIPvEEEELi0ELb0EE5__getB8ne180100Ev, symObjAddr: 0x2C0F0, symBinAddr: 0x100030250, symSize: 0x14 }
  - { offset: 0x9AADC, size: 0x8, addend: 0x0, symName: __ZNSt3__117__compressed_pairImNS_19__map_value_compareIiNS_12__value_typeIiiEENS_4lessIiEELb1EEEE6secondB8ne180100Ev, symObjAddr: 0x2C104, symBinAddr: 0x100030264, symSize: 0x24 }
  - { offset: 0x9AB02, size: 0x8, addend: 0x0, symName: __ZNSt3__122__compressed_pair_elemINS_19__map_value_compareIiNS_12__value_typeIiiEENS_4lessIiEELb1EEELi1ELb1EE5__getB8ne180100Ev, symObjAddr: 0x2C128, symBinAddr: 0x100030288, symSize: 0x14 }
  - { offset: 0x9AB28, size: 0x8, addend: 0x0, symName: __ZNKSt3__14lessIiEclB8ne180100ERKiS3_, symObjAddr: 0x2C13C, symBinAddr: 0x10003029C, symSize: 0x34 }
  - { offset: 0x9AB6C, size: 0x8, addend: 0x0, symName: __ZNKSt3__112__value_typeIiiE11__get_valueB8ne180100Ev, symObjAddr: 0x2C170, symBinAddr: 0x1000302D0, symSize: 0x24 }
  - { offset: 0x9AB92, size: 0x8, addend: 0x0, symName: __ZNSt3__16__treeINS_12__value_typeIiiEENS_19__map_value_compareIiS2_NS_4lessIiEELb1EEENS_9allocatorIS2_EEE12__node_allocB8ne180100Ev, symObjAddr: 0x2C1CC, symBinAddr: 0x10003032C, symSize: 0x28 }
  - { offset: 0x9ABB8, size: 0x8, addend: 0x0, symName: __ZNSt3__116allocator_traitsINS_9allocatorINS_11__tree_nodeINS_12__value_typeIiiEEPvEEEEE8allocateB8ne180100ERS7_m, symObjAddr: 0x2C1F4, symBinAddr: 0x100030354, symSize: 0x2C }
  - { offset: 0x9ABEB, size: 0x8, addend: 0x0, symName: __ZNSt3__122__tree_node_destructorINS_9allocatorINS_11__tree_nodeINS_12__value_typeIiiEEPvEEEEEC1B8ne180100ERS7_b, symObjAddr: 0x2C220, symBinAddr: 0x100030380, symSize: 0x48 }
  - { offset: 0x9AC39, size: 0x8, addend: 0x0, symName: __ZNSt3__110unique_ptrINS_11__tree_nodeINS_12__value_typeIiiEEPvEENS_22__tree_node_destructorINS_9allocatorIS5_EEEEEC1B8ne180100ILb1EvEEPS5_NS_16__dependent_typeINS_27__unique_ptr_deleter_sfinaeIS9_EEXT_EE20__good_rval_ref_typeE, symObjAddr: 0x2C268, symBinAddr: 0x1000303C8, symSize: 0x3C }
  - { offset: 0x9AC8A, size: 0x8, addend: 0x0, symName: __ZNSt3__116allocator_traitsINS_9allocatorINS_11__tree_nodeINS_12__value_typeIiiEEPvEEEEE9constructB8ne180100INS_4pairIKiiEEJRKNS_21piecewise_construct_tENS_5tupleIJRSB_EEENSG_IJEEEEvEEvRS7_PT_DpOT0_, symObjAddr: 0x2C2A4, symBinAddr: 0x100030404, symSize: 0x44 }
  - { offset: 0x9AD09, size: 0x8, addend: 0x0, symName: __ZNSt3__122__tree_key_value_typesINS_12__value_typeIiiEEE9__get_ptrB8ne180100ERS2_, symObjAddr: 0x2C2E8, symBinAddr: 0x100030448, symSize: 0x24 }
  - { offset: 0x9AD2D, size: 0x8, addend: 0x0, symName: __ZNKSt3__110unique_ptrINS_11__tree_nodeINS_12__value_typeIiiEEPvEENS_22__tree_node_destructorINS_9allocatorIS5_EEEEEptB8ne180100Ev, symObjAddr: 0x2C30C, symBinAddr: 0x10003046C, symSize: 0x28 }
  - { offset: 0x9AD53, size: 0x8, addend: 0x0, symName: __ZNSt3__110unique_ptrINS_11__tree_nodeINS_12__value_typeIiiEEPvEENS_22__tree_node_destructorINS_9allocatorIS5_EEEEE11get_deleterB8ne180100Ev, symObjAddr: 0x2C334, symBinAddr: 0x100030494, symSize: 0x24 }
  - { offset: 0x9AD79, size: 0x8, addend: 0x0, symName: __ZNSt3__117__compressed_pairINS_15__tree_end_nodeIPNS_16__tree_node_baseIPvEEEENS_9allocatorINS_11__tree_nodeINS_12__value_typeIiiEES3_EEEEE6secondB8ne180100Ev, symObjAddr: 0x2C358, symBinAddr: 0x1000304B8, symSize: 0x24 }
  - { offset: 0x9AD9F, size: 0x8, addend: 0x0, symName: __ZNSt3__122__compressed_pair_elemINS_9allocatorINS_11__tree_nodeINS_12__value_typeIiiEEPvEEEELi1ELb1EE5__getB8ne180100Ev, symObjAddr: 0x2C37C, symBinAddr: 0x1000304DC, symSize: 0x14 }
  - { offset: 0x9ADC5, size: 0x8, addend: 0x0, symName: __ZNSt3__19allocatorINS_11__tree_nodeINS_12__value_typeIiiEEPvEEE8allocateB8ne180100Em, symObjAddr: 0x2C390, symBinAddr: 0x1000304F0, symSize: 0x5C }
  - { offset: 0x9AE04, size: 0x8, addend: 0x0, symName: __ZNSt3__116allocator_traitsINS_9allocatorINS_11__tree_nodeINS_12__value_typeIiiEEPvEEEEE8max_sizeB8ne180100IS7_vEEmRKS7_, symObjAddr: 0x2C3EC, symBinAddr: 0x10003054C, symSize: 0x24 }
  - { offset: 0x9AE32, size: 0x8, addend: 0x0, symName: __ZNKSt3__19allocatorINS_11__tree_nodeINS_12__value_typeIiiEEPvEEE8max_sizeB8ne180100Ev, symObjAddr: 0x2C410, symBinAddr: 0x100030570, symSize: 0x18 }
  - { offset: 0x9AE58, size: 0x8, addend: 0x0, symName: __ZNSt3__122__tree_node_destructorINS_9allocatorINS_11__tree_nodeINS_12__value_typeIiiEEPvEEEEEC2B8ne180100ERS7_b, symObjAddr: 0x2C428, symBinAddr: 0x100030588, symSize: 0x38 }
  - { offset: 0x9AEA0, size: 0x8, addend: 0x0, symName: __ZNSt3__110unique_ptrINS_11__tree_nodeINS_12__value_typeIiiEEPvEENS_22__tree_node_destructorINS_9allocatorIS5_EEEEEC2B8ne180100ILb1EvEEPS5_NS_16__dependent_typeINS_27__unique_ptr_deleter_sfinaeIS9_EEXT_EE20__good_rval_ref_typeE, symObjAddr: 0x2C460, symBinAddr: 0x1000305C0, symSize: 0x48 }
  - { offset: 0x9AEF1, size: 0x8, addend: 0x0, symName: __ZNSt3__117__compressed_pairIPNS_11__tree_nodeINS_12__value_typeIiiEEPvEENS_22__tree_node_destructorINS_9allocatorIS5_EEEEEC1B8ne180100IRS6_SA_EEOT_OT0_, symObjAddr: 0x2C4A8, symBinAddr: 0x100030608, symSize: 0x3C }
  - { offset: 0x9AF49, size: 0x8, addend: 0x0, symName: __ZNSt3__117__compressed_pairIPNS_11__tree_nodeINS_12__value_typeIiiEEPvEENS_22__tree_node_destructorINS_9allocatorIS5_EEEEEC2B8ne180100IRS6_SA_EEOT_OT0_, symObjAddr: 0x2C4E4, symBinAddr: 0x100030644, symSize: 0x48 }
  - { offset: 0x9AFA1, size: 0x8, addend: 0x0, symName: __ZNSt3__122__compressed_pair_elemIPNS_11__tree_nodeINS_12__value_typeIiiEEPvEELi0ELb0EEC2B8ne180100IRS6_vEEOT_, symObjAddr: 0x2C52C, symBinAddr: 0x10003068C, symSize: 0x24 }
  - { offset: 0x9AFE3, size: 0x8, addend: 0x0, symName: __ZNSt3__122__compressed_pair_elemINS_22__tree_node_destructorINS_9allocatorINS_11__tree_nodeINS_12__value_typeIiiEEPvEEEEEELi1ELb0EEC2B8ne180100IS9_vEEOT_, symObjAddr: 0x2C550, symBinAddr: 0x1000306B0, symSize: 0x24 }
  - { offset: 0x9B025, size: 0x8, addend: 0x0, symName: __ZNSt3__19allocatorINS_11__tree_nodeINS_12__value_typeIiiEEPvEEE9constructB8ne180100INS_4pairIKiiEEJRKNS_21piecewise_construct_tENS_5tupleIJRS9_EEENSE_IJEEEEEEvPT_DpOT0_, symObjAddr: 0x2C574, symBinAddr: 0x1000306D4, symSize: 0x44 }
  - { offset: 0x9B0A1, size: 0x8, addend: 0x0, symName: __ZNSt3__14pairIKiiEC1B8ne180100IJRS1_EJEEENS_21piecewise_construct_tENS_5tupleIJDpT_EEENS6_IJDpT0_EEE, symObjAddr: 0x2C5B8, symBinAddr: 0x100030718, symSize: 0x44 }
  - { offset: 0x9B108, size: 0x8, addend: 0x0, symName: __ZNSt3__14pairIKiiEC1B8ne180100IJRS1_EJEJLm0EEJEEENS_21piecewise_construct_tERNS_5tupleIJDpT_EEERNS6_IJDpT0_EEENS_15__tuple_indicesIJXspT1_EEEENSF_IJXspT2_EEEE, symObjAddr: 0x2C5FC, symBinAddr: 0x10003075C, symSize: 0x3C }
  - { offset: 0x9B195, size: 0x8, addend: 0x0, symName: __ZNSt3__14pairIKiiEC2B8ne180100IJRS1_EJEJLm0EEJEEENS_21piecewise_construct_tERNS_5tupleIJDpT_EEERNS6_IJDpT0_EEENS_15__tuple_indicesIJXspT1_EEEENSF_IJXspT2_EEEE, symObjAddr: 0x2C638, symBinAddr: 0x100030798, symSize: 0x48 }
  - { offset: 0x9B222, size: 0x8, addend: 0x0, symName: __ZNSt3__112__tuple_leafILm0ERKiLb0EE3getB8ne180100Ev, symObjAddr: 0x2C6A4, symBinAddr: 0x100030804, symSize: 0x18 }
  - { offset: 0x9B248, size: 0x8, addend: 0x0, symName: __ZNKSt3__117__compressed_pairIPNS_11__tree_nodeINS_12__value_typeIiiEEPvEENS_22__tree_node_destructorINS_9allocatorIS5_EEEEE5firstB8ne180100Ev, symObjAddr: 0x2C6BC, symBinAddr: 0x10003081C, symSize: 0x24 }
  - { offset: 0x9B26E, size: 0x8, addend: 0x0, symName: __ZNKSt3__122__compressed_pair_elemIPNS_11__tree_nodeINS_12__value_typeIiiEEPvEELi0ELb0EE5__getB8ne180100Ev, symObjAddr: 0x2C6E0, symBinAddr: 0x100030840, symSize: 0x14 }
  - { offset: 0x9B294, size: 0x8, addend: 0x0, symName: __ZNSt3__117__compressed_pairIPNS_11__tree_nodeINS_12__value_typeIiiEEPvEENS_22__tree_node_destructorINS_9allocatorIS5_EEEEE6secondB8ne180100Ev, symObjAddr: 0x2C6F4, symBinAddr: 0x100030854, symSize: 0x28 }
  - { offset: 0x9B2BA, size: 0x8, addend: 0x0, symName: __ZNSt3__122__compressed_pair_elemINS_22__tree_node_destructorINS_9allocatorINS_11__tree_nodeINS_12__value_typeIiiEEPvEEEEEELi1ELb0EE5__getB8ne180100Ev, symObjAddr: 0x2C71C, symBinAddr: 0x10003087C, symSize: 0x14 }
  - { offset: 0x9B2E0, size: 0x8, addend: 0x0, symName: __ZNSt3__16__treeINS_12__value_typeIiiEENS_19__map_value_compareIiS2_NS_4lessIiEELb1EEENS_9allocatorIS2_EEE4sizeB8ne180100Ev, symObjAddr: 0x2CA5C, symBinAddr: 0x100030BBC, symSize: 0x28 }
  - { offset: 0x9B306, size: 0x8, addend: 0x0, symName: __ZNKSt3__116__tree_node_baseIPvE15__parent_unsafeB8ne180100Ev, symObjAddr: 0x2CA84, symBinAddr: 0x100030BE4, symSize: 0x18 }
  - { offset: 0x9B32C, size: 0x8, addend: 0x0, symName: __ZNSt3__116__tree_node_baseIPvE12__set_parentB8ne180100EPS2_, symObjAddr: 0x2CC6C, symBinAddr: 0x100030DCC, symSize: 0x20 }
  - { offset: 0x9B361, size: 0x8, addend: 0x0, symName: __ZNSt3__117__compressed_pairImNS_19__map_value_compareIiNS_12__value_typeIiiEENS_4lessIiEELb1EEEE5firstB8ne180100Ev, symObjAddr: 0x2CC8C, symBinAddr: 0x100030DEC, symSize: 0x24 }
  - { offset: 0x9B387, size: 0x8, addend: 0x0, symName: __ZNSt3__117__compressed_pairIPNS_11__tree_nodeINS_12__value_typeIiiEEPvEENS_22__tree_node_destructorINS_9allocatorIS5_EEEEE5firstB8ne180100Ev, symObjAddr: 0x2CCB0, symBinAddr: 0x100030E10, symSize: 0x24 }
  - { offset: 0x9B3AD, size: 0x8, addend: 0x0, symName: __ZNSt3__122__compressed_pair_elemIPNS_11__tree_nodeINS_12__value_typeIiiEEPvEELi0ELb0EE5__getB8ne180100Ev, symObjAddr: 0x2CCD4, symBinAddr: 0x100030E34, symSize: 0x14 }
  - { offset: 0x9B3D3, size: 0x8, addend: 0x0, symName: __ZNSt3__110unique_ptrINS_11__tree_nodeINS_12__value_typeIiiEEPvEENS_22__tree_node_destructorINS_9allocatorIS5_EEEEED2B8ne180100Ev, symObjAddr: 0x2CCE8, symBinAddr: 0x100030E48, symSize: 0x30 }
  - { offset: 0x9B3FD, size: 0x8, addend: 0x0, symName: __ZNSt3__110unique_ptrINS_11__tree_nodeINS_12__value_typeIiiEEPvEENS_22__tree_node_destructorINS_9allocatorIS5_EEEEE5resetB8ne180100EPS5_, symObjAddr: 0x2CD18, symBinAddr: 0x100030E78, symSize: 0x78 }
  - { offset: 0x9B441, size: 0x8, addend: 0x0, symName: __ZNSt3__122__tree_node_destructorINS_9allocatorINS_11__tree_nodeINS_12__value_typeIiiEEPvEEEEEclB8ne180100EPS6_, symObjAddr: 0x2CD90, symBinAddr: 0x100030EF0, symSize: 0x98 }
  - { offset: 0x9B476, size: 0x8, addend: 0x0, symName: __ZNSt3__116allocator_traitsINS_9allocatorINS_11__tree_nodeINS_12__value_typeIiiEEPvEEEEE7destroyB8ne180100INS_4pairIKiiEEvvEEvRS7_PT_, symObjAddr: 0x2CE28, symBinAddr: 0x100030F88, symSize: 0x28 }
  - { offset: 0x9B4B0, size: 0x8, addend: 0x0, symName: __ZNSt3__116allocator_traitsINS_9allocatorINS_11__tree_nodeINS_12__value_typeIiiEEPvEEEEE10deallocateB8ne180100ERS7_PS6_m, symObjAddr: 0x2CE50, symBinAddr: 0x100030FB0, symSize: 0x34 }
  - { offset: 0x9B4F2, size: 0x8, addend: 0x0, symName: __ZNSt3__19allocatorINS_11__tree_nodeINS_12__value_typeIiiEEPvEEE10deallocateB8ne180100EPS5_m, symObjAddr: 0x2CE94, symBinAddr: 0x100030FF4, symSize: 0x44 }
  - { offset: 0x9B534, size: 0x8, addend: 0x0, symName: __ZNSt3__115__tree_iteratorINS_12__value_typeIiiEEPNS_11__tree_nodeIS2_PvEElEC2B8ne180100ES6_, symObjAddr: 0x2CED8, symBinAddr: 0x100031038, symSize: 0x20 }
  - { offset: 0x9B56D, size: 0x8, addend: 0x0, symName: __ZNSt3__14pairINS_15__tree_iteratorINS_12__value_typeIiiEEPNS_11__tree_nodeIS3_PvEElEEbEC2B8ne180100IS8_RbLi0EEEOT_OT0_, symObjAddr: 0x2CEF8, symBinAddr: 0x100031058, symSize: 0x38 }
  - { offset: 0x9B5CB, size: 0x8, addend: 0x0, symName: __ZNSt3__15tupleIJRKiEEC1B8ne180100INS_4_AndELi0EEES2_, symObjAddr: 0x2CF30, symBinAddr: 0x100031090, symSize: 0x34 }
  - { offset: 0x9B613, size: 0x8, addend: 0x0, symName: __ZNSt3__15tupleIJRKiEEC2B8ne180100INS_4_AndELi0EEES2_, symObjAddr: 0x2CF64, symBinAddr: 0x1000310C4, symSize: 0x34 }
  - { offset: 0x9B65B, size: 0x8, addend: 0x0, symName: __ZNSt3__112__tuple_implINS_15__tuple_indicesIJLm0EEEEJRKiEEC1B8ne180100IJLm0EEJS4_EJEJEJS4_EEENS1_IJXspT_EEEENS_13__tuple_typesIJDpT0_EEENS1_IJXspT1_EEEENS8_IJDpT2_EEEDpOT3_, symObjAddr: 0x2CF98, symBinAddr: 0x1000310F8, symSize: 0x34 }
  - { offset: 0x9B6EC, size: 0x8, addend: 0x0, symName: __ZNSt3__112__tuple_implINS_15__tuple_indicesIJLm0EEEEJRKiEEC2B8ne180100IJLm0EEJS4_EJEJEJS4_EEENS1_IJXspT_EEEENS_13__tuple_typesIJDpT0_EEENS1_IJXspT1_EEEENS8_IJDpT2_EEEDpOT3_, symObjAddr: 0x2CFCC, symBinAddr: 0x10003112C, symSize: 0x34 }
  - { offset: 0x9B77D, size: 0x8, addend: 0x0, symName: __ZNSt3__112__tuple_leafILm0ERKiLb0EEC2B8ne180100IS2_vEEOT_, symObjAddr: 0x2D000, symBinAddr: 0x100031160, symSize: 0x20 }
  - { offset: 0x9B7C0, size: 0x8, addend: 0x0, symName: __ZNSt3__114pointer_traitsIPNS_12__value_typeIiiEEE10pointer_toB8ne180100ERS2_, symObjAddr: 0x2D020, symBinAddr: 0x100031180, symSize: 0x14 }
  - { offset: 0x9B7E3, size: 0x8, addend: 0x0, symName: __ZNKSt3__115__tree_iteratorINS_12__value_typeIiiEEPNS_11__tree_nodeIS2_PvEElE8__get_npB8ne180100Ev, symObjAddr: 0x2D034, symBinAddr: 0x100031194, symSize: 0x18 }
  - { offset: 0x9B809, size: 0x8, addend: 0x0, symName: __ZNSt3__16vectorI3JetNS_9allocatorIS1_EEEC2ERKS4_, symObjAddr: 0x2D084, symBinAddr: 0x1000311E4, symSize: 0x94 }
  - { offset: 0x9B844, size: 0x8, addend: 0x0, symName: __ZNSt3__116allocator_traitsINS_9allocatorI3JetEEE37select_on_container_copy_constructionB8ne180100IS3_vvEES3_RKS3_, symObjAddr: 0x2D118, symBinAddr: 0x100031278, symSize: 0x10 }
  - { offset: 0x9B879, size: 0x8, addend: 0x0, symName: __ZNSt3__117__compressed_pairIP3JetNS_9allocatorIS1_EEEC1B8ne180100IDnS4_EEOT_OT0_, symObjAddr: 0x2D128, symBinAddr: 0x100031288, symSize: 0x3C }
  - { offset: 0x9B8D1, size: 0x8, addend: 0x0, symName: __ZNSt3__16vectorI3JetNS_9allocatorIS1_EEE16__init_with_sizeB8ne180100IPS1_S6_EEvT_T0_m, symObjAddr: 0x2D164, symBinAddr: 0x1000312C4, symSize: 0xB8 }
  - { offset: 0x9B945, size: 0x8, addend: 0x0, symName: __ZNSt3__117__compressed_pairIP3JetNS_9allocatorIS1_EEEC2B8ne180100IDnS4_EEOT_OT0_, symObjAddr: 0x2D21C, symBinAddr: 0x10003137C, symSize: 0x44 }
  - { offset: 0x9B99D, size: 0x8, addend: 0x0, symName: __ZNSt3__122__compressed_pair_elemINS_9allocatorI3JetEELi1ELb1EEC2B8ne180100IS3_vEEOT_, symObjAddr: 0x2D260, symBinAddr: 0x1000313C0, symSize: 0x18 }
  - { offset: 0x9B9DF, size: 0x8, addend: 0x0, symName: __ZNSt3__16vectorI3JetNS_9allocatorIS1_EEE11__vallocateB8ne180100Em, symObjAddr: 0x2D2B8, symBinAddr: 0x100031418, symSize: 0xB4 }
  - { offset: 0x9BA23, size: 0x8, addend: 0x0, symName: __ZNSt3__16vectorI3JetNS_9allocatorIS1_EEE18__construct_at_endIPS1_S6_EEvT_T0_m, symObjAddr: 0x2D36C, symBinAddr: 0x1000314CC, symSize: 0x8C }
  - { offset: 0x9BA99, size: 0x8, addend: 0x0, symName: __ZNSt3__128__exception_guard_exceptionsINS_6vectorI3JetNS_9allocatorIS2_EEE16__destroy_vectorEE10__completeB8ne180100Ev, symObjAddr: 0x2D3F8, symBinAddr: 0x100031558, symSize: 0x1C }
  - { offset: 0x9BABF, size: 0x8, addend: 0x0, symName: __ZNSt3__128__exception_guard_exceptionsINS_6vectorI3JetNS_9allocatorIS2_EEE16__destroy_vectorEED1B8ne180100Ev, symObjAddr: 0x2D414, symBinAddr: 0x100031574, symSize: 0x2C }
  - { offset: 0x9BAE9, size: 0x8, addend: 0x0, symName: __ZNSt3__128__exception_guard_exceptionsINS_6vectorI3JetNS_9allocatorIS2_EEE16__destroy_vectorEEC1B8ne180100ES6_, symObjAddr: 0x2D440, symBinAddr: 0x1000315A0, symSize: 0x34 }
  - { offset: 0x9BB21, size: 0x8, addend: 0x0, symName: __ZNSt3__128__exception_guard_exceptionsINS_6vectorI3JetNS_9allocatorIS2_EEE16__destroy_vectorEEC2B8ne180100ES6_, symObjAddr: 0x2D474, symBinAddr: 0x1000315D4, symSize: 0x24 }
  - { offset: 0x9BB7B, size: 0x8, addend: 0x0, symName: __ZNSt3__14pairIP3JetS2_EC1B8ne180100IS2_S2_Li0EEEOT_OT0_, symObjAddr: 0x2D648, symBinAddr: 0x1000317A8, symSize: 0x3C }
  - { offset: 0x9BBD9, size: 0x8, addend: 0x0, symName: __ZNSt3__14pairIP3JetS2_EC2B8ne180100IS2_S2_Li0EEEOT_OT0_, symObjAddr: 0x2D684, symBinAddr: 0x1000317E4, symSize: 0x34 }
  - { offset: 0x9BC37, size: 0x8, addend: 0x0, symName: __ZNKSt3__114__copy_trivialclB8ne180100I3JetS2_Li0EEENS_4pairIPT_PT0_EES5_S5_S7_, symObjAddr: 0x2D834, symBinAddr: 0x100031994, symSize: 0x48 }
  - { offset: 0x9BC9F, size: 0x8, addend: 0x0, symName: __ZNSt3__14pairIP3JetS2_EC1B8ne180100IRS2_S2_Li0EEEOT_OT0_, symObjAddr: 0x2D9D0, symBinAddr: 0x100031B30, symSize: 0x3C }
  - { offset: 0x9BCFD, size: 0x8, addend: 0x0, symName: __ZNSt3__14pairIP3JetS2_EC2B8ne180100IRS2_S2_Li0EEEOT_OT0_, symObjAddr: 0x2DA0C, symBinAddr: 0x100031B6C, symSize: 0x34 }
  - { offset: 0x9BD5B, size: 0x8, addend: 0x0, symName: __ZNSt3__118__unwrap_iter_implIP3JetLb1EE8__unwrapB8ne180100ES2_, symObjAddr: 0x2DA40, symBinAddr: 0x100031BA0, symSize: 0x24 }
  - { offset: 0x9BD7E, size: 0x8, addend: 0x0, symName: __ZNSt3__118__unwrap_iter_implIP3JetLb1EE8__rewrapB8ne180100ES2_S2_, symObjAddr: 0x2DA64, symBinAddr: 0x100031BC4, symSize: 0x58 }
  - { offset: 0x9BDAF, size: 0x8, addend: 0x0, symName: __ZNSt3__128__exception_guard_exceptionsINS_6vectorI3JetNS_9allocatorIS2_EEE16__destroy_vectorEED2B8ne180100Ev, symObjAddr: 0x2DABC, symBinAddr: 0x100031C1C, symSize: 0x48 }
  - { offset: 0x9BDD9, size: 0x8, addend: 0x0, symName: __ZNSt3__13mapIiiNS_4lessIiEENS_9allocatorINS_4pairIKiiEEEEED2B8ne180100Ev, symObjAddr: 0x2DB04, symBinAddr: 0x100031C64, symSize: 0x2C }
  - { offset: 0x9BE03, size: 0x8, addend: 0x0, symName: __ZNSt3__16__treeINS_12__value_typeIiiEENS_19__map_value_compareIiS2_NS_4lessIiEELb1EEENS_9allocatorIS2_EEED1Ev, symObjAddr: 0x2DB30, symBinAddr: 0x100031C90, symSize: 0x2C }
  - { offset: 0x9BE2F, size: 0x8, addend: 0x0, symName: __ZNSt3__16__treeINS_12__value_typeIiiEENS_19__map_value_compareIiS2_NS_4lessIiEELb1EEENS_9allocatorIS2_EEED2Ev, symObjAddr: 0x2DB5C, symBinAddr: 0x100031CBC, symSize: 0x38 }
  - { offset: 0x9BE5B, size: 0x8, addend: 0x0, symName: __ZNSt3__16__treeINS_12__value_typeIiiEENS_19__map_value_compareIiS2_NS_4lessIiEELb1EEENS_9allocatorIS2_EEE7destroyEPNS_11__tree_nodeIS2_PvEE, symObjAddr: 0x2DB94, symBinAddr: 0x100031CF4, symSize: 0xAC }
  - { offset: 0x9BEA7, size: 0x8, addend: 0x0, symName: __ZNSt3__16vectorIbNS_9allocatorIbEEEC2EmRKb, symObjAddr: 0x2DC40, symBinAddr: 0x100031DA0, symSize: 0x90 }
  - { offset: 0x9BEF1, size: 0x8, addend: 0x0, symName: __ZNSt3__117__compressed_pairImNS_9allocatorImEEEC1B8ne180100IiNS_18__default_init_tagEEEOT_OT0_, symObjAddr: 0x2DCD0, symBinAddr: 0x100031E30, symSize: 0x3C }
  - { offset: 0x9BF49, size: 0x8, addend: 0x0, symName: __ZNSt3__16vectorIbNS_9allocatorIbEEE11__vallocateB8ne180100Em, symObjAddr: 0x2DD0C, symBinAddr: 0x100031E6C, symSize: 0xA0 }
  - { offset: 0x9BF8D, size: 0x8, addend: 0x0, symName: __ZNSt3__16vectorIbNS_9allocatorIbEEE18__construct_at_endB8ne180100Emb, symObjAddr: 0x2DDAC, symBinAddr: 0x100031F0C, symSize: 0x108 }
  - { offset: 0x9BFE2, size: 0x8, addend: 0x0, symName: __ZNSt3__117__compressed_pairImNS_9allocatorImEEEC2B8ne180100IiNS_18__default_init_tagEEEOT_OT0_, symObjAddr: 0x2DEB4, symBinAddr: 0x100032014, symSize: 0x40 }
  - { offset: 0x9C03A, size: 0x8, addend: 0x0, symName: __ZNSt3__122__compressed_pair_elemINS_9allocatorImEELi1ELb1EEC2B8ne180100ENS_18__default_init_tagE, symObjAddr: 0x2DEF4, symBinAddr: 0x100032054, symSize: 0x2C }
  - { offset: 0x9C06F, size: 0x8, addend: 0x0, symName: __ZNSt3__19allocatorImEC2B8ne180100Ev, symObjAddr: 0x2DF20, symBinAddr: 0x100032080, symSize: 0x2C }
  - { offset: 0x9C099, size: 0x8, addend: 0x0, symName: __ZNSt3__116__non_trivial_ifILb1ENS_9allocatorImEEEC2B8ne180100Ev, symObjAddr: 0x2DF4C, symBinAddr: 0x1000320AC, symSize: 0x14 }
  - { offset: 0x9C0C3, size: 0x8, addend: 0x0, symName: __ZNKSt3__16vectorIbNS_9allocatorIbEEE8max_sizeEv, symObjAddr: 0x2DF60, symBinAddr: 0x1000320C0, symSize: 0x7C }
  - { offset: 0x9C109, size: 0x8, addend: 0x0, symName: __ZNKSt3__16vectorIbNS_9allocatorIbEEE20__throw_length_errorB8ne180100Ev, symObjAddr: 0x2DFDC, symBinAddr: 0x10003213C, symSize: 0x1C }
  - { offset: 0x9C12F, size: 0x8, addend: 0x0, symName: __ZNSt3__16vectorIbNS_9allocatorIbEEE7__allocB8ne180100Ev, symObjAddr: 0x2E038, symBinAddr: 0x100032198, symSize: 0x28 }
  - { offset: 0x9C155, size: 0x8, addend: 0x0, symName: __ZNSt3__16vectorIbNS_9allocatorIbEEE26__external_cap_to_internalB8ne180100Em, symObjAddr: 0x2E060, symBinAddr: 0x1000321C0, symSize: 0x24 }
  - { offset: 0x9C179, size: 0x8, addend: 0x0, symName: __ZNSt3__16vectorIbNS_9allocatorIbEEE5__capB8ne180100Ev, symObjAddr: 0x2E084, symBinAddr: 0x1000321E4, symSize: 0x28 }
  - { offset: 0x9C1AA, size: 0x8, addend: 0x0, symName: __ZNSt3__116allocator_traitsINS_9allocatorImEEE8max_sizeB8ne180100IS2_vEEmRKS2_, symObjAddr: 0x2E0AC, symBinAddr: 0x10003220C, symSize: 0x24 }
  - { offset: 0x9C1D8, size: 0x8, addend: 0x0, symName: __ZNKSt3__16vectorIbNS_9allocatorIbEEE7__allocB8ne180100Ev, symObjAddr: 0x2E0D0, symBinAddr: 0x100032230, symSize: 0x28 }
  - { offset: 0x9C1FE, size: 0x8, addend: 0x0, symName: __ZNSt3__16vectorIbNS_9allocatorIbEEE26__internal_cap_to_externalB8ne180100Em, symObjAddr: 0x2E0F8, symBinAddr: 0x100032258, symSize: 0x18 }
  - { offset: 0x9C222, size: 0x8, addend: 0x0, symName: __ZNKSt3__19allocatorImE8max_sizeB8ne180100Ev, symObjAddr: 0x2E110, symBinAddr: 0x100032270, symSize: 0x14 }
  - { offset: 0x9C248, size: 0x8, addend: 0x0, symName: __ZNKSt3__117__compressed_pairImNS_9allocatorImEEE6secondB8ne180100Ev, symObjAddr: 0x2E124, symBinAddr: 0x100032284, symSize: 0x24 }
  - { offset: 0x9C26E, size: 0x8, addend: 0x0, symName: __ZNKSt3__122__compressed_pair_elemINS_9allocatorImEELi1ELb1EE5__getB8ne180100Ev, symObjAddr: 0x2E148, symBinAddr: 0x1000322A8, symSize: 0x14 }
  - { offset: 0x9C294, size: 0x8, addend: 0x0, symName: __ZNSt3__19allocatorImE8allocateB8ne180100Em, symObjAddr: 0x2E15C, symBinAddr: 0x1000322BC, symSize: 0x58 }
  - { offset: 0x9C2C8, size: 0x8, addend: 0x0, symName: __ZNSt3__117__compressed_pairImNS_9allocatorImEEE6secondB8ne180100Ev, symObjAddr: 0x2E1B4, symBinAddr: 0x100032314, symSize: 0x24 }
  - { offset: 0x9C2EE, size: 0x8, addend: 0x0, symName: __ZNSt3__122__compressed_pair_elemINS_9allocatorImEELi1ELb1EE5__getB8ne180100Ev, symObjAddr: 0x2E1D8, symBinAddr: 0x100032338, symSize: 0x14 }
  - { offset: 0x9C314, size: 0x8, addend: 0x0, symName: __ZNSt3__117__compressed_pairImNS_9allocatorImEEE5firstB8ne180100Ev, symObjAddr: 0x2E1EC, symBinAddr: 0x10003234C, symSize: 0x24 }
  - { offset: 0x9C33A, size: 0x8, addend: 0x0, symName: __ZNSt3__16vectorIbNS_9allocatorIbEEE11__make_iterB8ne180100Em, symObjAddr: 0x2E2A4, symBinAddr: 0x100032404, symSize: 0x64 }
  - { offset: 0x9C36F, size: 0x8, addend: 0x0, symName: __ZNSt3__114__bit_iteratorINS_6vectorIbNS_9allocatorIbEEEELb0ELm0EEC1B8ne180100ERKS5_, symObjAddr: 0x2E46C, symBinAddr: 0x1000325CC, symSize: 0x34 }
  - { offset: 0x9C3A8, size: 0x8, addend: 0x0, symName: __ZNSt3__114__bit_iteratorINS_6vectorIbNS_9allocatorIbEEEELb0ELm0EEC2B8ne180100ERKS5_, symObjAddr: 0x2E6BC, symBinAddr: 0x10003281C, symSize: 0x30 }
  - { offset: 0x9C3E1, size: 0x8, addend: 0x0, symName: __ZNSt3__114__bit_iteratorINS_6vectorIbNS_9allocatorIbEEEELb0ELm0EEC1B8ne180100EPmj, symObjAddr: 0x2E6EC, symBinAddr: 0x10003284C, symSize: 0x3C }
  - { offset: 0x9C429, size: 0x8, addend: 0x0, symName: __ZNSt3__114__bit_iteratorINS_6vectorIbNS_9allocatorIbEEEELb0ELm0EEC2B8ne180100EPmj, symObjAddr: 0x2E728, symBinAddr: 0x100032888, symSize: 0x2C }
  - { offset: 0x9C471, size: 0x8, addend: 0x0, symName: __ZNSt3__16vectorIbNS_9allocatorIbEEED2B8ne180100Ev, symObjAddr: 0x2E754, symBinAddr: 0x1000328B4, symSize: 0x44 }
  - { offset: 0x9C49B, size: 0x8, addend: 0x0, symName: __ZNSt3__16vectorIbNS_9allocatorIbEEE16__destroy_vectorC1B8ne180100ERS3_, symObjAddr: 0x2E798, symBinAddr: 0x1000328F8, symSize: 0x34 }
  - { offset: 0x9C4D4, size: 0x8, addend: 0x0, symName: __ZNSt3__16vectorIbNS_9allocatorIbEEE16__destroy_vectorclB8ne180100Ev, symObjAddr: 0x2E7CC, symBinAddr: 0x10003292C, symSize: 0x7C }
  - { offset: 0x9C4FA, size: 0x8, addend: 0x0, symName: __ZNSt3__16vectorIbNS_9allocatorIbEEE16__destroy_vectorC2B8ne180100ERS3_, symObjAddr: 0x2E848, symBinAddr: 0x1000329A8, symSize: 0x20 }
  - { offset: 0x9C533, size: 0x8, addend: 0x0, symName: __ZNSt3__116allocator_traitsINS_9allocatorImEEE10deallocateB8ne180100ERS2_Pmm, symObjAddr: 0x2E868, symBinAddr: 0x1000329C8, symSize: 0x34 }
  - { offset: 0x9C575, size: 0x8, addend: 0x0, symName: __ZNSt3__19allocatorImE10deallocateB8ne180100EPmm, symObjAddr: 0x2E89C, symBinAddr: 0x1000329FC, symSize: 0x40 }
  - { offset: 0x9C5B7, size: 0x8, addend: 0x0, symName: __ZNSt3__16__treeINS_12__value_typeIiiEENS_19__map_value_compareIiS2_NS_4lessIiEELb1EEENS_9allocatorIS2_EEE5beginB8ne180100Ev, symObjAddr: 0x2E8DC, symBinAddr: 0x100032A3C, symSize: 0x34 }
  - { offset: 0x9C5DD, size: 0x8, addend: 0x0, symName: __ZNSt3__114__map_iteratorINS_15__tree_iteratorINS_12__value_typeIiiEEPNS_11__tree_nodeIS3_PvEElEEEC1B8ne180100ES8_, symObjAddr: 0x2E910, symBinAddr: 0x100032A70, symSize: 0x34 }
  - { offset: 0x9C616, size: 0x8, addend: 0x0, symName: __ZNSt3__115__tree_iteratorINS_12__value_typeIiiEEPNS_11__tree_nodeIS2_PvEElEC1B8ne180100EPNS_15__tree_end_nodeIPNS_16__tree_node_baseIS4_EEEE, symObjAddr: 0x2E944, symBinAddr: 0x100032AA4, symSize: 0x34 }
  - { offset: 0x9C64F, size: 0x8, addend: 0x0, symName: __ZNSt3__115__tree_iteratorINS_12__value_typeIiiEEPNS_11__tree_nodeIS2_PvEElEC2B8ne180100EPNS_15__tree_end_nodeIPNS_16__tree_node_baseIS4_EEEE, symObjAddr: 0x2E978, symBinAddr: 0x100032AD8, symSize: 0x20 }
  - { offset: 0x9C688, size: 0x8, addend: 0x0, symName: __ZNSt3__114__map_iteratorINS_15__tree_iteratorINS_12__value_typeIiiEEPNS_11__tree_nodeIS3_PvEElEEEC2B8ne180100ES8_, symObjAddr: 0x2E998, symBinAddr: 0x100032AF8, symSize: 0x20 }
  - { offset: 0x9C6C1, size: 0x8, addend: 0x0, symName: __ZNSt3__16__treeINS_12__value_typeIiiEENS_19__map_value_compareIiS2_NS_4lessIiEELb1EEENS_9allocatorIS2_EEE3endB8ne180100Ev, symObjAddr: 0x2E9B8, symBinAddr: 0x100032B18, symSize: 0x34 }
  - { offset: 0x9C6E7, size: 0x8, addend: 0x0, symName: __ZNSt3__115__tree_iteratorINS_12__value_typeIiiEEPNS_11__tree_nodeIS2_PvEElEppB8ne180100Ev, symObjAddr: 0x2EA50, symBinAddr: 0x100032BB0, symSize: 0x38 }
  - { offset: 0x9C70D, size: 0x8, addend: 0x0, symName: __ZNSt3__16vectorIbNS_9allocatorIbEEE10__make_refB8ne180100Em, symObjAddr: 0x2EB48, symBinAddr: 0x100032CA8, symSize: 0x60 }
  - { offset: 0x9C742, size: 0x8, addend: 0x0, symName: __ZNSt3__115__bit_referenceINS_6vectorIbNS_9allocatorIbEEEELb1EEC1B8ne180100EPmm, symObjAddr: 0x2EBA8, symBinAddr: 0x100032D08, symSize: 0x3C }
  - { offset: 0x9C788, size: 0x8, addend: 0x0, symName: __ZNSt3__115__bit_referenceINS_6vectorIbNS_9allocatorIbEEEELb1EEC2B8ne180100EPmm, symObjAddr: 0x2EBE4, symBinAddr: 0x100032D44, symSize: 0x2C }
...
